 mysqld-debug

 Timestamp is 4790c988 (Fri Jan 18 15:45:12 2008)

 Preferred load address is 00400000

 Start         Length     Name                   Class
 0001:00000000 00561fe2H .text                   CODE
 0001:00561ff0 0000d69dH .text$yc                CODE
 0001:0056f690 00002cd9H .text$yd                CODE
 0002:00000000 000eda38H .rdata                  DATA
 0002:000eda38 0000018eH .rdata$debug            DATA
 0002:000edbc8 00010100H .rdata$r                DATA
 0002:000fdcd0 00000109H .rdata$sxdata           DATA
 0002:000fdddc 00000104H .rtc$IAA                DATA
 0002:000fdee0 000007bbH .rtc$IMZ                DATA
 0002:000fe69c 00000104H .rtc$IZZ                DATA
 0002:000fe7a0 00000104H .rtc$TAA                DATA
 0002:000fe8a4 000007bbH .rtc$TMZ                DATA
 0002:000ff060 00000104H .rtc$TZZ                DATA
 0002:000ff164 00000000H .edata                  DATA
 0003:00000000 00000104H .CRT$XCA                DATA
 0003:00000104 00000104H .CRT$XCAA               DATA
 0003:00000208 00000798H .CRT$XCU                DATA
 0003:000009a0 00000104H .CRT$XCZ                DATA
 0003:00000aa4 00000104H .CRT$XIA                DATA
 0003:00000ba8 00000118H .CRT$XIC                DATA
 0003:00000cc0 00000104H .CRT$XIZ                DATA
 0003:00000dc4 00000004H .CRT$XLA                DATA
 0003:00000dc8 00000004H .CRT$XLZ                DATA
 0003:00000dcc 00000104H .CRT$XPA                DATA
 0003:00000ed0 00000104H .CRT$XPX                DATA
 0003:00000fd4 00000104H .CRT$XPZ                DATA
 0003:000010d8 00000104H .CRT$XTA                DATA
 0003:000011dc 00000104H .CRT$XTZ                DATA
 0003:000012e0 001a1fb6H .data                   DATA
 0003:001a32a0 00010e24H .bss                    DATA
 0004:00000000 00000050H .idata$2                DATA
 0004:00000050 00000014H .idata$3                DATA
 0004:00000064 000004c0H .idata$4                DATA
 0004:00000524 000004c0H .idata$5                DATA
 0004:000009e4 00001066H .idata$6                DATA
 0005:00000000 00000101H .tls                    DATA
 0005:00000108 000001abH .tls$                   DATA
 0005:000002b3 00000101H .tls$ZZZ                DATA
 0006:00000000 00000169H .rsrc$01                DATA
 0006:00000170 000001dcH .rsrc$02                DATA

  Address         Publics by Value              Rva+Base     Lib:Object

 0000:00000000       __except_list              00000000     <absolute>
 0000:00000002       ___safe_se_handler_count   00000002     <absolute>
 0000:0000002c       __tls_array                0000002c     <absolute>
 0001:00017430       _my_connect                00418430 f   client.obj
 0001:00017450       _create_named_pipe         00418450 f   client.obj
 0001:00017870       _cli_safe_read             00418870 f   client.obj
 0001:00017ac0       _free_rows                 00418ac0 f   client.obj
 0001:00017b00       _cli_advanced_command      00418b00 f   client.obj
 0001:00017e90       _free_old_query            00418e90 f   client.obj
 0001:00017fe0       _set_mysql_error           00418fe0 f   client.obj
 0001:000182f0       _end_server                004192f0 f   client.obj
 0001:00018460       _mysql_free_result@4       00419460 f   client.obj
 0001:00018660       _mysql_read_default_options 00419660 f   client.obj
 0001:00019000       _unpack_fields             0041a000 f   client.obj
 0001:000195a0       _cli_read_rows             0041a5a0 f   client.obj
 0001:00019a40       _mysql_init@4              0041aa40 f   client.obj
 0001:00019b30       _mysql_ssl_set@24          0041ab30 f   client.obj
 0001:00019d20       _mysql_get_ssl_cipher@4    0041ad20 f   client.obj
 0001:00019e50       _mysql_init_character_set  0041ae50 f   client.obj
 0001:0001a0d0       _mysql_real_connect@32     0041b0d0 f   client.obj
 0001:0001bed0       _mysql_reconnect           0041ced0 f   client.obj
 0001:0001c480       _mysql_select_db@8         0041d480 f   client.obj
 0001:0001cbb0       _mysql_detach_stmt_list    0041dbb0 f   client.obj
 0001:0001cbc0       _mysql_close@4             0041dbc0 f   client.obj
 0001:0001d1a0       _mysql_send_query@12       0041e1a0 f   client.obj
 0001:0001d370       _mysql_real_query@12       0041e370 f   client.obj
 0001:0001d500       _mysql_store_result@4      0041e500 f   client.obj
 0001:0001daa0       _mysql_fetch_row@4         0041eaa0 f   client.obj
 0001:0001df10       _mysql_fetch_lengths@4     0041ef10 f   client.obj
 0001:0001df80       _mysql_options@12          0041ef80 f   client.obj
 0001:0001e3d0       _mysql_num_rows@4          0041f3d0 f   client.obj
 0001:0001e3e0       _mysql_num_fields@4        0041f3e0 f   client.obj
 0001:0001e3f0       _mysql_errno@4             0041f3f0 f   client.obj
 0001:0001e400       _mysql_error@4             0041f400 f   client.obj
 0001:0001e410       _mysql_get_server_version@4 0041f410 f   client.obj
 0001:0001e4e0       _mysql_set_character_set@8 0041f4e0 f   client.obj
 0001:00020320       ??_H@YGXPAXIHP6EPAX0@Z@Z   00421320 f i derror.obj
 0001:00020370       ??_I@YGXPAXIHP6EX0@Z@Z     00421370 f i derror.obj
 0001:000203d0       ?init_errmessage@@YAHXZ    004213d0 f   derror.obj
 0001:00020c90       ?load_des_key_file@@YAHPBD@Z 00421c90 f   des_key_file.obj
 0001:000211e0       ?readfrm@@YAHPBDPAPBXPAI@Z 004221e0 f   discover.obj
 0001:00021450       ?writefrm@@YAHPBDPBXI@Z    00422450 f   discover.obj
 0001:00021730       _init_client_errs          00422730 f   errmsg.obj
 0001:00021760       _finish_client_errs        00422760 f   errmsg.obj
 0001:000217a0       ?field_type_merge@Field@@SA?AW4enum_field_types@@W42@0@Z 004227a0 f   field.obj
 0001:00021820       ?result_merge_type@Field@@SA?AW4Item_result@@W4enum_field_types@@@Z 00422820 f   field.obj
 0001:00021870       ?type_can_have_key_part@Field@@SAHW4enum_field_types@@@Z 00422870 f   field.obj
 0001:000218b0       ??0Field_num@@QAE@PADKPAEEW4utype@Field@@PBDPAUst_table@@EHH@Z 004228b0 f   field.obj
 0001:00021950       ?prepend_zeros@Field_num@@QAEXPAVString@@@Z 00422950 f   field.obj
 0001:00021a00       ?check_int@Field_num@@QAEHPAUcharset_info_st@@PBDH1H@Z 00422a00 f   field.obj
 0001:00021bc0       ?get_int@Field_num@@QAEHPAUcharset_info_st@@PBDIPA_J_K_J4@Z 00422bc0 f   field.obj
 0001:00021d60       ?warn_if_overflow@Field@@QAEHH@Z 00422d60 f   field.obj
 0001:00021dc0       ?val_int_as_str@Field@@QAEPAVString@@PAV2@D@Z 00422dc0 f   field.obj
 0001:00021e70       ??0Field@@QAE@PADKPAEEW4utype@0@PBDPAUst_table@@@Z 00422e70 f   field.obj
 0001:00021f70       ?offset@Field@@QAEIXZ      00422f70 f   field.obj
 0001:00021fa0       ?copy_from_tmp@Field@@QAEXH@Z 00422fa0 f   field.obj
 0001:00022030       ?send_binary@Field@@UAEHPAVProtocol@@@Z 00423030 f   field.obj
 0001:00022140       ?val_decimal@Field@@UAEPAVmy_decimal@@PAV2@@Z 00423140 f   field.obj
 0001:00022180       ?add_zerofill_and_unsigned@Field_num@@QBEXAAVString@@@Z 00423180 f   field.obj
 0001:000221d0       ?make_field@Field@@UAEXPAVSend_field@@@Z 004231d0 f   field.obj
 0001:00022310       ?convert_decimal2longlong@Field@@QAE_JPBVmy_decimal@@HPAH@Z 00423310 f   field.obj
 0001:00022450       ?store_decimal@Field_num@@UAEHPBVmy_decimal@@@Z 00423450 f   field.obj
 0001:00022500       ?val_decimal@Field_num@@UAEPAVmy_decimal@@PAV2@@Z 00423500 f   field.obj
 0001:000225a0       ??0Field_str@@QAE@PADKPAEEW4utype@Field@@PBDPAUst_table@@PAUcharset_info_st@@@Z 004235a0 f   field.obj
 0001:00022620       ?make_field@Field_num@@UAEXPAVSend_field@@@Z 00423620 f   field.obj
 0001:00022660       ?store_decimal@Field_str@@UAEHPBVmy_decimal@@@Z 00423660 f   field.obj
 0001:00022700       ?val_decimal@Field_str@@UAEPAVmy_decimal@@PAV2@@Z 00423700 f   field.obj
 0001:00022770       ?fill_cache_field@Field@@QAEIPAUst_cache_field@@@Z 00423770 f   field.obj
 0001:00022880       ?get_date@Field@@UAEHPAUst_mysql_time@@I@Z 00423880 f   field.obj
 0001:00022970       ?get_time@Field@@UAEHPAUst_mysql_time@@@Z 00423970 f   field.obj
 0001:00022a60       ?store_time@Field@@UAEHPAUst_mysql_time@@W4enum_mysql_timestamp_type@@@Z 00423a60 f   field.obj
 0001:00022b00       ?optimize_range@Field@@UAEHII@Z 00423b00 f   field.obj
 0001:00022b60       ?new_field@Field@@UAEPAV1@PAUst_mem_root@@PAUst_table@@H@Z 00423b60 f   field.obj
 0001:00022c50       ?new_key_field@Field@@UAEPAV1@PAUst_mem_root@@PAUst_table@@PADPAEI@Z 00423c50 f   field.obj
 0001:00022cd0       ?sql_type@Field_null@@UBEXAAVString@@@Z 00423cd0 f   field.obj
 0001:00022d00       ?reset@Field_decimal@@UAEHXZ 00423d00 f   field.obj
 0001:00022d40       ?overflow@Field_decimal@@QAEXH@Z 00423d40 f   field.obj
 0001:00022e60       ?store@Field_decimal@@UAEHPBDIPAUcharset_info_st@@@Z 00423e60 f   field.obj
 0001:00023950       ?store@Field_decimal@@UAEHN@Z 00424950 f   field.obj
 0001:00023b20       ?store@Field_decimal@@UAEH_JH@Z 00424b20 f   field.obj
 0001:00023ce0       ?val_real@Field_decimal@@UAENXZ 00424ce0 f   field.obj
 0001:00023d90       ?val_int@Field_decimal@@UAE_JXZ 00424d90 f   field.obj
 0001:00023e60       ?val_str@Field_decimal@@UAEPAVString@@PAV2@0@Z 00424e60 f   field.obj
 0001:00023f00       ?cmp@Field_decimal@@UAEHPBD0@Z 00424f00 f   field.obj
 0001:00024050       ?sort_string@Field_decimal@@UAEXPADI@Z 00425050 f   field.obj
 0001:00024190       ?sql_type@Field_decimal@@UBEXAAVString@@@Z 00425190 f   field.obj
 0001:00024250       ??0Field_new_decimal@@QAE@PADKPAEEW4utype@Field@@PBDPAUst_table@@EHH@Z 00425250 f   field.obj
 0001:00024330       ??0Field_new_decimal@@QAE@KHPBDPAUst_table@@EH@Z 00425330 f   field.obj
 0001:00024410       ?reset@Field_new_decimal@@UAEHXZ 00425410 f   field.obj
 0001:00024440       ?set_value_on_overflow@Field_new_decimal@@QAEXPAVmy_decimal@@H@Z 00425440 f   field.obj
 0001:00024580       ?store_value@Field_new_decimal@@QAEHPBVmy_decimal@@@Z 00425580 f   field.obj
 0001:000248a0       ?store@Field_new_decimal@@UAEHPBDIPAUcharset_info_st@@@Z 004258a0 f   field.obj
 0001:00024c30       ?store@Field_new_decimal@@UAEHN@Z 00425c30 f   field.obj
 0001:00024e20       ?store@Field_new_decimal@@UAEH_JH@Z 00425e20 f   field.obj
 0001:00024f30       ?store_decimal@Field_new_decimal@@UAEHPBVmy_decimal@@@Z 00425f30 f   field.obj
 0001:00024f60       ?store_time@Field_new_decimal@@UAEHPAUst_mysql_time@@W4enum_mysql_timestamp_type@@@Z 00425f60 f   field.obj
 0001:00024fe0       ?val_real@Field_new_decimal@@UAENXZ 00425fe0 f   field.obj
 0001:00025090       ?val_int@Field_new_decimal@@UAE_JXZ 00426090 f   field.obj
 0001:00025140       ?val_decimal@Field_new_decimal@@UAEPAVmy_decimal@@PAV2@@Z 00426140 f   field.obj
 0001:00025280       ?val_str@Field_new_decimal@@UAEPAVString@@PAV2@0@Z 00426280 f   field.obj
 0001:00025350       ?cmp@Field_new_decimal@@UAEHPBD0@Z 00426350 f   field.obj
 0001:00025390       ?sort_string@Field_new_decimal@@UAEXPADI@Z 00426390 f   field.obj
 0001:000253d0       ?sql_type@Field_new_decimal@@UBEXAAVString@@@Z 004263d0 f   field.obj
 0001:00025460       ?store@Field_tiny@@UAEHPBDIPAUcharset_info_st@@@Z 00426460 f   field.obj
 0001:00025510       ?store@Field_tiny@@UAEHN@Z 00426510 f   field.obj
 0001:00025650       ?store@Field_tiny@@UAEH_JH@Z 00426650 f   field.obj
 0001:000257a0       ?val_real@Field_tiny@@UAENXZ 004267a0 f   field.obj
 0001:000257f0       ?val_int@Field_tiny@@UAE_JXZ 004267f0 f   field.obj
 0001:00025840       ?val_str@Field_tiny@@UAEPAVString@@PAV2@0@Z 00426840 f   field.obj
 0001:00025960       ?send_binary@Field_tiny@@UAEHPAVProtocol@@@Z 00426960 f   field.obj
 0001:000259a0       ?cmp@Field_tiny@@UAEHPBD0@Z 004269a0 f   field.obj
 0001:00025a30       ?sort_string@Field_tiny@@UAEXPADI@Z 00426a30 f   field.obj
 0001:00025a70       ?sql_type@Field_tiny@@UBEXAAVString@@@Z 00426a70 f   field.obj
 0001:00025af0       ?store@Field_short@@UAEHPBDIPAUcharset_info_st@@@Z 00426af0 f   field.obj
 0001:00025bb0       ?store@Field_short@@UAEHN@Z 00426bb0 f   field.obj
 0001:00025cf0       ?store@Field_short@@UAEH_JH@Z 00426cf0 f   field.obj
 0001:00025e40       ?val_real@Field_short@@UAENXZ 00426e40 f   field.obj
 0001:00025ea0       ?val_int@Field_short@@UAE_JXZ 00426ea0 f   field.obj
 0001:00025f00       ?val_str@Field_short@@UAEPAVString@@PAV2@0@Z 00426f00 f   field.obj
 0001:00026020       ?send_binary@Field_short@@UAEHPAVProtocol@@@Z 00427020 f   field.obj
 0001:00026060       ?cmp@Field_short@@UAEHPBD0@Z 00427060 f   field.obj
 0001:00026100       ?sort_string@Field_short@@UAEXPADI@Z 00427100 f   field.obj
 0001:00026150       ?sql_type@Field_short@@UBEXAAVString@@@Z 00427150 f   field.obj
 0001:000261d0       ?store@Field_medium@@UAEHPBDIPAUcharset_info_st@@@Z 004271d0 f   field.obj
 0001:000262b0       ?store@Field_medium@@UAEHN@Z 004272b0 f   field.obj
 0001:000264e0       ?store@Field_medium@@UAEH_JH@Z 004274e0 f   field.obj
 0001:00026700       ?val_real@Field_medium@@UAENXZ 00427700 f   field.obj
 0001:000267c0       ?val_int@Field_medium@@UAE_JXZ 004277c0 f   field.obj
 0001:00026880       ?val_str@Field_medium@@UAEPAVString@@PAV2@0@Z 00427880 f   field.obj
 0001:00026a00       ?send_binary@Field_medium@@UAEHPAVProtocol@@@Z 00427a00 f   field.obj
 0001:00026a40       ?cmp@Field_medium@@UAEHPBD0@Z 00427a40 f   field.obj
 0001:00026b70       ?sort_string@Field_medium@@UAEXPADI@Z 00427b70 f   field.obj
 0001:00026bd0       ?sql_type@Field_medium@@UBEXAAVString@@@Z 00427bd0 f   field.obj
 0001:00026c50       ?store@Field_long@@UAEHPBDIPAUcharset_info_st@@@Z 00427c50 f   field.obj
 0001:00026d10       ?store@Field_long@@UAEHN@Z 00427d10 f   field.obj
 0001:00026e30       ?store@Field_long@@UAEH_JH@Z 00427e30 f   field.obj
 0001:00026f70       ?val_real@Field_long@@UAENXZ 00427f70 f   field.obj
 0001:00026fd0       ?val_int@Field_long@@UAE_JXZ 00427fd0 f   field.obj
 0001:00027060       ?val_str@Field_long@@UAEPAVString@@PAV2@0@Z 00428060 f   field.obj
 0001:00027180       ?send_binary@Field_long@@UAEHPAVProtocol@@@Z 00428180 f   field.obj
 0001:000271c0       ?cmp@Field_long@@UAEHPBD0@Z 004281c0 f   field.obj
 0001:00027250       ?sort_string@Field_long@@UAEXPADI@Z 00428250 f   field.obj
 0001:000272c0       ?sql_type@Field_long@@UBEXAAVString@@@Z 004282c0 f   field.obj
 0001:00027340       ?store@Field_longlong@@UAEHPBDIPAUcharset_info_st@@@Z 00428340 f   field.obj
 0001:00027470       ?store@Field_longlong@@UAEHN@Z 00428470 f   field.obj
 0001:00027620       ?store@Field_longlong@@UAEH_JH@Z 00428620 f   field.obj
 0001:000276d0       ?val_real@Field_longlong@@UAENXZ 004286d0 f   field.obj
 0001:00027770       ?val_int@Field_longlong@@UAE_JXZ 00428770 f   field.obj
 0001:000277e0       ?val_str@Field_longlong@@UAEPAVString@@PAV2@0@Z 004287e0 f   field.obj
 0001:00027900       ?send_binary@Field_longlong@@UAEHPAVProtocol@@@Z 00428900 f   field.obj
 0001:00027950       ?cmp@Field_longlong@@UAEHPBD0@Z 00428950 f   field.obj
 0001:00027a70       ?sort_string@Field_longlong@@UAEXPADI@Z 00428a70 f   field.obj
 0001:00027b20       ?sql_type@Field_longlong@@UBEXAAVString@@@Z 00428b20 f   field.obj
 0001:00027ba0       ?store@Field_float@@UAEHPBDIPAUcharset_info_st@@@Z 00428ba0 f   field.obj
 0001:00027cb0       ?store@Field_float@@UAEHN@Z 00428cb0 f   field.obj
 0001:00027d40       ?store@Field_float@@UAEH_JH@Z 00428d40 f   field.obj
 0001:00027db0       ?val_real@Field_float@@UAENXZ 00428db0 f   field.obj
 0001:00027e20       ?val_int@Field_float@@UAE_JXZ 00428e20 f   field.obj
 0001:00027ea0       ?val_str@Field_float@@UAEPAVString@@PAV2@0@Z 00428ea0 f   field.obj
 0001:00027ff0       ?cmp@Field_float@@UAEHPBD0@Z 00428ff0 f   field.obj
 0001:000280c0       ?sort_string@Field_float@@UAEXPADI@Z 004290c0 f   field.obj
 0001:00028220       ?send_binary@Field_float@@UAEHPAVProtocol@@@Z 00429220 f   field.obj
 0001:00028280       ?sql_type@Field_float@@UBEXAAVString@@@Z 00429280 f   field.obj
 0001:00028330       ?store@Field_double@@UAEHPBDIPAUcharset_info_st@@@Z 00429330 f   field.obj
 0001:00028440       ?store@Field_double@@UAEHN@Z 00429440 f   field.obj
 0001:000284a0       ?store@Field_double@@UAEH_JH@Z 004294a0 f   field.obj
 0001:00028510       ?truncate@Field_real@@QAEHPANN@Z 00429510 f   field.obj
 0001:00028710       ?store_decimal@Field_real@@UAEHPBVmy_decimal@@@Z 00429710 f   field.obj
 0001:000287a0       ?val_real@Field_double@@UAENXZ 004297a0 f   field.obj
 0001:000287e0       ?val_int@Field_double@@UAE_JXZ 004297e0 f   field.obj
 0001:00028960       ?val_decimal@Field_real@@UAEPAVmy_decimal@@PAV2@@Z 00429960 f   field.obj
 0001:000289b0       ?val_str@Field_double@@UAEPAVString@@PAV2@0@Z 004299b0 f   field.obj
 0001:00028ad0       ?send_binary@Field_double@@UAEHPAVProtocol@@@Z 00429ad0 f   field.obj
 0001:00028b20       ?cmp@Field_double@@UAEHPBD0@Z 00429b20 f   field.obj
 0001:00028bb0       ?sort_string@Field_double@@UAEXPADI@Z 00429bb0 f   field.obj
 0001:00028c10       ?sql_type@Field_double@@UBEXAAVString@@@Z 00429c10 f   field.obj
 0001:00028cc0       ??0Field_timestamp@@QAE@PADKPAEEW4utype@Field@@PBDPAUst_table@@PAUcharset_info_st@@@Z 00429cc0 f   field.obj
 0001:00028d60       ??0Field_timestamp@@QAE@HPBDPAUst_table@@PAUcharset_info_st@@@Z 00429d60 f   field.obj
 0001:00028e10       ?get_auto_set_type@Field_timestamp@@QBE?AW4timestamp_auto_set_type@@XZ 00429e10 f   field.obj
 0001:00028ed0       ?store@Field_timestamp@@UAEHPBDIPAUcharset_info_st@@@Z 00429ed0 f   field.obj
 0001:00029090       ?store@Field_timestamp@@UAEHN@Z 0042a090 f   field.obj
 0001:00029140       ?store@Field_timestamp@@UAEH_JH@Z 0042a140 f   field.obj
 0001:000292e0       ?val_real@Field_timestamp@@UAENXZ 0042a2e0 f   field.obj
 0001:00029320       ?val_int@Field_timestamp@@UAE_JXZ 0042a320 f   field.obj
 0001:00029450       ?val_str@Field_timestamp@@UAEPAVString@@PAV2@0@Z 0042a450 f   field.obj
 0001:000297e0       ?get_date@Field_timestamp@@UAEHPAUst_mysql_time@@I@Z 0042a7e0 f   field.obj
 0001:000298b0       ?get_time@Field_timestamp@@UAEHPAUst_mysql_time@@@Z 0042a8b0 f   field.obj
 0001:000298e0       ?send_binary@Field_timestamp@@UAEHPAVProtocol@@@Z 0042a8e0 f   field.obj
 0001:00029960       ?cmp@Field_timestamp@@UAEHPBD0@Z 0042a960 f   field.obj
 0001:000299c0       ?sort_string@Field_timestamp@@UAEXPADI@Z 0042a9c0 f   field.obj
 0001:00029a10       ?sql_type@Field_timestamp@@UBEXAAVString@@@Z 0042aa10 f   field.obj
 0001:00029a40       ?set_time@Field_timestamp@@QAEXXZ 0042aa40 f   field.obj
 0001:00029ab0       ?store@Field_time@@UAEHPBDIPAUcharset_info_st@@@Z 0042aab0 f   field.obj
 0001:00029c40       ?store_time@Field_time@@UAEHPAUst_mysql_time@@W4enum_mysql_timestamp_type@@@Z 0042ac40 f   field.obj
 0001:00029ce0       ?store@Field_time@@UAEHN@Z 0042ace0 f   field.obj
 0001:00029e50       ?store@Field_time@@UAEH_JH@Z 0042ae50 f   field.obj
 0001:00029fa0       ?val_real@Field_time@@UAENXZ 0042afa0 f   field.obj
 0001:00029fe0       ?val_int@Field_time@@UAE_JXZ 0042afe0 f   field.obj
 0001:0002a070       ?val_str@Field_time@@UAEPAVString@@PAV2@0@Z 0042b070 f   field.obj
 0001:0002a1b0       ?get_date@Field_time@@UAEHPAUst_mysql_time@@I@Z 0042b1b0 f   field.obj
 0001:0002a350       ?get_time@Field_time@@UAEHPAUst_mysql_time@@@Z 0042b350 f   field.obj
 0001:0002a470       ?send_binary@Field_time@@UAEHPAVProtocol@@@Z 0042b470 f   field.obj
 0001:0002a510       ?cmp@Field_time@@UAEHPBD0@Z 0042b510 f   field.obj
 0001:0002a620       ?sort_string@Field_time@@UAEXPADI@Z 0042b620 f   field.obj
 0001:0002a670       ?sql_type@Field_time@@UBEXAAVString@@@Z 0042b670 f   field.obj
 0001:0002a6a0       ?store@Field_year@@UAEHPBDIPAUcharset_info_st@@@Z 0042b6a0 f   field.obj
 0001:0002a870       ?store@Field_year@@UAEHN@Z 0042b870 f   field.obj
 0001:0002a8e0       ?store@Field_year@@UAEH_JH@Z 0042b8e0 f   field.obj
 0001:0002a9d0       ?send_binary@Field_year@@UAEHPAVProtocol@@@Z 0042b9d0 f   field.obj
 0001:0002aa30       ?val_real@Field_year@@UAENXZ 0042ba30 f   field.obj
 0001:0002aa70       ?val_int@Field_year@@UAE_JXZ 0042ba70 f   field.obj
 0001:0002aad0       ?val_str@Field_year@@UAEPAVString@@PAV2@0@Z 0042bad0 f   field.obj
 0001:0002ab60       ?sql_type@Field_year@@UBEXAAVString@@@Z 0042bb60 f   field.obj
 0001:0002abe0       ?store@Field_date@@UAEHPBDIPAUcharset_info_st@@@Z 0042bbe0 f   field.obj
 0001:0002ad00       ?store@Field_date@@UAEHN@Z 0042bd00 f   field.obj
 0001:0002adf0       ?store@Field_date@@UAEH_JH@Z 0042bdf0 f   field.obj
 0001:0002af60       ?send_binary@Field_date@@UAEHPAVProtocol@@@Z 0042bf60 f   field.obj
 0001:0002b020       ?val_real@Field_date@@UAENXZ 0042c020 f   field.obj
 0001:0002b060       ?val_int@Field_date@@UAE_JXZ 0042c060 f   field.obj
 0001:0002b090       ?val_str@Field_date@@UAEPAVString@@PAV2@0@Z 0042c090 f   field.obj
 0001:0002b160       ?cmp@Field_date@@UAEHPBD0@Z 0042c160 f   field.obj
 0001:0002b1c0       ?sort_string@Field_date@@UAEXPADI@Z 0042c1c0 f   field.obj
 0001:0002b210       ?sql_type@Field_date@@UBEXAAVString@@@Z 0042c210 f   field.obj
 0001:0002b240       ?store@Field_newdate@@UAEHPBDIPAUcharset_info_st@@@Z 0042c240 f   field.obj
 0001:0002b3b0       ?store@Field_newdate@@UAEHN@Z 0042c3b0 f   field.obj
 0001:0002b450       ?store@Field_newdate@@UAEH_JH@Z 0042c450 f   field.obj
 0001:0002b5e0       ?store_time@Field_newdate@@UAEHPAUst_mysql_time@@W4enum_mysql_timestamp_type@@@Z 0042c5e0 f   field.obj
 0001:0002b840       ?send_binary@Field_newdate@@UAEHPAVProtocol@@@Z 0042c840 f   field.obj
 0001:0002b8c0       ?val_real@Field_newdate@@UAENXZ 0042c8c0 f   field.obj
 0001:0002b900       ?val_int@Field_newdate@@UAE_JXZ 0042c900 f   field.obj
 0001:0002b970       ?val_str@Field_newdate@@UAEPAVString@@PAV2@0@Z 0042c970 f   field.obj
 0001:0002bb20       ?get_date@Field_newdate@@UAEHPAUst_mysql_time@@I@Z 0042cb20 f   field.obj
 0001:0002bbf0       ?get_time@Field_newdate@@UAEHPAUst_mysql_time@@@Z 0042cbf0 f   field.obj
 0001:0002bc20       ?cmp@Field_newdate@@UAEHPBD0@Z 0042cc20 f   field.obj
 0001:0002bc80       ?sort_string@Field_newdate@@UAEXPADI@Z 0042cc80 f   field.obj
 0001:0002bcc0       ?sql_type@Field_newdate@@UBEXAAVString@@@Z 0042ccc0 f   field.obj
 0001:0002bcf0       ?store@Field_datetime@@UAEHPBDIPAUcharset_info_st@@@Z 0042ccf0 f   field.obj
 0001:0002be30       ?store@Field_datetime@@UAEHN@Z 0042ce30 f   field.obj
 0001:0002bee0       ?store@Field_datetime@@UAEH_JH@Z 0042cee0 f   field.obj
 0001:0002c020       ?store_time@Field_datetime@@UAEHPAUst_mysql_time@@W4enum_mysql_timestamp_type@@@Z 0042d020 f   field.obj
 0001:0002c200       ?send_binary@Field_datetime@@UAEHPAVProtocol@@@Z 0042d200 f   field.obj
 0001:0002c280       ?val_real@Field_datetime@@UAENXZ 0042d280 f   field.obj
 0001:0002c2c0       ?val_int@Field_datetime@@UAE_JXZ 0042d2c0 f   field.obj
 0001:0002c330       ?val_str@Field_datetime@@UAEPAVString@@PAV2@0@Z 0042d330 f   field.obj
 0001:0002c6b0       ?get_date@Field_datetime@@UAEHPAUst_mysql_time@@I@Z 0042d6b0 f   field.obj
 0001:0002c7f0       ?get_time@Field_datetime@@UAEHPAUst_mysql_time@@@Z 0042d7f0 f   field.obj
 0001:0002c820       ?cmp@Field_datetime@@UAEHPBD0@Z 0042d820 f   field.obj
 0001:0002c8f0       ?sort_string@Field_datetime@@UAEXPADI@Z 0042d8f0 f   field.obj
 0001:0002c980       ?sql_type@Field_datetime@@UBEXAAVString@@@Z 0042d980 f   field.obj
 0001:0002c9b0       ?store@Field_string@@UAEHPBDIPAUcharset_info_st@@@Z 0042d9b0 f   field.obj
 0001:0002cd70       ?store@Field_str@@UAEHN@Z  0042dd70 f   field.obj
 0001:0002d050       ?store@Field_string@@UAEH_JH@Z 0042e050 f   field.obj
 0001:0002d120       ?store_decimal@Field_longstr@@UAEHPBVmy_decimal@@@Z 0042e120 f   field.obj
 0001:0002d210       ?val_real@Field_string@@UAENXZ 0042e210 f   field.obj
 0001:0002d410       ?val_int@Field_string@@UAE_JXZ 0042e410 f   field.obj
 0001:0002d5d0       ?val_str@Field_string@@UAEPAVString@@PAV2@0@Z 0042e5d0 f   field.obj
 0001:0002d670       ?val_decimal@Field_string@@UAEPAVmy_decimal@@PAV2@@Z 0042e670 f   field.obj
 0001:0002d7f0       ?cmp@Field_string@@UAEHPBD0@Z 0042e7f0 f   field.obj
 0001:0002d8f0       ?sort_string@Field_string@@UAEXPADI@Z 0042e8f0 f   field.obj
 0001:0002d970       ?sql_type@Field_string@@UBEXAAVString@@@Z 0042e970 f   field.obj
 0001:0002db10       ?pack@Field_string@@UAEPADPADPBDI@Z 0042eb10 f   field.obj
 0001:0002dc30       ?unpack@Field_string@@UAEPBDPADPBD@Z 0042ec30 f   field.obj
 0001:0002dcc0       ?pack_cmp@Field_string@@UAEHPBD0ID@Z 0042ecc0 f   field.obj
 0001:0002dd80       ?pack_cmp@Field_string@@UAEHPBDID@Z 0042ed80 f   field.obj
 0001:0002de50       ?packed_col_length@Field_string@@UAEIPBDI@Z 0042ee50 f   field.obj
 0001:0002de90       ?max_packed_col_length@Field_string@@UAEII@Z 0042ee90 f   field.obj
 0001:0002dec0       ?get_key_image@Field_string@@UAEIPADIW4imagetype@Field@@@Z 0042eec0 f   field.obj
 0001:0002df90       ?new_field@Field_string@@UAEPAVField@@PAUst_mem_root@@PAUst_table@@H@Z 0042ef90 f   field.obj
 0001:0002e070       ?store@Field_varstring@@UAEHPBDIPAUcharset_info_st@@@Z 0042f070 f   field.obj
 0001:0002e220       ?store@Field_varstring@@UAEH_JH@Z 0042f220 f   field.obj
 0001:0002e2e0       ?val_real@Field_varstring@@UAENXZ 0042f2e0 f   field.obj
 0001:0002e3d0       ?val_int@Field_varstring@@UAE_JXZ 0042f3d0 f   field.obj
 0001:0002e4c0       ?val_str@Field_varstring@@UAEPAVString@@PAV2@0@Z 0042f4c0 f   field.obj
 0001:0002e540       ?val_decimal@Field_varstring@@UAEPAVmy_decimal@@PAV2@@Z 0042f540 f   field.obj
 0001:0002e5e0       ?cmp@Field_varstring@@UAEHPBD0@Z 0042f5e0 f   field.obj
 0001:0002e680       ?key_cmp@Field_varstring@@UAEHPBEI@Z 0042f680 f   field.obj
 0001:0002e780       ?key_cmp@Field_varstring@@UAEHPBE0@Z 0042f780 f   field.obj
 0001:0002e7e0       ?sort_string@Field_varstring@@UAEXPADI@Z 0042f7e0 f   field.obj
 0001:0002e8e0       ?key_type@Field_varstring@@UBE?AW4ha_base_keytype@@XZ 0042f8e0 f   field.obj
 0001:0002e950       ?sql_type@Field_varstring@@UBEXAAVString@@@Z 0042f950 f   field.obj
 0001:0002ea90       ?data_length@Field_varstring@@UAEKPBD@Z 0042fa90 f   field.obj
 0001:0002eae0       ?pack@Field_varstring@@UAEPADPADPBDI@Z 0042fae0 f   field.obj
 0001:0002ebc0       ?pack_key@Field_varstring@@UAEPADPADPBDI@Z 0042fbc0 f   field.obj
 0001:0002ecf0       ?unpack_key@Field_varstring@@UAEPBDPADPBDI@Z 0042fcf0 f   field.obj
 0001:0002ed90       ?pack_key_from_key_image@Field_varstring@@UAEPADPADPBDI@Z 0042fd90 f   field.obj
 0001:0002ee30       ?unpack@Field_varstring@@UAEPBDPADPBD@Z 0042fe30 f   field.obj
 0001:0002eee0       ?pack_cmp@Field_varstring@@UAEHPBD0ID@Z 0042fee0 f   field.obj
 0001:0002efa0       ?pack_cmp@Field_varstring@@UAEHPBDID@Z 0042ffa0 f   field.obj
 0001:0002f0f0       ?packed_col_length@Field_varstring@@UAEIPBDI@Z 004300f0 f   field.obj
 0001:0002f130       ?max_packed_col_length@Field_varstring@@UAEII@Z 00430130 f   field.obj
 0001:0002f160       ?get_key_image@Field_varstring@@UAEIPADIW4imagetype@Field@@@Z 00430160 f   field.obj
 0001:0002f270       ?set_key_image@Field_varstring@@UAEXPADI@Z 00430270 f   field.obj
 0001:0002f2c0       ?cmp_binary@Field_varstring@@UAEHPBD0K@Z 004302c0 f   field.obj
 0001:0002f370       ?new_field@Field_varstring@@UAEPAVField@@PAUst_mem_root@@PAUst_table@@H@Z 00430370 f   field.obj
 0001:0002f3d0       ?new_key_field@Field_varstring@@UAEPAVField@@PAUst_mem_root@@PAUst_table@@PADPAEI@Z 004303d0 f   field.obj
 0001:0002f430       ??0Field_blob@@QAE@PADPAEEW4utype@Field@@PBDPAUst_table@@IPAUcharset_info_st@@@Z 00430430 f   field.obj
 0001:0002f510       ?store_length@Field_blob@@QAEXK@Z 00430510 f   field.obj
 0001:0002f5c0       ?get_length@Field_blob@@QAEKPBD@Z 004305c0 f   field.obj
 0001:0002f650       ?put_length@Field_blob@@QAEXPADK@Z 00430650 f   field.obj
 0001:0002f6e0       ?store@Field_blob@@UAEHPBDIPAUcharset_info_st@@@Z 004306e0 f   field.obj
 0001:0002fa90       ?store@Field_blob@@UAEHN@Z 00430a90 f   field.obj
 0001:0002fb20       ?store@Field_blob@@UAEH_JH@Z 00430b20 f   field.obj
 0001:0002fbc0       ?val_real@Field_blob@@UAENXZ 00430bc0 f   field.obj
 0001:0002fcd0       ?val_int@Field_blob@@UAE_JXZ 00430cd0 f   field.obj
 0001:0002fde0       ?val_str@Field_blob@@UAEPAVString@@PAV2@0@Z 00430de0 f   field.obj
 0001:0002fec0       ?val_decimal@Field_blob@@UAEPAVmy_decimal@@PAV2@@Z 00430ec0 f   field.obj
 0001:0002ff80       ?cmp@Field_blob@@QAEHPBDK0K@Z 00430f80 f   field.obj
 0001:0002ffe0       ?cmp@Field_blob@@UAEHPBD0@Z 00430fe0 f   field.obj
 0001:000300b0       ?cmp_binary@Field_blob@@UAEHPBD0K@Z 004310b0 f   field.obj
 0001:000301d0       ?get_key_image@Field_blob@@UAEIPADIW4imagetype@Field@@@Z 004311d0 f   field.obj
 0001:00030420       ?set_key_image@Field_blob@@UAEXPADI@Z 00431420 f   field.obj
 0001:00030470       ?key_cmp@Field_blob@@UAEHPBEI@Z 00431470 f   field.obj
 0001:00030580       ?key_cmp@Field_blob@@UAEHPBE0@Z 00431580 f   field.obj
 0001:000305d0       ?sort_length@Field_blob@@UBEKXZ 004315d0 f   field.obj
 0001:00030630       ?sort_string@Field_blob@@UAEXPADI@Z 00431630 f   field.obj
 0001:00030800       ?sql_type@Field_blob@@UBEXAAVString@@@Z 00431800 f   field.obj
 0001:000308e0       ?pack@Field_blob@@UAEPADPADPBDI@Z 004318e0 f   field.obj
 0001:000309c0       ?unpack@Field_blob@@UAEPBDPADPBD@Z 004319c0 f   field.obj
 0001:00030a60       ?pack_cmp@Field_blob@@UAEHPBD0ID@Z 00431a60 f   field.obj
 0001:00030b20       ?pack_cmp@Field_blob@@UAEHPBDID@Z 00431b20 f   field.obj
 0001:00030c20       ?pack_key@Field_blob@@UAEPADPADPBDI@Z 00431c20 f   field.obj
 0001:00030d50       ?unpack_key@Field_blob@@UAEPBDPADPBDI@Z 00431d50 f   field.obj
 0001:00030e00       ?pack_key_from_key_image@Field_blob@@UAEPADPADPBDI@Z 00431e00 f   field.obj
 0001:00030ea0       ?packed_col_length@Field_blob@@UAEIPBDI@Z 00431ea0 f   field.obj
 0001:00030ee0       ?max_packed_col_length@Field_blob@@UAEII@Z 00431ee0 f   field.obj
 0001:00030f10       ?get_key_image@Field_geom@@UAEIPADIW4imagetype@Field@@@Z 00431f10 f   field.obj
 0001:000310a0       ?sql_type@Field_geom@@UBEXAAVString@@@Z 004320a0 f   field.obj
 0001:000311c0       ?store@Field_geom@@UAEHN@Z 004321c0 f   field.obj
 0001:00031200       ?store@Field_geom@@UAEH_JH@Z 00432200 f   field.obj
 0001:00031240       ?store_decimal@Field_geom@@UAEHPBVmy_decimal@@@Z 00432240 f   field.obj
 0001:00031280       ?store@Field_geom@@UAEHPBDIPAUcharset_info_st@@@Z 00432280 f   field.obj
 0001:000313b0       ?key_type@Field_enum@@UBE?AW4ha_base_keytype@@XZ 004323b0 f   field.obj
 0001:00031430       ?store_type@Field_enum@@QAEX_K@Z 00432430 f   field.obj
 0001:00031510       ?store@Field_enum@@UAEHPBDIPAUcharset_info_st@@@Z 00432510 f   field.obj
 0001:00031790       ?store@Field_enum@@UAEHN@Z 00432790 f   field.obj
 0001:000317d0       ?store@Field_enum@@UAEH_JH@Z 004327d0 f   field.obj
 0001:000318a0       ?val_real@Field_enum@@UAENXZ 004328a0 f   field.obj
 0001:000318e0       ?val_int@Field_enum@@UAE_JXZ 004328e0 f   field.obj
 0001:000319f0       ?val_str@Field_enum@@UAEPAVString@@PAV2@0@Z 004329f0 f   field.obj
 0001:00031a90       ?cmp@Field_enum@@UAEHPBD0@Z 00432a90 f   field.obj
 0001:00031b50       ?sort_string@Field_enum@@UAEXPADI@Z 00432b50 f   field.obj
 0001:00031bf0       ?sql_type@Field_enum@@UBEXAAVString@@@Z 00432bf0 f   field.obj
 0001:00031dd0       ?new_field@Field_enum@@UAEPAVField@@PAUst_mem_root@@PAUst_table@@H@Z 00432dd0 f   field.obj
 0001:00031e30       ?store@Field_set@@UAEHPBDIPAUcharset_info_st@@@Z 00432e30 f   field.obj
 0001:00032130       ?store@Field_set@@UAEH_JH@Z 00433130 f   field.obj
 0001:000321f0       ?val_str@Field_set@@UAEPAVString@@PAV2@0@Z 004331f0 f   field.obj
 0001:00032340       ?sql_type@Field_set@@UBEXAAVString@@@Z 00433340 f   field.obj
 0001:00032520       ?eq_def@Field@@UAEHPAV1@@Z 00433520 f   field.obj
 0001:000325e0       ?eq_def@Field_enum@@UAEHPAVField@@@Z 004335e0 f   field.obj
 0001:000326f0       ?eq_def@Field_num@@UAEHPAVField@@@Z 004336f0 f   field.obj
 0001:00032790       ??0Field_bit@@QAE@PADKPAEE1EW4utype@Field@@PBDPAUst_table@@@Z 00433790 f   field.obj
 0001:00032830       ?new_key_field@Field_bit@@UAEPAVField@@PAUst_mem_root@@PAUst_table@@PADPAEI@Z 00433830 f   field.obj
 0001:000328b0       ?store@Field_bit@@UAEHPBDIPAUcharset_info_st@@@Z 004338b0 f   field.obj
 0001:00032cd0       ?store@Field_bit@@UAEHN@Z  00433cd0 f   field.obj
 0001:00032d10       ?store@Field_bit@@UAEH_JH@Z 00433d10 f   field.obj
 0001:00032e00       ?store_decimal@Field_bit@@UAEHPBVmy_decimal@@@Z 00433e00 f   field.obj
 0001:00032eb0       ?val_real@Field_bit@@UAENXZ 00433eb0 f   field.obj
 0001:00032ef0       ?val_int@Field_bit@@UAE_JXZ 00433ef0 f   field.obj
 0001:00033290       ?val_str@Field_bit@@UAEPAVString@@PAV2@0@Z 00434290 f   field.obj
 0001:00033400       ?val_decimal@Field_bit@@UAEPAVmy_decimal@@PAV2@@Z 00434400 f   field.obj
 0001:00033450       ?key_cmp@Field_bit@@UAEHPBEI@Z 00434450 f   field.obj
 0001:00033500       ?cmp_offset@Field_bit@@UAEHI@Z 00434500 f   field.obj
 0001:000335f0       ?get_key_image@Field_bit@@UAEIPADIW4imagetype@Field@@@Z 004345f0 f   field.obj
 0001:000336c0       ?sql_type@Field_bit@@UBEXAAVString@@@Z 004346c0 f   field.obj
 0001:00033750       ?pack@Field_bit@@UAEPADPADPBDI@Z 00434750 f   field.obj
 0001:00033850       ?unpack@Field_bit@@UAEPBDPADPBD@Z 00434850 f   field.obj
 0001:00033950       ??0Field_bit_as_char@@QAE@PADKPAEEW4utype@Field@@PBDPAUst_table@@@Z 00434950 f   field.obj
 0001:000339d0       ?store@Field_bit_as_char@@UAEHPBDIPAUcharset_info_st@@@Z 004349d0 f   field.obj
 0001:00033b20       ?sql_type@Field_bit_as_char@@UBEXAAVString@@@Z 00434b20 f   field.obj
 0001:00033bb0       ?create_length_to_internal_length@create_field@@QAEXXZ 00434bb0 f   field.obj
 0001:00033e40       ?init_for_tmp_table@create_field@@QAEXW4enum_field_types@@KKHH@Z 00434e40 f   field.obj
 0001:00033ed0       ?init@create_field@@QAEHPAVTHD@@PADW4enum_field_types@@11IPAVItem@@3PAUst_lex_string@@1PAV?$List@VString@@@@PAUcharset_info_st@@I@Z 00434ed0 f   field.obj
 0001:00034a20       ?get_blob_type_from_length@@YA?AW4enum_field_types@@K@Z 00435a20 f   field.obj
 0001:00034a70       ?calc_pack_length@@YAKW4enum_field_types@@K@Z 00435a70 f   field.obj
 0001:00034bc0       ?pack_length_to_packflag@@YAII@Z 00435bc0 f   field.obj
 0001:00034c40       ?make_field@@YAPAVField@@PADKPAEEIW4enum_field_types@@PAUcharset_info_st@@W4geometry_type@1@W4utype@1@PAUst_typelib@@PBDPAUst_table@@@Z 00435c40 f   field.obj
 0001:00035840       ??0create_field@@QAE@PAVField@@0@Z 00436840 f   field.obj
 0001:00035dc0       ?max_display_length@Field_blob@@UAEKXZ 00436dc0 f   field.obj
 0001:00035e70       ?set_warning@Field@@QAEHW4enum_warning_level@MYSQL_ERROR@@IH@Z 00436e70 f   field.obj
 0001:00035f30       ?set_datetime_warning@Field@@QAEXW4enum_warning_level@MYSQL_ERROR@@IPBDIW4enum_mysql_timestamp_type@@H@Z 00436f30 f   field.obj
 0001:00035fd0       ?set_datetime_warning@Field@@QAEXW4enum_warning_level@MYSQL_ERROR@@I_JW4enum_mysql_timestamp_type@@H@Z 00436fd0 f   field.obj
 0001:000360d0       ?set_datetime_warning@Field@@QAEXW4enum_warning_level@MYSQL_ERROR@@INW4enum_mysql_timestamp_type@@@Z 004370d0 f   field.obj
 0001:0003b450       ?field_type2index@@YAHW4enum_field_types@@@Z 0043c450 f i field.obj
 0001:0003b490       ?cmp_type@Field@@UBE?AW4Item_result@@XZ 0043c490 f i field.obj
 0001:0003b4d0       ?cast_to_int_type@Field@@UBE?AW4Item_result@@XZ 0043c4d0 f i field.obj
 0001:0003b510       ?eq@Field@@UAEHPAV1@@Z     0043c510 f i field.obj
 0001:0003b590       ?pack_length@Field@@UBEKXZ 0043c590 f i field.obj
 0001:0003b5b0       ?pack_length_in_rec@Field@@UBEKXZ 0043c5b0 f i field.obj
 0001:0003b5f0       ?data_length@Field@@UAEKPBD@Z 0043c5f0 f i field.obj
 0001:0003b640       ?sort_length@Field@@UBEKXZ 0043c640 f i field.obj
 0001:0003b680       ?reset@Field@@UAEHXZ       0043c680 f i field.obj
 0001:0003b6e0       ?reset_fields@Field@@UAEXXZ 0043c6e0 f i field.obj
 0001:0003b700       ?set_default@Field@@UAEXXZ 0043c700 f i field.obj
 0001:0003b7e0       ?binary@Field@@UBEHXZ      0043c7e0 f i field.obj
 0001:0003b800       ?zero_pack@Field@@UBEHXZ   0043c800 f i field.obj
 0001:0003b820       ?key_type@Field@@UBE?AW4ha_base_keytype@@XZ 0043c820 f i field.obj
 0001:0003b840       ?key_length@Field@@UBEKXZ  0043c840 f i field.obj
 0001:0003b880       ?real_type@Field@@UBE?AW4enum_field_types@@XZ 0043c880 f i field.obj
 0001:0003b8c0       ?cmp_binary@Field@@UAEHPBD0K@Z 0043c8c0 f i field.obj
 0001:0003b920       ?cmp_offset@Field@@UAEHI@Z 0043c920 f i field.obj
 0001:0003b980       ?cmp_binary_offset@Field@@UAEHI@Z 0043c980 f i field.obj
 0001:0003b9e0       ?key_cmp@Field@@UAEHPBE0@Z 0043c9e0 f i field.obj
 0001:0003ba30       ?key_cmp@Field@@UAEHPBEI@Z 0043ca30 f i field.obj
 0001:0003ba80       ?can_be_compared_as_longlong@Field@@UBEHXZ 0043ca80 f i field.obj
 0001:0003baa0       ?free@Field@@UAEXXZ        0043caa0 f i field.obj
 0001:0003bac0       ?move_field@Field@@UAEXJ@Z 0043cac0 f i field.obj
 0001:0003bb10       ?get_image@Field@@UAEXPADIPAUcharset_info_st@@@Z 0043cb10 f i field.obj
 0001:0003bb60       ?set_image@Field@@UAEXPADIPAUcharset_info_st@@@Z 0043cb60 f i field.obj
 0001:0003bbb0       ?get_key_image@Field@@UAEIPADIW4imagetype@1@@Z 0043cbb0 f i field.obj
 0001:0003bc10       ?set_key_image@Field@@UAEXPADI@Z 0043cc10 f i field.obj
 0001:0003bc70       ?pack@Field@@UAEPADPADPBDI@Z 0043cc70 f i field.obj
 0001:0003bce0       ?unpack@Field@@UAEPBDPADPBD@Z 0043cce0 f i field.obj
 0001:0003bd50       ?pack_key@Field@@UAEPADPADPBDI@Z 0043cd50 f i field.obj
 0001:0003bdb0       ?pack_key_from_key_image@Field@@UAEPADPADPBDI@Z 0043cdb0 f i field.obj
 0001:0003be10       ?unpack_key@Field@@UAEPBDPADPBDI@Z 0043ce10 f i field.obj
 0001:0003be60       ?packed_col_length@Field@@UAEIPBDI@Z 0043ce60 f i field.obj
 0001:0003be80       ?max_packed_col_length@Field@@UAEII@Z 0043ce80 f i field.obj
 0001:0003bea0       ?pack_cmp@Field@@UAEHPBD0ID@Z 0043cea0 f i field.obj
 0001:0003bef0       ?pack_cmp@Field@@UAEHPBDID@Z 0043cef0 f i field.obj
 0001:0003bf40       ?charset@Field@@UBEPAUcharset_info_st@@XZ 0043cf40 f i field.obj
 0001:0003bf60       ?sort_charset@Field@@UBEPAUcharset_info_st@@XZ 0043cf60 f i field.obj
 0001:0003bfb0       ?has_charset@Field@@UBEHXZ 0043cfb0 f i field.obj
 0001:0003bfd0       ?set_charset@Field@@UAEXPAUcharset_info_st@@@Z 0043cfd0 f i field.obj
 0001:0003bff0       ?derivation@Field@@UBE?AW4Derivation@@XZ 0043cff0 f i field.obj
 0001:0003c010       ?set_derivation@Field@@UAEXW4Derivation@@@Z 0043d010 f i field.obj
 0001:0003c030       ?get_geometry_type@Field@@UAE?AW4geometry_type@1@XZ 0043d030 f i field.obj
 0001:0003c080       ?result_type@Field_num@@UBE?AW4Item_result@@XZ 0043d080 f i field.obj
 0001:0003c0a0       ?decimals@Field_num@@UBEIXZ 0043d0a0 f i field.obj
 0001:0003c0c0       ?size_of@Field_num@@UBEIXZ 0043d0c0 f i field.obj
 0001:0003c0e0       ??_GField_num@@UAEPAXI@Z   0043d0e0 f i field.obj
 0001:0003c0e0       ??_EField_num@@UAEPAXI@Z   0043d0e0 f i field.obj
 0001:0003c130       ??3Field@@SAXPAXI@Z        0043d130 f i field.obj
 0001:0003c160       ??1Field_num@@UAE@XZ       0043d160 f i field.obj
 0001:0003c190       ??1Field@@UAE@XZ           0043d190 f i field.obj
 0001:0003c1c0       ?decimals@Field@@UBEIXZ    0043d1c0 f i field.obj
 0001:0003c1e0       ??_EField@@UAEPAXI@Z       0043d1e0 f i field.obj
 0001:0003c1e0       ??_GField@@UAEPAXI@Z       0043d1e0 f i field.obj
 0001:0003c230       ?length@String@@QBEKXZ     0043d230 f i field.obj
 0001:0003c250       ?length@String@@QAEXK@Z    0043d250 f i field.obj
 0001:0003c280       ?ptr@String@@QBEPBDXZ      0043d280 f i field.obj
 0001:0003c2a0       ?c_ptr_quick@String@@QAEPADXZ 0043d2a0 f i field.obj
 0001:0003c2f0       ??0String@@QAE@PADKPAUcharset_info_st@@@Z 0043d2f0 f i field.obj
 0001:0003c350       ??1String@@QAE@XZ          0043d350 f i field.obj
 0001:0003c380       ?c_ptr@String@@QAEPADXZ    0043d380 f i field.obj
 0001:0003c3e0       ?free@String@@QAEXXZ       0043d3e0 f i field.obj
 0001:0003c460       ?alloc@String@@QAEHK@Z     0043d460 f i field.obj
 0001:0003c4b0       ??0?$Bitmap@$0EA@@@QAE@I@Z 0043d4b0 f i field.obj
 0001:0003c4f0       ?set_prefix@?$Bitmap@$0EA@@@QAEXI@Z 0043d4f0 f i field.obj
 0001:0003c560       ?length@?$Bitmap@$0EA@@@QBEIXZ 0043d560 f i field.obj
 0001:0003c580       ?set_all@?$Bitmap@$0EA@@@QAEXXZ 0043d580 f i field.obj
 0001:0003c5b0       ?charset@String@@QBEPAUcharset_info_st@@XZ 0043d5b0 f i field.obj
 0001:0003c5d0       ?val_str@Field@@QAEPAVString@@PAV2@@Z 0043d5d0 f i field.obj
 0001:0003c620       ?sign@my_decimal@@QBEHXZ   0043d620 f i field.obj
 0001:0003c640       ?my_decimal2int@@YAHIPBVmy_decimal@@DPA_J@Z 0043d640 f i field.obj
 0001:0003c720       ??0my_decimal@@QAE@XZ      0043d720 f i field.obj
 0001:0003c750       ?init@my_decimal@@QAEXXZ   0043d750 f i field.obj
 0001:0003c7c0       ?check_result@@YAHIH@Z     0043d7c0 f i field.obj
 0001:0003c7f0       ?int2my_decimal@@YAHI_JDPAVmy_decimal@@@Z 0043d7f0 f i field.obj
 0001:0003c870       ?result_type@Field_str@@UBE?AW4Item_result@@XZ 0043d870 f i field.obj
 0001:0003c890       ?decimals@Field_str@@UBEIXZ 0043d890 f i field.obj
 0001:0003c8b0       ?size_of@Field_str@@UBEIXZ 0043d8b0 f i field.obj
 0001:0003c8d0       ?charset@Field_str@@UBEPAUcharset_info_st@@XZ 0043d8d0 f i field.obj
 0001:0003c8f0       ?set_charset@Field_str@@UAEXPAUcharset_info_st@@@Z 0043d8f0 f i field.obj
 0001:0003c920       ?derivation@Field_str@@UBE?AW4Derivation@@XZ 0043d920 f i field.obj
 0001:0003c940       ?set_derivation@Field_str@@UAEXW4Derivation@@@Z 0043d940 f i field.obj
 0001:0003c970       ?binary@Field_str@@UBEHXZ  0043d970 f i field.obj
 0001:0003c9a0       ?max_display_length@Field_str@@UAEKXZ 0043d9a0 f i field.obj
 0001:0003c9c0       ??_EField_str@@UAEPAXI@Z   0043d9c0 f i field.obj
 0001:0003c9c0       ??_GField_str@@UAEPAXI@Z   0043d9c0 f i field.obj
 0001:0003ca10       ??1Field_str@@UAE@XZ       0043da10 f i field.obj
 0001:0003ca40       ?my_decimal2double@@YAHIPBVmy_decimal@@PAN@Z 0043da40 f i field.obj
 0001:0003ca70       ?init@?$Bitmap@$0EA@@@QAEXI@Z 0043da70 f i field.obj
 0001:0003cab0       ?set_charset@String@@QAEXPAUcharset_info_st@@@Z 0043dab0 f i field.obj
 0001:0003cae0       ?alloced_length@String@@QBEKXZ 0043dae0 f i field.obj
 0001:0003cb00       ?my_decimal_length_to_precision@@YAIIIH@Z 0043db00 f i field.obj
 0001:0003cb30       ?my_decimal_get_binary_size@@YAHII@Z 0043db30 f i field.obj
 0001:0003cb60       ?type@Field_new_decimal@@UBE?AW4enum_field_types@@XZ 0043db60 f i field.obj
 0001:0003cb80       ?key_type@Field_new_decimal@@UBE?AW4ha_base_keytype@@XZ 0043db80 f i field.obj
 0001:0003cba0       ?result_type@Field_new_decimal@@UBE?AW4Item_result@@XZ 0043dba0 f i field.obj
 0001:0003cbc0       ?zero_pack@Field_new_decimal@@UBEHXZ 0043dbc0 f i field.obj
 0001:0003cbe0       ?max_display_length@Field_new_decimal@@UAEKXZ 0043dbe0 f i field.obj
 0001:0003cc00       ?size_of@Field_new_decimal@@UBEIXZ 0043dc00 f i field.obj
 0001:0003cc20       ?pack_length@Field_new_decimal@@UBEKXZ 0043dc20 f i field.obj
 0001:0003cc40       ??_EField_new_decimal@@UAEPAXI@Z 0043dc40 f i field.obj
 0001:0003cc40       ??_GField_new_decimal@@UAEPAXI@Z 0043dc40 f i field.obj
 0001:0003cc90       ??1Field_new_decimal@@UAE@XZ 0043dc90 f i field.obj
 0001:0003ccc0       ?sign@my_decimal@@QAEXH@Z  0043dcc0 f i field.obj
 0001:0003ccf0       ?max_my_decimal@@YAXPAVmy_decimal@@HH@Z 0043dcf0 f i field.obj
 0001:0003cd50       ?my_decimal_set_zero@@YAHPAVmy_decimal@@@Z 0043dd50 f i field.obj
 0001:0003cd90       ??0String@@QAE@XZ          0043dd90 f i field.obj
 0001:0003cdf0       ?double2my_decimal@@YAHINPAVmy_decimal@@@Z 0043ddf0 f i field.obj
 0001:0003ce30       ?check_result_and_overflow@@YAHIHPAVmy_decimal@@@Z 0043de30 f i field.obj
 0001:0003ceb0       ?fix_buffer_pointer@my_decimal@@QAEXXZ 0043deb0 f i field.obj
 0001:0003cee0       ?max_internal_decimal@@YAXPAVmy_decimal@@@Z 0043dee0 f i field.obj
 0001:0003cf10       ?check_overflow@Field@@QAEHH@Z 0043df10 f i field.obj
 0001:0003cf40       ?binary2my_decimal@@YAHIPBDPAVmy_decimal@@HH@Z 0043df40 f i field.obj
 0001:0003cf80       ?rint@@YANN@Z              0043df80 f i field.obj
 0001:0003d020       ?_current_thd@@YAPAVTHD@@XZ 0043e020 f i field.obj
 0001:0003d040       ?ulonglong2double@@YAN_K@Z 0043e040 f i field.obj
 0001:0003d090       ?set_null@Field@@QAEXH@Z   0043e090 f i field.obj
 0001:0003d0e0       ?type@Field_timestamp@@UBE?AW4enum_field_types@@XZ 0043e0e0 f i field.obj
 0001:0003d100       ?key_type@Field_timestamp@@UBE?AW4ha_base_keytype@@XZ 0043e100 f i field.obj
 0001:0003d120       ?cmp_type@Field_timestamp@@UBE?AW4Item_result@@XZ 0043e120 f i field.obj
 0001:0003d140       ?reset@Field_timestamp@@UAEHXZ 0043e140 f i field.obj
 0001:0003d190       ?pack_length@Field_timestamp@@UBEKXZ 0043e190 f i field.obj
 0001:0003d1b0       ?can_be_compared_as_longlong@Field_timestamp@@UBEHXZ 0043e1b0 f i field.obj
 0001:0003d1d0       ?zero_pack@Field_timestamp@@UBEHXZ 0043e1d0 f i field.obj
 0001:0003d1f0       ?set_default@Field_timestamp@@UAEXXZ 0043e1f0 f i field.obj
 0001:0003d250       ??_EField_timestamp@@UAEPAXI@Z 0043e250 f i field.obj
 0001:0003d250       ??_GField_timestamp@@UAEPAXI@Z 0043e250 f i field.obj
 0001:0003d2a0       ??1Field_timestamp@@UAE@XZ 0043e2a0 f i field.obj
 0001:0003d2d0       ?set@String@@QAEXPBDKPAUcharset_info_st@@@Z 0043e2d0 f i field.obj
 0001:0003d340       ?set_notnull@Field@@QAEXH@Z 0043e340 f i field.obj
 0001:0003d3a0       ?query_start@THD@@QAEJXZ   0043e3a0 f i field.obj
 0001:0003d3e0       ?report_data_too_long@@YAXPAVField_str@@@Z 0043e3e0 f i field.obj
 0001:0003d440       ??2Field@@SAPAXI@Z         0043e440 f i field.obj
 0001:0003d460       ?maybe_null@Field@@QAEHXZ  0043e460 f i field.obj
 0001:0003d4c0       ??0Field_varstring@@QAE@KHPBDPAUst_table@@PAUcharset_info_st@@@Z 0043e4c0 f i field.obj
 0001:0003d580       ??0Field_longstr@@QAE@PADKPAEEW4utype@Field@@PBDPAUst_table@@PAUcharset_info_st@@@Z 0043e580 f i field.obj
 0001:0003d5f0       ??_EField_longstr@@UAEPAXI@Z 0043e5f0 f i field.obj
 0001:0003d5f0       ??_GField_longstr@@UAEPAXI@Z 0043e5f0 f i field.obj
 0001:0003d640       ??1Field_longstr@@UAE@XZ   0043e640 f i field.obj
 0001:0003d670       ?type@Field_varstring@@UBE?AW4enum_field_types@@XZ 0043e670 f i field.obj
 0001:0003d690       ?zero_pack@Field_varstring@@UBEHXZ 0043e690 f i field.obj
 0001:0003d6b0       ?reset@Field_varstring@@UAEHXZ 0043e6b0 f i field.obj
 0001:0003d700       ?pack_length@Field_varstring@@UBEKXZ 0043e700 f i field.obj
 0001:0003d730       ?key_length@Field_varstring@@UBEKXZ 0043e730 f i field.obj
 0001:0003d750       ?sort_length@Field_varstring@@UBEKXZ 0043e750 f i field.obj
 0001:0003d7b0       ?store@Field_varstring@@UAEHN@Z 0043e7b0 f i field.obj
 0001:0003d7f0       ?size_of@Field_varstring@@UBEIXZ 0043e7f0 f i field.obj
 0001:0003d810       ?real_type@Field_varstring@@UBE?AW4enum_field_types@@XZ 0043e810 f i field.obj
 0001:0003d830       ?has_charset@Field_varstring@@UBEHXZ 0043e830 f i field.obj
 0001:0003d890       ??_GField_varstring@@UAEPAXI@Z 0043e890 f i field.obj
 0001:0003d890       ??_EField_varstring@@UAEPAXI@Z 0043e890 f i field.obj
 0001:0003d8e0       ??1Field_varstring@@UAE@XZ 0043e8e0 f i field.obj
 0001:0003d910       ?type@Field_blob@@UBE?AW4enum_field_types@@XZ 0043e910 f i field.obj
 0001:0003d930       ?key_type@Field_blob@@UBE?AW4ha_base_keytype@@XZ 0043e930 f i field.obj
 0001:0003d980       ?key_length@Field_blob@@UBEKXZ 0043e980 f i field.obj
 0001:0003d9a0       ?pack_length@Field_blob@@UBEKXZ 0043e9a0 f i field.obj
 0001:0003d9d0       ?reset@Field_blob@@UAEHXZ  0043e9d0 f i field.obj
 0001:0003da20       ?reset_fields@Field_blob@@UAEXXZ 0043ea20 f i field.obj
 0001:0003da60       ?free@Field_blob@@UAEXXZ   0043ea60 f i field.obj
 0001:0003da90       ?size_of@Field_blob@@UBEIXZ 0043ea90 f i field.obj
 0001:0003dab0       ?has_charset@Field_blob@@UBEHXZ 0043eab0 f i field.obj
 0001:0003db10       ??_EField_blob@@UAEPAXI@Z  0043eb10 f i field.obj
 0001:0003db10       ??_GField_blob@@UAEPAXI@Z  0043eb10 f i field.obj
 0001:0003db60       ??1Field_blob@@UAE@XZ      0043eb60 f i field.obj
 0001:0003dba0       ?max_data_length@Field_blob@@QBEKXZ 0043eba0 f i field.obj
 0001:0003dbf0       ?get_ptr@Field_blob@@QAEXPAPAD@Z 0043ebf0 f i field.obj
 0001:0003dc40       ??0MBR@@QAE@XZ             0043ec40 f i field.obj
 0001:0003dca0       ?get_length@Field_blob@@QAEKI@Z 0043eca0 f i field.obj
 0001:0003dce0       ?append@String@@QAEHD@Z    0043ece0 f i field.obj
 0001:0003dd90       ??0String@@QAE@PBDKPAUcharset_info_st@@@Z 0043ed90 f i field.obj
 0001:0003ddf0       ?type@Field_bit@@UBE?AW4enum_field_types@@XZ 0043edf0 f i field.obj
 0001:0003de10       ?key_type@Field_bit@@UBE?AW4ha_base_keytype@@XZ 0043ee10 f i field.obj
 0001:0003de30       ?key_length@Field_bit@@UBEKXZ 0043ee30 f i field.obj
 0001:0003de60       ?max_display_length@Field_bit@@UAEKXZ 0043ee60 f i field.obj
 0001:0003de80       ?size_of@Field_bit@@UBEIXZ 0043ee80 f i field.obj
 0001:0003dea0       ?result_type@Field_bit@@UBE?AW4Item_result@@XZ 0043eea0 f i field.obj
 0001:0003dec0       ?reset@Field_bit@@UAEHXZ   0043eec0 f i field.obj
 0001:0003df10       ?cmp@Field_bit@@UAEHPBD0@Z 0043ef10 f i field.obj
 0001:0003df90       ?key_cmp@Field_bit@@UAEHPBE0@Z 0043ef90 f i field.obj
 0001:0003dfe0       ?cmp_binary_offset@Field_bit@@UAEHI@Z 0043efe0 f i field.obj
 0001:0003e030       ?get_image@Field_bit@@UAEXPADIPAUcharset_info_st@@@Z 0043f030 f i field.obj
 0001:0003e090       ?set_image@Field_bit@@UAEXPADIPAUcharset_info_st@@@Z 0043f090 f i field.obj
 0001:0003e0d0       ?set_key_image@Field_bit@@UAEXPADI@Z 0043f0d0 f i field.obj
 0001:0003e110       ?sort_string@Field_bit@@UAEXPADI@Z 0043f110 f i field.obj
 0001:0003e170       ?pack_length@Field_bit@@UBEKXZ 0043f170 f i field.obj
 0001:0003e1a0       ?pack_length_in_rec@Field_bit@@UBEKXZ 0043f1a0 f i field.obj
 0001:0003e1c0       ?move_field@Field_bit@@UAEXJ@Z 0043f1c0 f i field.obj
 0001:0003e210       ?eq@Field_bit@@UAEHPAVField@@@Z 0043f210 f i field.obj
 0001:0003e2e0       ??_EField_bit@@UAEPAXI@Z   0043f2e0 f i field.obj
 0001:0003e2e0       ??_GField_bit@@UAEPAXI@Z   0043f2e0 f i field.obj
 0001:0003e330       ??1Field_bit@@UAE@XZ       0043f330 f i field.obj
 0001:0003e360       ?really_abort_on_warning@THD@@QAEHXZ 0043f360 f i field.obj
 0001:0003e3d0       ?key_type@Field_bit_as_char@@UBE?AW4ha_base_keytype@@XZ 0043f3d0 f i field.obj
 0001:0003e3f0       ?size_of@Field_bit_as_char@@UBEIXZ 0043f3f0 f i field.obj
 0001:0003e410       ?store@Field_bit_as_char@@UAEHN@Z 0043f410 f i field.obj
 0001:0003e450       ?store@Field_bit_as_char@@UAEH_JH@Z 0043f450 f i field.obj
 0001:0003e490       ??_GField_bit_as_char@@UAEPAXI@Z 0043f490 f i field.obj
 0001:0003e490       ??_EField_bit_as_char@@UAEPAXI@Z 0043f490 f i field.obj
 0001:0003e4e0       ??1Field_bit_as_char@@UAE@XZ 0043f4e0 f i field.obj
 0001:0003e510       ?empty@base_list@@QAEXXZ   0043f510 f i field.obj
 0001:0003e550       ?my_decimal_precision_to_length@@YAKIEH@Z 0043f550 f i field.obj
 0001:0003e590       ?my_decimal_trim@@YAXPAKPAI@Z 0043f590 f i field.obj
 0001:0003e5c0       ?get_enum_pack_length@@YAIH@Z 0043f5c0 f i field.obj
 0001:0003e5e0       ?get_set_pack_length@@YAIH@Z 0043f5e0 f i field.obj
 0001:0003e640       ??0Field_decimal@@QAE@PADKPAEEW4utype@Field@@PBDPAUst_table@@EHH@Z 0043f640 f i field.obj
 0001:0003e6b0       ??0Field_real@@QAE@PADKPAEEW4utype@Field@@PBDPAUst_table@@EHH@Z 0043f6b0 f i field.obj
 0001:0003e740       ?max_display_length@Field_real@@UAEKXZ 0043f740 f i field.obj
 0001:0003e760       ?size_of@Field_real@@UBEIXZ 0043f760 f i field.obj
 0001:0003e780       ??_GField_real@@UAEPAXI@Z  0043f780 f i field.obj
 0001:0003e780       ??_EField_real@@UAEPAXI@Z  0043f780 f i field.obj
 0001:0003e7d0       ??1Field_real@@UAE@XZ      0043f7d0 f i field.obj
 0001:0003e800       ?type@Field_decimal@@UBE?AW4enum_field_types@@XZ 0043f800 f i field.obj
 0001:0003e820       ?key_type@Field_decimal@@UBE?AW4ha_base_keytype@@XZ 0043f820 f i field.obj
 0001:0003e850       ?zero_pack@Field_decimal@@UBEHXZ 0043f850 f i field.obj
 0001:0003e870       ??_GField_decimal@@UAEPAXI@Z 0043f870 f i field.obj
 0001:0003e870       ??_EField_decimal@@UAEPAXI@Z 0043f870 f i field.obj
 0001:0003e8c0       ??1Field_decimal@@UAE@XZ   0043f8c0 f i field.obj
 0001:0003e8f0       ??0Field_tiny@@QAE@PADKPAEEW4utype@Field@@PBDPAUst_table@@HH@Z 0043f8f0 f i field.obj
 0001:0003e960       ?result_type@Field_tiny@@UBE?AW4Item_result@@XZ 0043f960 f i field.obj
 0001:0003e980       ?type@Field_tiny@@UBE?AW4enum_field_types@@XZ 0043f980 f i field.obj
 0001:0003e9a0       ?key_type@Field_tiny@@UBE?AW4ha_base_keytype@@XZ 0043f9a0 f i field.obj
 0001:0003e9d0       ?reset@Field_tiny@@UAEHXZ  0043f9d0 f i field.obj
 0001:0003ea00       ?pack_length@Field_tiny@@UBEKXZ 0043fa00 f i field.obj
 0001:0003ea20       ?max_display_length@Field_tiny@@UAEKXZ 0043fa20 f i field.obj
 0001:0003ea40       ??_EField_tiny@@UAEPAXI@Z  0043fa40 f i field.obj
 0001:0003ea40       ??_GField_tiny@@UAEPAXI@Z  0043fa40 f i field.obj
 0001:0003ea90       ??1Field_tiny@@UAE@XZ      0043fa90 f i field.obj
 0001:0003eac0       ??0Field_short@@QAE@PADKPAEEW4utype@Field@@PBDPAUst_table@@HH@Z 0043fac0 f i field.obj
 0001:0003eb30       ?result_type@Field_short@@UBE?AW4Item_result@@XZ 0043fb30 f i field.obj
 0001:0003eb50       ?type@Field_short@@UBE?AW4enum_field_types@@XZ 0043fb50 f i field.obj
 0001:0003eb70       ?key_type@Field_short@@UBE?AW4ha_base_keytype@@XZ 0043fb70 f i field.obj
 0001:0003eba0       ?reset@Field_short@@UAEHXZ 0043fba0 f i field.obj
 0001:0003ebd0       ?pack_length@Field_short@@UBEKXZ 0043fbd0 f i field.obj
 0001:0003ebf0       ?max_display_length@Field_short@@UAEKXZ 0043fbf0 f i field.obj
 0001:0003ec10       ??_GField_short@@UAEPAXI@Z 0043fc10 f i field.obj
 0001:0003ec10       ??_EField_short@@UAEPAXI@Z 0043fc10 f i field.obj
 0001:0003ec60       ??1Field_short@@UAE@XZ     0043fc60 f i field.obj
 0001:0003ec90       ??0Field_medium@@QAE@PADKPAEEW4utype@Field@@PBDPAUst_table@@HH@Z 0043fc90 f i field.obj
 0001:0003ed00       ?result_type@Field_medium@@UBE?AW4Item_result@@XZ 0043fd00 f i field.obj
 0001:0003ed20       ?type@Field_medium@@UBE?AW4enum_field_types@@XZ 0043fd20 f i field.obj
 0001:0003ed40       ?key_type@Field_medium@@UBE?AW4ha_base_keytype@@XZ 0043fd40 f i field.obj
 0001:0003ed70       ?reset@Field_medium@@UAEHXZ 0043fd70 f i field.obj
 0001:0003edb0       ?pack_length@Field_medium@@UBEKXZ 0043fdb0 f i field.obj
 0001:0003edd0       ?max_display_length@Field_medium@@UAEKXZ 0043fdd0 f i field.obj
 0001:0003edf0       ??_GField_medium@@UAEPAXI@Z 0043fdf0 f i field.obj
 0001:0003edf0       ??_EField_medium@@UAEPAXI@Z 0043fdf0 f i field.obj
 0001:0003ee40       ??1Field_medium@@UAE@XZ    0043fe40 f i field.obj
 0001:0003ee70       ??0Field_long@@QAE@PADKPAEEW4utype@Field@@PBDPAUst_table@@HH@Z 0043fe70 f i field.obj
 0001:0003eee0       ?result_type@Field_long@@UBE?AW4Item_result@@XZ 0043fee0 f i field.obj
 0001:0003ef00       ?type@Field_long@@UBE?AW4enum_field_types@@XZ 0043ff00 f i field.obj
 0001:0003ef20       ?key_type@Field_long@@UBE?AW4ha_base_keytype@@XZ 0043ff20 f i field.obj
 0001:0003ef50       ?reset@Field_long@@UAEHXZ  0043ff50 f i field.obj
 0001:0003efa0       ?pack_length@Field_long@@UBEKXZ 0043ffa0 f i field.obj
 0001:0003efc0       ?max_display_length@Field_long@@UAEKXZ 0043ffc0 f i field.obj
 0001:0003efe0       ??_EField_long@@UAEPAXI@Z  0043ffe0 f i field.obj
 0001:0003efe0       ??_GField_long@@UAEPAXI@Z  0043ffe0 f i field.obj
 0001:0003f030       ??1Field_long@@UAE@XZ      00440030 f i field.obj
 0001:0003f060       ??0Field_longlong@@QAE@PADKPAEEW4utype@Field@@PBDPAUst_table@@HH@Z 00440060 f i field.obj
 0001:0003f0d0       ?result_type@Field_longlong@@UBE?AW4Item_result@@XZ 004400d0 f i field.obj
 0001:0003f0f0       ?type@Field_longlong@@UBE?AW4enum_field_types@@XZ 004400f0 f i field.obj
 0001:0003f110       ?key_type@Field_longlong@@UBE?AW4ha_base_keytype@@XZ 00440110 f i field.obj
 0001:0003f140       ?reset@Field_longlong@@UAEHXZ 00440140 f i field.obj
 0001:0003f1c0       ?pack_length@Field_longlong@@UBEKXZ 004401c0 f i field.obj
 0001:0003f1e0       ?can_be_compared_as_longlong@Field_longlong@@UBEHXZ 004401e0 f i field.obj
 0001:0003f200       ?max_display_length@Field_longlong@@UAEKXZ 00440200 f i field.obj
 0001:0003f220       ??_GField_longlong@@UAEPAXI@Z 00440220 f i field.obj
 0001:0003f220       ??_EField_longlong@@UAEPAXI@Z 00440220 f i field.obj
 0001:0003f270       ??1Field_longlong@@UAE@XZ  00440270 f i field.obj
 0001:0003f2a0       ??0Field_float@@QAE@PADKPAEEW4utype@Field@@PBDPAUst_table@@EHH@Z 004402a0 f i field.obj
 0001:0003f310       ?type@Field_float@@UBE?AW4enum_field_types@@XZ 00440310 f i field.obj
 0001:0003f330       ?key_type@Field_float@@UBE?AW4ha_base_keytype@@XZ 00440330 f i field.obj
 0001:0003f350       ?reset@Field_float@@UAEHXZ 00440350 f i field.obj
 0001:0003f390       ?pack_length@Field_float@@UBEKXZ 00440390 f i field.obj
 0001:0003f3b0       ??_GField_float@@UAEPAXI@Z 004403b0 f i field.obj
 0001:0003f3b0       ??_EField_float@@UAEPAXI@Z 004403b0 f i field.obj
 0001:0003f400       ??1Field_float@@UAE@XZ     00440400 f i field.obj
 0001:0003f430       ??0Field_double@@QAE@PADKPAEEW4utype@Field@@PBDPAUst_table@@EHH@Z 00440430 f i field.obj
 0001:0003f4a0       ?type@Field_double@@UBE?AW4enum_field_types@@XZ 004404a0 f i field.obj
 0001:0003f4c0       ?key_type@Field_double@@UBE?AW4ha_base_keytype@@XZ 004404c0 f i field.obj
 0001:0003f4e0       ?reset@Field_double@@UAEHXZ 004404e0 f i field.obj
 0001:0003f520       ?pack_length@Field_double@@UBEKXZ 00440520 f i field.obj
 0001:0003f540       ??_EField_double@@UAEPAXI@Z 00440540 f i field.obj
 0001:0003f540       ??_GField_double@@UAEPAXI@Z 00440540 f i field.obj
 0001:0003f590       ??1Field_double@@UAE@XZ    00440590 f i field.obj
 0001:0003f5c0       ??0Field_null@@QAE@PADKW4utype@Field@@PBDPAUst_table@@PAUcharset_info_st@@@Z 004405c0 f i field.obj
 0001:0003f630       ?type@Field_null@@UBE?AW4enum_field_types@@XZ 00440630 f i field.obj
 0001:0003f650       ?store@Field_null@@UAEHPBDIPAUcharset_info_st@@@Z 00440650 f i field.obj
 0001:0003f680       ?store@Field_null@@UAEHN@Z 00440680 f i field.obj
 0001:0003f6b0       ?store@Field_null@@UAEH_JH@Z 004406b0 f i field.obj
 0001:0003f6e0       ?store_decimal@Field_null@@UAEHPBVmy_decimal@@@Z 004406e0 f i field.obj
 0001:0003f710       ?reset@Field_null@@UAEHXZ  00440710 f i field.obj
 0001:0003f730       ?val_real@Field_null@@UAENXZ 00440730 f i field.obj
 0001:0003f750       ?val_int@Field_null@@UAE_JXZ 00440750 f i field.obj
 0001:0003f770       ?val_decimal@Field_null@@UAEPAVmy_decimal@@PAV2@@Z 00440770 f i field.obj
 0001:0003f790       ?val_str@Field_null@@UAEPAVString@@PAV2@0@Z 00440790 f i field.obj
 0001:0003f7d0       ?cmp@Field_null@@UAEHPBD0@Z 004407d0 f i field.obj
 0001:0003f7f0       ?sort_string@Field_null@@UAEXPADI@Z 004407f0 f i field.obj
 0001:0003f810       ?pack_length@Field_null@@UBEKXZ 00440810 f i field.obj
 0001:0003f830       ?size_of@Field_null@@UBEIXZ 00440830 f i field.obj
 0001:0003f850       ?max_display_length@Field_null@@UAEKXZ 00440850 f i field.obj
 0001:0003f870       ??_GField_null@@UAEPAXI@Z  00440870 f i field.obj
 0001:0003f870       ??_EField_null@@UAEPAXI@Z  00440870 f i field.obj
 0001:0003f8c0       ??1Field_null@@UAE@XZ      004408c0 f i field.obj
 0001:0003f8f0       ??0Field_year@@QAE@PADKPAEEW4utype@Field@@PBDPAUst_table@@@Z 004408f0 f i field.obj
 0001:0003f960       ?type@Field_year@@UBE?AW4enum_field_types@@XZ 00440960 f i field.obj
 0001:0003f980       ?can_be_compared_as_longlong@Field_year@@UBEHXZ 00440980 f i field.obj
 0001:0003f9a0       ??_EField_year@@UAEPAXI@Z  004409a0 f i field.obj
 0001:0003f9a0       ??_GField_year@@UAEPAXI@Z  004409a0 f i field.obj
 0001:0003f9f0       ??1Field_year@@UAE@XZ      004409f0 f i field.obj
 0001:0003fa20       ??0Field_date@@QAE@PADPAEEW4utype@Field@@PBDPAUst_table@@PAUcharset_info_st@@@Z 00440a20 f i field.obj
 0001:0003fa90       ?type@Field_date@@UBE?AW4enum_field_types@@XZ 00440a90 f i field.obj
 0001:0003fab0       ?key_type@Field_date@@UBE?AW4ha_base_keytype@@XZ 00440ab0 f i field.obj
 0001:0003fad0       ?cmp_type@Field_date@@UBE?AW4Item_result@@XZ 00440ad0 f i field.obj
 0001:0003faf0       ?reset@Field_date@@UAEHXZ  00440af0 f i field.obj
 0001:0003fb40       ?pack_length@Field_date@@UBEKXZ 00440b40 f i field.obj
 0001:0003fb60       ?can_be_compared_as_longlong@Field_date@@UBEHXZ 00440b60 f i field.obj
 0001:0003fb80       ?zero_pack@Field_date@@UBEHXZ 00440b80 f i field.obj
 0001:0003fba0       ??_GField_date@@UAEPAXI@Z  00440ba0 f i field.obj
 0001:0003fba0       ??_EField_date@@UAEPAXI@Z  00440ba0 f i field.obj
 0001:0003fbf0       ??1Field_date@@UAE@XZ      00440bf0 f i field.obj
 0001:0003fc20       ??0Field_newdate@@QAE@PADPAEEW4utype@Field@@PBDPAUst_table@@PAUcharset_info_st@@@Z 00440c20 f i field.obj
 0001:0003fc90       ?type@Field_newdate@@UBE?AW4enum_field_types@@XZ 00440c90 f i field.obj
 0001:0003fcb0       ?real_type@Field_newdate@@UBE?AW4enum_field_types@@XZ 00440cb0 f i field.obj
 0001:0003fcd0       ?key_type@Field_newdate@@UBE?AW4ha_base_keytype@@XZ 00440cd0 f i field.obj
 0001:0003fcf0       ?cmp_type@Field_newdate@@UBE?AW4Item_result@@XZ 00440cf0 f i field.obj
 0001:0003fd10       ?reset@Field_newdate@@UAEHXZ 00440d10 f i field.obj
 0001:0003fd50       ?pack_length@Field_newdate@@UBEKXZ 00440d50 f i field.obj
 0001:0003fd70       ?can_be_compared_as_longlong@Field_newdate@@UBEHXZ 00440d70 f i field.obj
 0001:0003fd90       ?zero_pack@Field_newdate@@UBEHXZ 00440d90 f i field.obj
 0001:0003fdb0       ??_GField_newdate@@UAEPAXI@Z 00440db0 f i field.obj
 0001:0003fdb0       ??_EField_newdate@@UAEPAXI@Z 00440db0 f i field.obj
 0001:0003fe00       ??1Field_newdate@@UAE@XZ   00440e00 f i field.obj
 0001:0003fe30       ??0Field_time@@QAE@PADPAEEW4utype@Field@@PBDPAUst_table@@PAUcharset_info_st@@@Z 00440e30 f i field.obj
 0001:0003fea0       ?type@Field_time@@UBE?AW4enum_field_types@@XZ 00440ea0 f i field.obj
 0001:0003fec0       ?key_type@Field_time@@UBE?AW4ha_base_keytype@@XZ 00440ec0 f i field.obj
 0001:0003fee0       ?cmp_type@Field_time@@UBE?AW4Item_result@@XZ 00440ee0 f i field.obj
 0001:0003ff00       ?reset@Field_time@@UAEHXZ  00440f00 f i field.obj
 0001:0003ff40       ?pack_length@Field_time@@UBEKXZ 00440f40 f i field.obj
 0001:0003ff60       ?can_be_compared_as_longlong@Field_time@@UBEHXZ 00440f60 f i field.obj
 0001:0003ff80       ?zero_pack@Field_time@@UBEHXZ 00440f80 f i field.obj
 0001:0003ffa0       ??_EField_time@@UAEPAXI@Z  00440fa0 f i field.obj
 0001:0003ffa0       ??_GField_time@@UAEPAXI@Z  00440fa0 f i field.obj
 0001:0003fff0       ??1Field_time@@UAE@XZ      00440ff0 f i field.obj
 0001:00040020       ??0Field_datetime@@QAE@PADPAEEW4utype@Field@@PBDPAUst_table@@PAUcharset_info_st@@@Z 00441020 f i field.obj
 0001:00040090       ?type@Field_datetime@@UBE?AW4enum_field_types@@XZ 00441090 f i field.obj
 0001:000400b0       ?key_type@Field_datetime@@UBE?AW4ha_base_keytype@@XZ 004410b0 f i field.obj
 0001:000400d0       ?cmp_type@Field_datetime@@UBE?AW4Item_result@@XZ 004410d0 f i field.obj
 0001:000400f0       ?decimals@Field_datetime@@UBEIXZ 004410f0 f i field.obj
 0001:00040110       ?reset@Field_datetime@@UAEHXZ 00441110 f i field.obj
 0001:00040190       ?pack_length@Field_datetime@@UBEKXZ 00441190 f i field.obj
 0001:000401b0       ?can_be_compared_as_longlong@Field_datetime@@UBEHXZ 004411b0 f i field.obj
 0001:000401d0       ?zero_pack@Field_datetime@@UBEHXZ 004411d0 f i field.obj
 0001:000401f0       ??_EField_datetime@@UAEPAXI@Z 004411f0 f i field.obj
 0001:000401f0       ??_GField_datetime@@UAEPAXI@Z 004411f0 f i field.obj
 0001:00040240       ??1Field_datetime@@UAE@XZ  00441240 f i field.obj
 0001:00040270       ??0Field_string@@QAE@PADKPAEEW4utype@Field@@PBDPAUst_table@@PAUcharset_info_st@@@Z 00441270 f i field.obj
 0001:000402f0       ?type@Field_string@@UBE?AW4enum_field_types@@XZ 004412f0 f i field.obj
 0001:00040380       ?key_type@Field_string@@UBE?AW4ha_base_keytype@@XZ 00441380 f i field.obj
 0001:000403d0       ?zero_pack@Field_string@@UBEHXZ 004413d0 f i field.obj
 0001:000403f0       ?reset@Field_string@@UAEHXZ 004413f0 f i field.obj
 0001:000404b0       ?store@Field_string@@UAEHN@Z 004414b0 f i field.obj
 0001:000404f0       ?size_of@Field_string@@UBEIXZ 004414f0 f i field.obj
 0001:00040510       ?real_type@Field_string@@UBE?AW4enum_field_types@@XZ 00441510 f i field.obj
 0001:00040530       ?has_charset@Field_string@@UBEHXZ 00441530 f i field.obj
 0001:00040590       ??_EField_string@@UAEPAXI@Z 00441590 f i field.obj
 0001:00040590       ??_GField_string@@UAEPAXI@Z 00441590 f i field.obj
 0001:000405e0       ??1Field_string@@UAE@XZ    004415e0 f i field.obj
 0001:00040610       ??0Field_varstring@@QAE@PADKIPAEEW4utype@Field@@PBDPAUst_table@@PAUcharset_info_st@@@Z 00441610 f i field.obj
 0001:000406c0       ??0Field_geom@@QAE@PADPAEIW4utype@Field@@PBDPAUst_table@@IW4geometry_type@2@@Z 004416c0 f i field.obj
 0001:00040740       ?key_type@Field_geom@@UBE?AW4ha_base_keytype@@XZ 00441740 f i field.obj
 0001:00040760       ?type@Field_geom@@UBE?AW4enum_field_types@@XZ 00441760 f i field.obj
 0001:00040780       ?size_of@Field_geom@@UBEIXZ 00441780 f i field.obj
 0001:000407a0       ?reset@Field_geom@@UAEHXZ  004417a0 f i field.obj
 0001:00040810       ?get_geometry_type@Field_geom@@UAE?AW4geometry_type@Field@@XZ 00441810 f i field.obj
 0001:00040830       ??_EField_geom@@UAEPAXI@Z  00441830 f i field.obj
 0001:00040830       ??_GField_geom@@UAEPAXI@Z  00441830 f i field.obj
 0001:00040890       ??1Field_geom@@UAE@XZ      00441890 f i field.obj
 0001:000408c0       ??0Field_enum@@QAE@PADKPAEEW4utype@Field@@PBDPAUst_table@@IPAUst_typelib@@PAUcharset_info_st@@@Z 004418c0 f i field.obj
 0001:00040960       ?type@Field_enum@@UBE?AW4enum_field_types@@XZ 00441960 f i field.obj
 0001:00040980       ?cmp_type@Field_enum@@UBE?AW4Item_result@@XZ 00441980 f i field.obj
 0001:000409a0       ?cast_to_int_type@Field_enum@@UBE?AW4Item_result@@XZ 004419a0 f i field.obj
 0001:000409c0       ?reset@Field_enum@@UAEHXZ  004419c0 f i field.obj
 0001:00040a10       ?pack_length@Field_enum@@UBEKXZ 00441a10 f i field.obj
 0001:00040a30       ?size_of@Field_enum@@UBEIXZ 00441a30 f i field.obj
 0001:00040a50       ?real_type@Field_enum@@UBE?AW4enum_field_types@@XZ 00441a50 f i field.obj
 0001:00040a70       ?zero_pack@Field_enum@@UBEHXZ 00441a70 f i field.obj
 0001:00040a90       ?optimize_range@Field_enum@@UAEHII@Z 00441a90 f i field.obj
 0001:00040ab0       ?has_charset@Field_enum@@UBEHXZ 00441ab0 f i field.obj
 0001:00040ad0       ?sort_charset@Field_enum@@UBEPAUcharset_info_st@@XZ 00441ad0 f i field.obj
 0001:00040af0       ??_EField_enum@@UAEPAXI@Z  00441af0 f i field.obj
 0001:00040af0       ??_GField_enum@@UAEPAXI@Z  00441af0 f i field.obj
 0001:00040b40       ??1Field_enum@@UAE@XZ      00441b40 f i field.obj
 0001:00040b70       ??0Field_set@@QAE@PADKPAEEW4utype@Field@@PBDPAUst_table@@KPAUst_typelib@@PAUcharset_info_st@@@Z 00441b70 f i field.obj
 0001:00040c00       ?store@Field_set@@UAEHN@Z  00441c00 f i field.obj
 0001:00040c40       ?zero_pack@Field_set@@UBEHXZ 00441c40 f i field.obj
 0001:00040c60       ?real_type@Field_set@@UBE?AW4enum_field_types@@XZ 00441c60 f i field.obj
 0001:00040c80       ?has_charset@Field_set@@UBEHXZ 00441c80 f i field.obj
 0001:00040ca0       ??_EField_set@@UAEPAXI@Z   00441ca0 f i field.obj
 0001:00040ca0       ??_GField_set@@UAEPAXI@Z   00441ca0 f i field.obj
 0001:00040cf0       ??1Field_set@@UAE@XZ       00441cf0 f i field.obj
 0001:00040d20       ??0Sql_alloc@@QAE@XZ       00441d20 f i field.obj
 0001:00040d40       ?is_real_null@Field@@QAEHI@Z 00441d40 f i field.obj
 0001:00040db0       ??2Item@@SAPAXI@Z          00441db0 f i field.obj
 0001:00040dd0       ??0Item_string@@QAE@PBDIPAUcharset_info_st@@W4Derivation@@I@Z 00441dd0 f i field.obj
 0001:00040e90       ?set@DTCollation@@QAEXPAUcharset_info_st@@W4Derivation@@I@Z 00441e90 f i field.obj
 0001:00040ed0       ?save_org_in_field@Item@@UAEXPAVField@@@Z 00441ed0 f i field.obj
 0001:00040f20       ?save_safe_in_field@Item@@UAEHPAVField@@@Z 00441f20 f i field.obj
 0001:00040f70       ?cast_to_int_type@Item@@UBE?AW4Item_result@@XZ 00441f70 f i field.obj
 0001:00040fb0       ?get_tmp_table_field@Item@@UAEPAVField@@XZ 00441fb0 f i field.obj
 0001:00040fd0       ?tmp_table_field@Item@@UAEPAVField@@PAUst_table@@@Z 00441fd0 f i field.obj
 0001:00040ff0       ?full_name@Item@@UBEPBDXZ  00441ff0 f i field.obj
 0001:00041040       ?val_result@Item@@UAENXZ   00442040 f i field.obj
 0001:00041080       ?val_int_result@Item@@UAE_JXZ 00442080 f i field.obj
 0001:000410c0       ?str_result@Item@@UAEPAVString@@PAV2@@Z 004420c0 f i field.obj
 0001:00041110       ?val_decimal_result@Item@@UAEPAVmy_decimal@@PAV2@@Z 00442110 f i field.obj
 0001:00041160       ?val_bool_result@Item@@UAEHXZ 00442160 f i field.obj
 0001:000411a0       ?used_tables@Item@@UBE_KXZ 004421a0 f i field.obj
 0001:000411c0       ?not_null_tables@Item@@UBE_KXZ 004421c0 f i field.obj
 0001:00041200       ?eq_cmp_result@Item@@UBE?AW4cond_result@1@XZ 00442200 f i field.obj
 0001:00041220       ?const_item@Item@@UBEHXZ   00442220 f i field.obj
 0001:000412a0       ?const_during_execution@Item@@UBEHXZ 004422a0 f i field.obj
 0001:00041320       ?update_used_tables@Item@@UAEXXZ 00442320 f i field.obj
 0001:00041340       ?split_sum_func@Item@@UAEXPAVTHD@@PAPAV1@AAV?$List@VItem@@@@@Z 00442340 f i field.obj
 0001:00041360       ?get_date_result@Item@@UAEHPAUst_mysql_time@@I@Z 00442360 f i field.obj
 0001:000413b0       ?is_null@Item@@UAEHXZ      004423b0 f i field.obj
 0001:000413d0       ?update_null_value@Item@@UAEXXZ 004423d0 f i field.obj
 0001:00041410       ?top_level_item@Item@@UAEXXZ 00442410 f i field.obj
 0001:00041430       ?set_result_field@Item@@UAEXPAVField@@@Z 00442430 f i field.obj
 0001:00041450       ?is_result_field@Item@@UAEHXZ 00442450 f i field.obj
 0001:00041470       ?is_bool_func@Item@@UAEHXZ 00442470 f i field.obj
 0001:00041490       ?save_in_result_field@Item@@UAEXH@Z 00442490 f i field.obj
 0001:000414b0       ?no_rows_in_result@Item@@UAEXXZ 004424b0 f i field.obj
 0001:000414d0       ?copy_or_same@Item@@UAEPAV1@PAVTHD@@@Z 004424d0 f i field.obj
 0001:000414f0       ?copy_andor_structure@Item@@UAEPAV1@PAVTHD@@@Z 004424f0 f i field.obj
 0001:00041510       ?real_item@Item@@UAEPAV1@XZ 00442510 f i field.obj
 0001:00041530       ?get_tmp_table_item@Item@@UAEPAV1@PAVTHD@@@Z 00442530 f i field.obj
 0001:00041580       ?compare_collation@Item@@UAEPAUcharset_info_st@@XZ 00442580 f i field.obj
 0001:000415a0       ?walk@Item@@UAEHP81@AEHPAE@Z0@Z 004425a0 f i field.obj
 0001:000415e0       ?compile@Item@@UAEPAV1@P81@AEHPAPAE@Z0P81@AEPAV1@PAE@Z2@Z 004425e0 f i field.obj
 0001:00041650       ?traverse_cond@Item@@UAEXP6AXPBV1@PAX@Z1W4traverse_order@1@@Z 00442650 f i field.obj
 0001:000416a0       ?remove_dependence_processor@Item@@UAEHPAE@Z 004426a0 f i field.obj
 0001:000416c0       ?remove_fixed@Item@@UAEHPAE@Z 004426c0 f i field.obj
 0001:000416f0       ?collect_item_field_processor@Item@@UAEHPAE@Z 004426f0 f i field.obj
 0001:00041710       ?find_item_in_field_list_processor@Item@@UAEHPAE@Z 00442710 f i field.obj
 0001:00041730       ?change_context_processor@Item@@UAEHPAE@Z 00442730 f i field.obj
 0001:00041750       ?reset_query_id_processor@Item@@UAEHPAE@Z 00442750 f i field.obj
 0001:00041770       ?is_expensive_processor@Item@@UAEHPAE@Z 00442770 f i field.obj
 0001:00041790       ?subst_argument_checker@Item@@UAEHPAPAE@Z 00442790 f i field.obj
 0001:000417d0       ?equal_fields_propagator@Item@@UAEPAV1@PAE@Z 004427d0 f i field.obj
 0001:000417f0       ?set_no_const_sub@Item@@UAEHPAE@Z 004427f0 f i field.obj
 0001:00041810       ?replace_equal_field@Item@@UAEPAV1@PAE@Z 00442810 f i field.obj
 0001:00041830       ?this_item@Item@@UAEPAV1@XZ 00442830 f i field.obj
 0001:00041850       ?this_item@Item@@UBEPBV1@XZ 00442850 f i field.obj
 0001:00041870       ?this_item_addr@Item@@UAEPAPAV1@PAVTHD@@PAPAV1@@Z 00442870 f i field.obj
 0001:00041890       ?cols@Item@@UAEIXZ         00442890 f i field.obj
 0001:000418b0       ?element_index@Item@@UAEPAV1@I@Z 004428b0 f i field.obj
 0001:000418d0       ?addr@Item@@UAEPAPAV1@I@Z  004428d0 f i field.obj
 0001:000418f0       ?null_inside@Item@@UAEHXZ  004428f0 f i field.obj
 0001:00041910       ?bring_value@Item@@UAEXXZ  00442910 f i field.obj
 0001:00041930       ?filed_for_view_update@Item@@UAEPAVItem_field@@XZ 00442930 f i field.obj
 0001:00041950       ?neg_transformer@Item@@UAEPAV1@PAVTHD@@@Z 00442950 f i field.obj
 0001:00041970       ?update_value_transformer@Item@@UAEPAV1@PAE@Z 00442970 f i field.obj
 0001:00041990       ?is_splocal@Item@@UAEHXZ   00442990 f i field.obj
 0001:000419b0       ?get_settable_routine_parameter@Item@@UAEPAVSettable_routine_parameter@@XZ 004429b0 f i field.obj
 0001:000419d0       ?result_as_longlong@Item@@UAEHXZ 004429d0 f i field.obj
 0001:000419f0       ?type@Item_string@@UBE?AW4Type@Item@@XZ 004429f0 f i field.obj
 0001:00041a10       ?val_str@Item_string@@UAEPAVString@@PAV2@@Z 00442a10 f i field.obj
 0001:00041a70       ?result_type@Item_string@@UBE?AW4Item_result@@XZ 00442a70 f i field.obj
 0001:00041a90       ?field_type@Item_string@@UBE?AW4enum_field_types@@XZ 00442a90 f i field.obj
 0001:00041ab0       ?basic_const_item@Item_string@@UBEHXZ 00442ab0 f i field.obj
 0001:00041ad0       ?clone_item@Item_string@@UAEPAVItem@@XZ 00442ad0 f i field.obj
 0001:00041b70       ??0Item_string@@QAE@PBD0IPAUcharset_info_st@@W4Derivation@@I@Z 00442b70 f i field.obj
 0001:00041c30       ?cleanup@Item_string@@UAEXXZ 00442c30 f i field.obj
 0001:00041c50       ??_GItem_string@@UAEPAXI@Z 00442c50 f i field.obj
 0001:00041c50       ??_EItem_string@@UAEPAXI@Z 00442c50 f i field.obj
 0001:00041ca0       ??3Item@@SAXPAXI@Z         00442ca0 f i field.obj
 0001:00041cd0       ??1Item_string@@UAE@XZ     00442cd0 f i field.obj
 0001:00041d00       ??1Item@@UAE@XZ            00442d00 f i field.obj
 0001:00041d40       ?result_type@Item@@UBE?AW4Item_result@@XZ 00442d40 f i field.obj
 0001:00041d60       ?basic_const_item@Item@@UBEHXZ 00442d60 f i field.obj
 0001:00041d80       ?clone_item@Item@@UAEPAV1@XZ 00442d80 f i field.obj
 0001:00041da0       ?print@Item@@UAEXPAVString@@@Z 00442da0 f i field.obj
 0001:00041df0       ??_EItem@@UAEPAXI@Z        00442df0 f i field.obj
 0001:00041df0       ??_GItem@@UAEPAXI@Z        00442df0 f i field.obj
 0001:00041e40       ??0?$List@VString@@@@QAE@XZ 00442e40 f i field.obj
 0001:00041e70       ??0base_list@@QAE@XZ       00442e70 f i field.obj
 0001:00041eb0       ?push_back@?$List@VString@@@@QAEHPAVString@@@Z 00442eb0 f i field.obj
 0001:00041ef0       ?push_back@base_list@@QAEHPAX@Z 00442ef0 f i field.obj
 0001:00041fb0       ??2Sql_alloc@@SAPAXI@Z     00442fb0 f i field.obj
 0001:00041fd0       ??0list_node@@QAE@PAXPAU0@@Z 00442fd0 f i field.obj
 0001:00042020       ??0?$List_iterator@VString@@@@QAE@AAV?$List@VString@@@@@Z 00443020 f i field.obj
 0001:00042060       ??0base_list_iterator@@QAE@AAVbase_list@@@Z 00443060 f i field.obj
 0001:000420a0       ?init@base_list_iterator@@QAEXAAVbase_list@@@Z 004430a0 f i field.obj
 0001:000420f0       ??E?$List_iterator@VString@@@@QAEPAVString@@H@Z 004430f0 f i field.obj
 0001:00042120       ?next@base_list_iterator@@QAEPAXXZ 00443120 f i field.obj
 0001:00042180       ?set_field_to_null@@YAHPAVField@@@Z 00443180 f   field_conv.obj
 0001:00042220       ?set_field_to_null_with_conversions@@YAHPAVField@@H@Z 00443220 f   field_conv.obj
 0001:00042310       ?set@Copy_field@@QAEXPADPAVField@@@Z 00443310 f   field_conv.obj
 0001:00042530       ?set@Copy_field@@QAEXPAVField@@0H@Z 00443530 f   field_conv.obj
 0001:00042b30       ?get_copy_func@Copy_field@@AAEP6AXPAV1@@ZPAVField@@1@Z 00443b30 f   field_conv.obj
 0001:00043f30       ?field_conv@@YAHPAVField@@0@Z 00444f30 f   field_conv.obj
 0001:00044e60       ?real_maybe_null@Field@@QAEHXZ 00445e60 f i field_conv.obj
 0001:00044e90       ?set_quick@String@@QAEXPADKPAUcharset_info_st@@@Z 00445e90 f i field_conv.obj
 0001:00044ee0       ?is_alloced@String@@QAEHXZ 00445ee0 f i field_conv.obj
 0001:00044f00       ?filesort@@YAKPAVTHD@@PAUst_table@@PAUst_sort_field@@IPAVSQL_SELECT@@KPAK@Z 00445f00 f   filesort.obj
 0001:00045910       ?filesort_free_buffers@@YAXPAUst_table@@H@Z 00446910 f   filesort.obj
 0001:00047280       ?merge_many_buff@@YAHPAUst_sort_param@@PAEPAUst_buffpek@@PAIPAUst_io_cache@@@Z 00448280 f   filesort.obj
 0001:00047640       ?read_to_buffer@@YAIPAUst_io_cache@@PAUst_buffpek@@I@Z 00448640 f   filesort.obj
 0001:00047720       ?reuse_freed_buff@@YAXPAUst_queue@@PAUst_buffpek@@I@Z 00448720 f   filesort.obj
 0001:00047800       ?merge_buffers@@YAHPAUst_sort_param@@PAUst_io_cache@@1PAEPAUst_buffpek@@33H@Z 00448800 f   filesort.obj
 0001:00048910       ?change_double_for_sort@@YAXNPAE@Z 00449910 f   filesort.obj
 0001:00049920       ?is_uncacheable@Item_subselect@@QBEHXZ 0044a920 f i filesort.obj
 0001:00049970       ?ha_rnd_init@handler@@QAEHH@Z 0044a970 f i filesort.obj
 0001:00049b00       ?ha_rnd_end@handler@@QAEHXZ 0044ab00 f i filesort.obj
 0001:00049c70       ?skip_record@SQL_SELECT@@QAEHXZ 0044ac70 f i filesort.obj
 0001:00049d10       ?is_null@Field@@QAEHI@Z    0044ad10 f i filesort.obj
 0001:00049d80       ?get_next_toc_type@Gis_read_stream@@QAE?AW4enum_tok_types@1@XZ 0044ad80 f   gstream.obj
 0001:00049e60       ?get_next_word@Gis_read_stream@@QAEHPAUst_lex_string@@@Z 0044ae60 f   gstream.obj
 0001:00049f20       ?get_next_number@Gis_read_stream@@QAEHPAN@Z 0044af20 f   gstream.obj
 0001:0004a050       ?check_next_symbol@Gis_read_stream@@QAEHD@Z 0044b050 f   gstream.obj
 0001:0004a120       ?set_error_msg@Gis_read_stream@@QAEXPBD@Z 0044b120 f   gstream.obj
 0001:0004a2a0       ?skip_space@Gis_read_stream@@QAEXXZ 0044b2a0 f i gstream.obj
 0001:0004a300       ??0ha_blackhole@@QAE@PAUst_table@@@Z 0044b300 f   ha_blackhole.obj
 0001:0004a340       ?bas_ext@ha_blackhole@@UBEPAPBDXZ 0044b340 f   ha_blackhole.obj
 0001:0004a360       ?open@ha_blackhole@@UAEHPBDHI@Z 0044b360 f   ha_blackhole.obj
 0001:0004a470       ?close@ha_blackhole@@UAEHXZ 0044b470 f   ha_blackhole.obj
 0001:0004a560       ?create@ha_blackhole@@UAEHPBDPAUst_table@@PAUst_ha_create_information@@@Z 0044b560 f   ha_blackhole.obj
 0001:0004a640       ?index_type@ha_blackhole@@UAEPBDI@Z 0044b640 f   ha_blackhole.obj
 0001:0004a7a0       ?write_row@ha_blackhole@@UAEHPAE@Z 0044b7a0 f   ha_blackhole.obj
 0001:0004a880       ?rnd_init@ha_blackhole@@UAEHH@Z 0044b880 f   ha_blackhole.obj
 0001:0004a960       ?rnd_next@ha_blackhole@@UAEHPAE@Z 0044b960 f   ha_blackhole.obj
 0001:0004aa40       ?rnd_pos@ha_blackhole@@UAEHPAE0@Z 0044ba40 f   ha_blackhole.obj
 0001:0004ab40       ?position@ha_blackhole@@UAEXPBE@Z 0044bb40 f   ha_blackhole.obj
 0001:0004ac40       ?info@ha_blackhole@@UAEHI@Z 0044bc40 f   ha_blackhole.obj
 0001:0004adb0       ?external_lock@ha_blackhole@@UAEHPAVTHD@@H@Z 0044bdb0 f   ha_blackhole.obj
 0001:0004aea0       ?lock_count@ha_blackhole@@UBEIXZ 0044bea0 f   ha_blackhole.obj
 0001:0004af80       ?store_lock@ha_blackhole@@UAEPAPAUst_thr_lock_data@@PAVTHD@@PAPAU2@W4thr_lock_type@@@Z 0044bf80 f   ha_blackhole.obj
 0001:0004b070       ?index_read@ha_blackhole@@UAEHPAEPBEIW4ha_rkey_function@@@Z 0044c070 f   ha_blackhole.obj
 0001:0004b160       ?index_read_idx@ha_blackhole@@UAEHPAEIPBEIW4ha_rkey_function@@@Z 0044c160 f   ha_blackhole.obj
 0001:0004b250       ?index_read_last@ha_blackhole@@UAEHPAEPBEI@Z 0044c250 f   ha_blackhole.obj
 0001:0004b340       ?index_next@ha_blackhole@@UAEHPAE@Z 0044c340 f   ha_blackhole.obj
 0001:0004b430       ?index_prev@ha_blackhole@@UAEHPAE@Z 0044c430 f   ha_blackhole.obj
 0001:0004b520       ?index_first@ha_blackhole@@UAEHPAE@Z 0044c520 f   ha_blackhole.obj
 0001:0004b610       ?index_last@ha_blackhole@@UAEHPAE@Z 0044c610 f   ha_blackhole.obj
 0001:0004bc00       ?index_init@handler@@MAEHI@Z 0044cc00 f i ha_blackhole.obj
 0001:0004bc30       ?index_end@handler@@MAEHXZ 0044cc30 f i ha_blackhole.obj
 0001:0004bc60       ?rnd_end@handler@@MAEHXZ   0044cc60 f i ha_blackhole.obj
 0001:0004bc80       ??0handler@@QAE@PBUhandlerton@@PAUst_table@@@Z 0044cc80 f i ha_blackhole.obj
 0001:0004be40       ?external_lock@handler@@MAEHPAVTHD@@H@Z 0044ce40 f i ha_blackhole.obj
 0001:0004be60       ?scan_time@handler@@UAENXZ 0044ce60 f i ha_blackhole.obj
 0001:0004beb0       ?read_time@handler@@UAENIIK@Z 0044ceb0 f i ha_blackhole.obj
 0001:0004bf00       ?keys_to_use_for_scanning@handler@@UAEPBV?$Bitmap@$0EA@@@XZ 0044cf00 f i ha_blackhole.obj
 0001:0004bf20       ?has_transactions@handler@@UAEHXZ 0044cf20 f i ha_blackhole.obj
 0001:0004bf40       ?extra_rec_buf_length@handler@@UAEIXZ 0044cf40 f i ha_blackhole.obj
 0001:0004bf60       ?estimate_rows_upper_bound@handler@@UAEKXZ 0044cf60 f i ha_blackhole.obj
 0001:0004bf90       ?get_row_type@handler@@UBE?AW4row_type@@XZ 0044cf90 f i ha_blackhole.obj
 0001:0004bfb0       ?index_type@handler@@UAEPBDI@Z 0044cfb0 f i ha_blackhole.obj
 0001:0004c000       ?write_row@handler@@UAEHPAE@Z 0044d000 f i ha_blackhole.obj
 0001:0004c020       ?update_row@handler@@UAEHPBEPAE@Z 0044d020 f i ha_blackhole.obj
 0001:0004c040       ?delete_row@handler@@UAEHPBE@Z 0044d040 f i ha_blackhole.obj
 0001:0004c060       ?index_read@handler@@UAEHPAEPBEIW4ha_rkey_function@@@Z 0044d060 f i ha_blackhole.obj
 0001:0004c080       ?index_next@handler@@UAEHPAE@Z 0044d080 f i ha_blackhole.obj
 0001:0004c0a0       ?index_prev@handler@@UAEHPAE@Z 0044d0a0 f i ha_blackhole.obj
 0001:0004c0c0       ?index_first@handler@@UAEHPAE@Z 0044d0c0 f i ha_blackhole.obj
 0001:0004c0e0       ?index_last@handler@@UAEHPAE@Z 0044d0e0 f i ha_blackhole.obj
 0001:0004c100       ?index_read_last@handler@@UAEHPAEPBEI@Z 0044d100 f i ha_blackhole.obj
 0001:0004c140       ?ft_init@handler@@UAEHXZ   0044d140 f i ha_blackhole.obj
 0001:0004c160       ?ft_init_ext@handler@@UAEPAUst_ft_info@@IIPAVString@@@Z 0044d160 f i ha_blackhole.obj
 0001:0004c180       ?ft_read@handler@@UAEHPAE@Z 0044d180 f i ha_blackhole.obj
 0001:0004c1a0       ?restart_rnd_next@handler@@UAEHPAE0@Z 0044d1a0 f i ha_blackhole.obj
 0001:0004c1c0       ?rnd_same@handler@@UAEHPAEI@Z 0044d1c0 f i ha_blackhole.obj
 0001:0004c1e0       ?records_in_range@handler@@UAEKIPAUst_key_range@@0@Z 0044d1e0 f i ha_blackhole.obj
 0001:0004c200       ?extra@handler@@UAEHW4ha_extra_function@@@Z 0044d200 f i ha_blackhole.obj
 0001:0004c220       ?extra_opt@handler@@UAEHW4ha_extra_function@@K@Z 0044d220 f i ha_blackhole.obj
 0001:0004c270       ?reset@handler@@UAEHXZ     0044d270 f i ha_blackhole.obj
 0001:0004c2c0       ?unlock_row@handler@@UAEXXZ 0044d2c0 f i ha_blackhole.obj
 0001:0004c2e0       ?start_stmt@handler@@UAEHPAVTHD@@W4thr_lock_type@@@Z 0044d2e0 f i ha_blackhole.obj
 0001:0004c300       ?delete_all_rows@handler@@UAEHXZ 0044d300 f i ha_blackhole.obj
 0001:0004c340       ?reset_auto_increment@handler@@UAEH_K@Z 0044d340 f i ha_blackhole.obj
 0001:0004c360       ?update_create_info@handler@@UAEXPAUst_ha_create_information@@@Z 0044d360 f i ha_blackhole.obj
 0001:0004c380       ?check@handler@@MAEHPAVTHD@@PAUst_ha_check_opt@@@Z 0044d380 f i ha_blackhole.obj
 0001:0004c3a0       ?check_for_upgrade@handler@@MAEHPAUst_ha_check_opt@@@Z 0044d3a0 f i ha_blackhole.obj
 0001:0004c3c0       ?backup@handler@@UAEHPAVTHD@@PAUst_ha_check_opt@@@Z 0044d3c0 f i ha_blackhole.obj
 0001:0004c3e0       ?restore@handler@@UAEHPAVTHD@@PAUst_ha_check_opt@@@Z 0044d3e0 f i ha_blackhole.obj
 0001:0004c400       ?repair@handler@@MAEHPAVTHD@@PAUst_ha_check_opt@@@Z 0044d400 f i ha_blackhole.obj
 0001:0004c420       ?optimize@handler@@UAEHPAVTHD@@PAUst_ha_check_opt@@@Z 0044d420 f i ha_blackhole.obj
 0001:0004c440       ?analyze@handler@@UAEHPAVTHD@@PAUst_ha_check_opt@@@Z 0044d440 f i ha_blackhole.obj
 0001:0004c460       ?assign_to_keycache@handler@@UAEHPAVTHD@@PAUst_ha_check_opt@@@Z 0044d460 f i ha_blackhole.obj
 0001:0004c480       ?preload_keys@handler@@UAEHPAVTHD@@PAUst_ha_check_opt@@@Z 0044d480 f i ha_blackhole.obj
 0001:0004c4a0       ?check_and_repair@handler@@UAEHPAVTHD@@@Z 0044d4a0 f i ha_blackhole.obj
 0001:0004c4c0       ?dump@handler@@UAEHPAVTHD@@H@Z 0044d4c0 f i ha_blackhole.obj
 0001:0004c4e0       ?disable_indexes@handler@@UAEHI@Z 0044d4e0 f i ha_blackhole.obj
 0001:0004c500       ?enable_indexes@handler@@UAEHI@Z 0044d500 f i ha_blackhole.obj
 0001:0004c520       ?indexes_are_disabled@handler@@UAEHXZ 0044d520 f i ha_blackhole.obj
 0001:0004c540       ?start_bulk_insert@handler@@UAEXK@Z 0044d540 f i ha_blackhole.obj
 0001:0004c560       ?end_bulk_insert@handler@@UAEHXZ 0044d560 f i ha_blackhole.obj
 0001:0004c580       ?discard_or_import_tablespace@handler@@UAEHD@Z 0044d580 f i ha_blackhole.obj
 0001:0004c5a0       ?net_read_dump@handler@@UAEHPAUst_net@@@Z 0044d5a0 f i ha_blackhole.obj
 0001:0004c5c0       ?update_table_comment@handler@@UAEPADPBD@Z 0044d5c0 f i ha_blackhole.obj
 0001:0004c5e0       ?append_create_info@handler@@UAEXPAVString@@@Z 0044d5e0 f i ha_blackhole.obj
 0001:0004c600       ?get_foreign_key_create_info@handler@@UAEPADXZ 0044d600 f i ha_blackhole.obj
 0001:0004c620       ?can_switch_engines@handler@@UAEHXZ 0044d620 f i ha_blackhole.obj
 0001:0004c640       ?get_foreign_key_list@handler@@UAEHPAVTHD@@PAV?$List@Ust_foreign_key_info@@@@@Z 0044d640 f i ha_blackhole.obj
 0001:0004c660       ?referenced_by_foreign_key@handler@@UAEIXZ 0044d660 f i ha_blackhole.obj
 0001:0004c680       ?init_table_handle_for_HANDLER@handler@@UAEXXZ 0044d680 f i ha_blackhole.obj
 0001:0004c6a0       ?free_foreign_key_create_info@handler@@UAEXPAD@Z 0044d6a0 f i ha_blackhole.obj
 0001:0004c6c0       ?index_ddl_flags@handler@@UBEKPAUst_key@@@Z 0044d6c0 f i ha_blackhole.obj
 0001:0004c6e0       ?add_index@handler@@UAEHPAUst_table@@PAUst_key@@I@Z 0044d6e0 f i ha_blackhole.obj
 0001:0004c700       ?drop_index@handler@@UAEHPAUst_table@@PAII@Z 0044d700 f i ha_blackhole.obj
 0001:0004c720       ?max_supported_record_length@handler@@UBEIXZ 0044d720 f i ha_blackhole.obj
 0001:0004c740       ?max_supported_keys@handler@@UBEIXZ 0044d740 f i ha_blackhole.obj
 0001:0004c760       ?max_supported_key_parts@handler@@UBEIXZ 0044d760 f i ha_blackhole.obj
 0001:0004c780       ?max_supported_key_length@handler@@UBEIXZ 0044d780 f i ha_blackhole.obj
 0001:0004c7a0       ?max_supported_key_part_length@handler@@UBEIXZ 0044d7a0 f i ha_blackhole.obj
 0001:0004c7c0       ?min_record_length@handler@@UBEII@Z 0044d7c0 f i ha_blackhole.obj
 0001:0004c7e0       ?low_byte_first@handler@@UBEHXZ 0044d7e0 f i ha_blackhole.obj
 0001:0004c800       ?checksum@handler@@UBEIXZ  0044d800 f i ha_blackhole.obj
 0001:0004c820       ?is_crashed@handler@@UBEHXZ 0044d820 f i ha_blackhole.obj
 0001:0004c840       ?auto_repair@handler@@UBEHXZ 0044d840 f i ha_blackhole.obj
 0001:0004c860       ?lock_count@handler@@UBEIXZ 0044d860 f i ha_blackhole.obj
 0001:0004c880       ?table_cache_type@handler@@UAEEXZ 0044d880 f i ha_blackhole.obj
 0001:0004c8a0       ?register_query_cache_table@handler@@UAEDPAVTHD@@PADIPAP6AD01IPA_K@Z2@Z 0044d8a0 f i ha_blackhole.obj
 0001:0004c8d0       ?primary_key_is_clustered@handler@@UAEHXZ 0044d8d0 f i ha_blackhole.obj
 0001:0004c8f0       ?cmp_ref@handler@@UAEHPBE0@Z 0044d8f0 f i ha_blackhole.obj
 0001:0004c940       ?cond_push@handler@@UAEPBVItem@@PBV2@@Z 0044d940 f i ha_blackhole.obj
 0001:0004c960       ?cond_pop@handler@@UAEXXZ  0044d960 f i ha_blackhole.obj
 0001:0004c980       ??_Ehandler@@UAEPAXI@Z     0044d980 f i ha_blackhole.obj
 0001:0004c980       ??_Ghandler@@UAEPAXI@Z     0044d980 f i ha_blackhole.obj
 0001:0004c9e0       ??3Sql_alloc@@SAXPAXI@Z    0044d9e0 f i ha_blackhole.obj
 0001:0004ca10       ??1handler@@UAE@XZ         0044da10 f i ha_blackhole.obj
 0001:0004caa0       ??1Sql_alloc@@QAE@XZ       0044daa0 f i ha_blackhole.obj
 0001:0004cac0       ?table_type@ha_blackhole@@UBEPBDXZ 0044dac0 f i ha_blackhole.obj
 0001:0004cae0       ?table_flags@ha_blackhole@@UBEKXZ 0044dae0 f i ha_blackhole.obj
 0001:0004cb00       ?index_flags@ha_blackhole@@UBEKIIH@Z 0044db00 f i ha_blackhole.obj
 0001:0004cb40       ?max_supported_keys@ha_blackhole@@UBEIXZ 0044db40 f i ha_blackhole.obj
 0001:0004cb60       ?max_supported_key_length@ha_blackhole@@UBEIXZ 0044db60 f i ha_blackhole.obj
 0001:0004cb80       ?max_supported_key_part_length@ha_blackhole@@UBEIXZ 0044db80 f i ha_blackhole.obj
 0001:0004cba0       ??_Eha_blackhole@@UAEPAXI@Z 0044dba0 f i ha_blackhole.obj
 0001:0004cba0       ??_Gha_blackhole@@UAEPAXI@Z 0044dba0 f i ha_blackhole.obj
 0001:0004cc00       ??1ha_blackhole@@UAE@XZ    0044dc00 f i ha_blackhole.obj
 0001:0004cc40       ?archive_db_init@@YAHXZ    0044dc40 f   ha_archive.obj
 0001:0004ce30       ?archive_db_end@@YAHXZ     0044de30 f   ha_archive.obj
 0001:0004ce80       ??0ha_archive@@QAE@PAUst_table@@@Z 0044de80 f   ha_archive.obj
 0001:0004cf40       ?read_data_header@ha_archive@@QAEHPAX@Z 0044df40 f   ha_archive.obj
 0001:0004d160       ?write_data_header@ha_archive@@QAEHPAX@Z 0044e160 f   ha_archive.obj
 0001:0004d300       ?read_meta_file@ha_archive@@QAEHHPAK@Z 0044e300 f   ha_archive.obj
 0001:0004d5b0       ?write_meta_file@ha_archive@@QAEHHKH@Z 0044e5b0 f   ha_archive.obj
 0001:0004d840       ?get_share@ha_archive@@QAEPAUst_archive_share@@PBDPAH@Z 0044e840 f   ha_archive.obj
 0001:0004dc90       ?free_share@ha_archive@@QAEHXZ 0044ec90 f   ha_archive.obj
 0001:0004df60       ?init_archive_writer@ha_archive@@QAEHXZ 0044ef60 f   ha_archive.obj
 0001:0004e120       ?bas_ext@ha_archive@@UBEPAPBDXZ 0044f120 f   ha_archive.obj
 0001:0004e140       ?open@ha_archive@@UAEHPBDHI@Z 0044f140 f   ha_archive.obj
 0001:0004e440       ?close@ha_archive@@UAEHXZ  0044f440 f   ha_archive.obj
 0001:0004e560       ?create@ha_archive@@UAEHPBDPAUst_table@@PAUst_ha_create_information@@@Z 0044f560 f   ha_archive.obj
 0001:0004e860       ?real_write_row@ha_archive@@QAEHPAEPAX@Z 0044f860 f   ha_archive.obj
 0001:0004ec30       ?write_row@ha_archive@@UAEHPAE@Z 0044fc30 f   ha_archive.obj
 0001:0004efa0       ?rnd_init@ha_archive@@UAEHH@Z 0044ffa0 f   ha_archive.obj
 0001:0004f210       ?get_row@ha_archive@@QAEHPAXPAE@Z 00450210 f   ha_archive.obj
 0001:0004f530       ?rnd_next@ha_archive@@UAEHPAE@Z 00450530 f   ha_archive.obj
 0001:0004f700       ?position@ha_archive@@UAEXPBE@Z 00450700 f   ha_archive.obj
 0001:0004f810       ?rnd_pos@ha_archive@@UAEHPAE0@Z 00450810 f   ha_archive.obj
 0001:0004f970       ?repair@ha_archive@@UAEHPAVTHD@@PAUst_ha_check_opt@@@Z 00450970 f   ha_archive.obj
 0001:0004fac0       ?optimize@ha_archive@@UAEHPAVTHD@@PAUst_ha_check_opt@@@Z 00450ac0 f   ha_archive.obj
 0001:0004ff30       ?store_lock@ha_archive@@UAEPAPAUst_thr_lock_data@@PAVTHD@@PAPAU2@W4thr_lock_type@@@Z 00450f30 f   ha_archive.obj
 0001:0004fff0       ?info@ha_archive@@UAEHI@Z  00450ff0 f   ha_archive.obj
 0001:000501b0       ?start_bulk_insert@ha_archive@@UAEXK@Z 004511b0 f   ha_archive.obj
 0001:000502b0       ?end_bulk_insert@ha_archive@@UAEHXZ 004512b0 f   ha_archive.obj
 0001:000503b0       ?delete_all_rows@ha_archive@@UAEHXZ 004513b0 f   ha_archive.obj
 0001:000504a0       ?is_crashed@ha_archive@@UBEHXZ 004514a0 f   ha_archive.obj
 0001:00050590       ?check@ha_archive@@UAEHPAVTHD@@PAUst_ha_check_opt@@@Z 00451590 f   ha_archive.obj
 0001:000507f0       ?check_and_repair@ha_archive@@UAEHPAVTHD@@@Z 004517f0 f   ha_archive.obj
 0001:00051850       ?set@String@@QAEXPADKPAUcharset_info_st@@@Z 00452850 f i ha_archive.obj
 0001:000518c0       ?table_type@ha_archive@@UBEPBDXZ 004528c0 f i ha_archive.obj
 0001:000518e0       ?index_type@ha_archive@@UAEPBDI@Z 004528e0 f i ha_archive.obj
 0001:00051900       ?table_flags@ha_archive@@UBEKXZ 00452900 f i ha_archive.obj
 0001:00051920       ?index_flags@ha_archive@@UBEKIIH@Z 00452920 f i ha_archive.obj
 0001:00051940       ?auto_repair@ha_archive@@UBEHXZ 00452940 f i ha_archive.obj
 0001:00051960       ?get_row_type@ha_archive@@UBE?AW4row_type@@XZ 00452960 f i ha_archive.obj
 0001:00051980       ??_Eha_archive@@UAEPAXI@Z  00452980 f i ha_archive.obj
 0001:00051980       ??_Gha_archive@@UAEPAXI@Z  00452980 f i ha_archive.obj
 0001:000519e0       ??1ha_archive@@UAE@XZ      004529e0 f i ha_archive.obj
 0001:00051a30       ?set_ptr@Field_blob@@QAEXKPAD@Z 00452a30 f i ha_archive.obj
 0001:00051a90       ??0st_ha_check_opt@@QAE@XZ 00452a90 f i ha_archive.obj
 0001:00051ab0       ??0ha_heap@@QAE@PAUst_table@@@Z 00452ab0 f   ha_heap.obj
 0001:00051b20       ?bas_ext@ha_heap@@UBEPAPBDXZ 00452b20 f   ha_heap.obj
 0001:00051b40       ?open@ha_heap@@UAEHPBDHI@Z 00452b40 f   ha_heap.obj
 0001:00051ca0       ?close@ha_heap@@UAEHXZ     00452ca0 f   ha_heap.obj
 0001:00051cd0       ?clone@ha_heap@@UAEPAVhandler@@PAUst_mem_root@@@Z 00452cd0 f   ha_heap.obj
 0001:00051d60       ?set_keys_for_scanning@ha_heap@@QAEXXZ 00452d60 f   ha_heap.obj
 0001:00051df0       ?update_key_stats@ha_heap@@AAEXXZ 00452df0 f   ha_heap.obj
 0001:00051f20       ?write_row@ha_heap@@UAEHPAE@Z 00452f20 f   ha_heap.obj
 0001:00052030       ?update_row@ha_heap@@UAEHPBEPAE@Z 00453030 f   ha_heap.obj
 0001:00052110       ?delete_row@ha_heap@@UAEHPBE@Z 00453110 f   ha_heap.obj
 0001:000521e0       ?index_read@ha_heap@@UAEHPAEPBEIW4ha_rkey_function@@@Z 004531e0 f   ha_heap.obj
 0001:000522a0       ?index_read_last@ha_heap@@UAEHPAEPBEI@Z 004532a0 f   ha_heap.obj
 0001:00052360       ?index_read_idx@ha_heap@@UAEHPAEIPBEIW4ha_rkey_function@@@Z 00453360 f   ha_heap.obj
 0001:000523f0       ?index_next@ha_heap@@UAEHPAE@Z 004533f0 f   ha_heap.obj
 0001:00052490       ?index_prev@ha_heap@@UAEHPAE@Z 00453490 f   ha_heap.obj
 0001:00052530       ?index_first@ha_heap@@UAEHPAE@Z 00453530 f   ha_heap.obj
 0001:000525e0       ?index_last@ha_heap@@UAEHPAE@Z 004535e0 f   ha_heap.obj
 0001:00052690       ?rnd_init@ha_heap@@UAEHH@Z 00453690 f   ha_heap.obj
 0001:000526e0       ?rnd_next@ha_heap@@UAEHPAE@Z 004536e0 f   ha_heap.obj
 0001:00052760       ?rnd_pos@ha_heap@@UAEHPAE0@Z 00453760 f   ha_heap.obj
 0001:00052830       ?position@ha_heap@@UAEXPBE@Z 00453830 f   ha_heap.obj
 0001:00052870       ?info@ha_heap@@UAEHI@Z     00453870 f   ha_heap.obj
 0001:00052990       ?extra@ha_heap@@UAEHW4ha_extra_function@@@Z 00453990 f   ha_heap.obj
 0001:000529d0       ?delete_all_rows@ha_heap@@UAEHXZ 004539d0 f   ha_heap.obj
 0001:00052a30       ?external_lock@ha_heap@@UAEHPAVTHD@@H@Z 00453a30 f   ha_heap.obj
 0001:00052a50       ?disable_indexes@ha_heap@@UAEHI@Z 00453a50 f   ha_heap.obj
 0001:00052ab0       ?enable_indexes@ha_heap@@UAEHI@Z 00453ab0 f   ha_heap.obj
 0001:00052b10       ?indexes_are_disabled@ha_heap@@UAEHXZ 00453b10 f   ha_heap.obj
 0001:00052b40       ?store_lock@ha_heap@@UAEPAPAUst_thr_lock_data@@PAVTHD@@PAPAU2@W4thr_lock_type@@@Z 00453b40 f   ha_heap.obj
 0001:00052ba0       ?delete_table@ha_heap@@UAEHPBD@Z 00453ba0 f   ha_heap.obj
 0001:00052c50       ?rename_table@ha_heap@@UAEHPBD0@Z 00453c50 f   ha_heap.obj
 0001:00052c80       ?records_in_range@ha_heap@@UAEKIPAUst_key_range@@0@Z 00453c80 f   ha_heap.obj
 0001:00052d80       ?create@ha_heap@@UAEHPBDPAUst_table@@PAUst_ha_create_information@@@Z 00453d80 f   ha_heap.obj
 0001:00053400       ?update_create_info@ha_heap@@UAEXPAUst_ha_create_information@@@Z 00454400 f   ha_heap.obj
 0001:00053470       ?get_auto_increment@ha_heap@@UAE_KXZ 00454470 f   ha_heap.obj
 0001:00053b20       ??0?$Bitmap@$0EA@@@QAE@XZ  00454b20 f i ha_heap.obj
 0001:00053b40       ?table_type@ha_heap@@UBEPBDXZ 00454b40 f i ha_heap.obj
 0001:00053ba0       ?index_type@ha_heap@@UAEPBDI@Z 00454ba0 f i ha_heap.obj
 0001:00053c00       ?get_row_type@ha_heap@@UBE?AW4row_type@@XZ 00454c00 f i ha_heap.obj
 0001:00053c20       ?table_flags@ha_heap@@UBEKXZ 00454c20 f i ha_heap.obj
 0001:00053c40       ?index_flags@ha_heap@@UBEKIIH@Z 00454c40 f i ha_heap.obj
 0001:00053c90       ?keys_to_use_for_scanning@ha_heap@@UAEPBV?$Bitmap@$0EA@@@XZ 00454c90 f i ha_heap.obj
 0001:00053cb0       ?max_supported_keys@ha_heap@@UBEIXZ 00454cb0 f i ha_heap.obj
 0001:00053cd0       ?max_supported_key_part_length@ha_heap@@UBEIXZ 00454cd0 f i ha_heap.obj
 0001:00053cf0       ?scan_time@ha_heap@@UAENXZ 00454cf0 f i ha_heap.obj
 0001:00053d50       ?read_time@ha_heap@@UAENIIK@Z 00454d50 f i ha_heap.obj
 0001:00053da0       ?cmp_ref@ha_heap@@UAEHPBE0@Z 00454da0 f i ha_heap.obj
 0001:00053de0       ??_Gha_heap@@UAEPAXI@Z     00454de0 f i ha_heap.obj
 0001:00053de0       ??_Eha_heap@@UAEPAXI@Z     00454de0 f i ha_heap.obj
 0001:00053e40       ??1ha_heap@@UAE@XZ         00454e40 f i ha_heap.obj
 0001:00053e80       ??0st_ha_create_information@@QAE@XZ 00454e80 f i ha_heap.obj
 0001:00053ec0       ??0st_sql_list@@QAE@XZ     00454ec0 f i ha_heap.obj
 0001:00053ee0       ?set_bit@?$Bitmap@$0EA@@@QAEXI@Z 00454ee0 f i ha_heap.obj
 0001:00053f30       ?clear_all@?$Bitmap@$0EA@@@QAEXXZ 00454f30 f i ha_heap.obj
 0001:00053f60       ?table2myisam@@YAHPAUst_table@@PAPAUst_mi_keydef@@PAPAUst_columndef@@PAI@Z 00454f60 f   ha_myisam.obj
 0001:00054960       ?check_definition@@YAHPAUst_mi_keydef@@PAUst_columndef@@II01IIH@Z 00455960 f   ha_myisam.obj
 0001:000551f0       _killed_ptr                004561f0 f   ha_myisam.obj
 0001:00055210       _mi_check_print_error      00456210 f   ha_myisam.obj
 0001:000554a0       _mi_check_print_info       004564a0 f   ha_myisam.obj
 0001:000554e0       _mi_check_print_warning    004564e0 f   ha_myisam.obj
 0001:00055540       ??0ha_myisam@@QAE@PAUst_table@@@Z 00456540 f   ha_myisam.obj
 0001:000555b0       ?clone@ha_myisam@@UAEPAVhandler@@PAUst_mem_root@@@Z 004565b0 f   ha_myisam.obj
 0001:00055610       ?bas_ext@ha_myisam@@UBEPAPBDXZ 00456610 f   ha_myisam.obj
 0001:00055630       ?index_type@ha_myisam@@UAEPBDI@Z 00456630 f   ha_myisam.obj
 0001:000556d0       ?net_read_dump@ha_myisam@@UAEHPAUst_net@@@Z 004566d0 f   ha_myisam.obj
 0001:00055790       ?dump@ha_myisam@@UAEHPAVTHD@@H@Z 00456790 f   ha_myisam.obj
 0001:000559a0       ?open@ha_myisam@@UAEHPBDHI@Z 004569a0 f   ha_myisam.obj
 0001:00055ad0       ?close@ha_myisam@@UAEHXZ   00456ad0 f   ha_myisam.obj
 0001:00055b20       ?write_row@ha_myisam@@UAEHPAE@Z 00456b20 f   ha_myisam.obj
 0001:00055bd0       ?check@ha_myisam@@UAEHPAVTHD@@PAUst_ha_check_opt@@@Z 00456bd0 f   ha_myisam.obj
 0001:00056180       ?analyze@ha_myisam@@UAEHPAVTHD@@PAUst_ha_check_opt@@@Z 00457180 f   ha_myisam.obj
 0001:00056380       ?restore@ha_myisam@@UAEHPAVTHD@@PAUst_ha_check_opt@@@Z 00457380 f   ha_myisam.obj
 0001:00056690       ?backup@ha_myisam@@UAEHPAVTHD@@PAUst_ha_check_opt@@@Z 00457690 f   ha_myisam.obj
 0001:000569e0       ?repair@ha_myisam@@UAEHPAVTHD@@PAUst_ha_check_opt@@@Z 004579e0 f   ha_myisam.obj
 0001:00056c60       ?optimize@ha_myisam@@UAEHPAVTHD@@PAUst_ha_check_opt@@@Z 00457c60 f   ha_myisam.obj
 0001:00056db0       ?repair@ha_myisam@@AAEHPAVTHD@@AAUst_mi_check_param@@H@Z 00457db0 f   ha_myisam.obj
 0001:000579c0       ?assign_to_keycache@ha_myisam@@UAEHPAVTHD@@PAUst_ha_check_opt@@@Z 004589c0 f   ha_myisam.obj
 0001:00057c50       ?preload_keys@ha_myisam@@UAEHPAVTHD@@PAUst_ha_check_opt@@@Z 00458c50 f   ha_myisam.obj
 0001:00057f60       ?disable_indexes@ha_myisam@@UAEHI@Z 00458f60 f   ha_myisam.obj
 0001:00057ff0       ?enable_indexes@ha_myisam@@UAEHI@Z 00458ff0 f   ha_myisam.obj
 0001:00058310       ?indexes_are_disabled@ha_myisam@@UAEHXZ 00459310 f   ha_myisam.obj
 0001:00058340       ?start_bulk_insert@ha_myisam@@UAEXK@Z 00459340 f   ha_myisam.obj
 0001:00058600       ?end_bulk_insert@ha_myisam@@UAEHXZ 00459600 f   ha_myisam.obj
 0001:000586a0       ?check_and_repair@ha_myisam@@UAEHPAVTHD@@@Z 004596a0 f   ha_myisam.obj
 0001:00058970       ?is_crashed@ha_myisam@@UBEHXZ 00459970 f   ha_myisam.obj
 0001:000589e0       ?update_row@ha_myisam@@UAEHPBEPAE@Z 004599e0 f   ha_myisam.obj
 0001:00058a60       ?delete_row@ha_myisam@@UAEHPBE@Z 00459a60 f   ha_myisam.obj
 0001:00058ac0       ?index_read@ha_myisam@@UAEHPAEPBEIW4ha_rkey_function@@@Z 00459ac0 f   ha_myisam.obj
 0001:00058b80       ?index_read_idx@ha_myisam@@UAEHPAEIPBEIW4ha_rkey_function@@@Z 00459b80 f   ha_myisam.obj
 0001:00058c10       ?index_read_last@ha_myisam@@UAEHPAEPBEI@Z 00459c10 f   ha_myisam.obj
 0001:00058cd0       ?index_next@ha_myisam@@UAEHPAE@Z 00459cd0 f   ha_myisam.obj
 0001:00058d80       ?index_prev@ha_myisam@@UAEHPAE@Z 00459d80 f   ha_myisam.obj
 0001:00058e30       ?index_first@ha_myisam@@UAEHPAE@Z 00459e30 f   ha_myisam.obj
 0001:00058ee0       ?index_last@ha_myisam@@UAEHPAE@Z 00459ee0 f   ha_myisam.obj
 0001:00058f90       ?index_next_same@ha_myisam@@UAEHPAEPBEI@Z 00459f90 f   ha_myisam.obj
 0001:00059030       ?rnd_init@ha_myisam@@UAEHH@Z 0045a030 f   ha_myisam.obj
 0001:00059080       ?rnd_next@ha_myisam@@UAEHPAE@Z 0045a080 f   ha_myisam.obj
 0001:00059100       ?restart_rnd_next@ha_myisam@@UAEHPAE0@Z 0045a100 f   ha_myisam.obj
 0001:00059140       ?rnd_pos@ha_myisam@@UAEHPAE0@Z 0045a140 f   ha_myisam.obj
 0001:000591e0       ?position@ha_myisam@@UAEXPBE@Z 0045a1e0 f   ha_myisam.obj
 0001:00059250       ?info@ha_myisam@@UAEHI@Z   0045a250 f   ha_myisam.obj
 0001:000595a0       ?extra@ha_myisam@@UAEHW4ha_extra_function@@@Z 0045a5a0 f   ha_myisam.obj
 0001:000595f0       ?extra_opt@ha_myisam@@UAEHW4ha_extra_function@@K@Z 0045a5f0 f   ha_myisam.obj
 0001:00059640       ?delete_all_rows@ha_myisam@@UAEHXZ 0045a640 f   ha_myisam.obj
 0001:00059670       ?delete_table@ha_myisam@@UAEHPBD@Z 0045a670 f   ha_myisam.obj
 0001:000596a0       ?external_lock@ha_myisam@@UAEHPAVTHD@@H@Z 0045a6a0 f   ha_myisam.obj
 0001:00059700       ?store_lock@ha_myisam@@UAEPAPAUst_thr_lock_data@@PAVTHD@@PAPAU2@W4thr_lock_type@@@Z 0045a700 f   ha_myisam.obj
 0001:00059760       ?update_create_info@ha_myisam@@UAEXPAUst_ha_create_information@@@Z 0045a760 f   ha_myisam.obj
 0001:00059800       ?create@ha_myisam@@UAEHPBDPAUst_table@@PAUst_ha_create_information@@@Z 0045a800 f   ha_myisam.obj
 0001:00059c20       ?rename_table@ha_myisam@@UAEHPBD0@Z 0045ac20 f   ha_myisam.obj
 0001:00059c50       ?get_auto_increment@ha_myisam@@UAE_KXZ 0045ac50 f   ha_myisam.obj
 0001:00059e10       ?records_in_range@ha_myisam@@UAEKIPAUst_key_range@@0@Z 0045ae10 f   ha_myisam.obj
 0001:00059e50       ?ft_read@ha_myisam@@UAEHPAE@Z 0045ae50 f   ha_myisam.obj
 0001:00059ef0       ?checksum@ha_myisam@@UBEIXZ 0045aef0 f   ha_myisam.obj
 0001:00059f20       ?register_query_cache_table@ha_myisam@@UAEDPAVTHD@@PADIPAP6AD01IPA_K@Z2@Z 0045af20 f   ha_myisam.obj
 0001:0005b7b0       ?vio_ok@THD@@QBEHXZ        0045c7b0 f i ha_myisam.obj
 0001:0005b7e0       ?table_type@ha_myisam@@UBEPBDXZ 0045c7e0 f i ha_myisam.obj
 0001:0005b800       ?table_flags@ha_myisam@@UBEKXZ 0045c800 f i ha_myisam.obj
 0001:0005b830       ?index_flags@ha_myisam@@UBEKIIH@Z 0045c830 f i ha_myisam.obj
 0001:0005b870       ?max_supported_keys@ha_myisam@@UBEIXZ 0045c870 f i ha_myisam.obj
 0001:0005b890       ?max_supported_key_length@ha_myisam@@UBEIXZ 0045c890 f i ha_myisam.obj
 0001:0005b8b0       ?max_supported_key_part_length@ha_myisam@@UBEIXZ 0045c8b0 f i ha_myisam.obj
 0001:0005b8d0       ?ft_init@ha_myisam@@UAEHXZ 0045c8d0 f i ha_myisam.obj
 0001:0005b940       ?ft_init_ext@ha_myisam@@UAEPAUst_ft_info@@IIPAVString@@@Z 0045c940 f i ha_myisam.obj
 0001:0005b9c0       ?auto_repair@ha_myisam@@UBEHXZ 0045c9c0 f i ha_myisam.obj
 0001:0005b9f0       ??_Eha_myisam@@UAEPAXI@Z   0045c9f0 f i ha_myisam.obj
 0001:0005b9f0       ??_Gha_myisam@@UAEPAXI@Z   0045c9f0 f i ha_myisam.obj
 0001:0005ba50       ??1ha_myisam@@UAE@XZ       0045ca50 f i ha_myisam.obj
 0001:0005ba90       ?to_ulonglong@?$Bitmap@$0EA@@@QBE_KXZ 0045ca90 f i ha_myisam.obj
 0001:0005bab0       ?is_clear_all@?$Bitmap@$0EA@@@QBEDXZ 0045cab0 f i ha_myisam.obj
 0001:0005bb10       ?is_set_all@?$Bitmap@$0EA@@@QBEDXZ 0045cb10 f i ha_myisam.obj
 0001:0005bb70       ?clear_error@THD@@QAEXXZ   0045cb70 f i ha_myisam.obj
 0001:0005bbc0       ?intersect@?$Bitmap@$0EA@@@QAEXAAV1@@Z 0045cbc0 f i ha_myisam.obj
 0001:0005bc00       ?intersect_extended@?$Bitmap@$0EA@@@QAEX_K@Z 0045cc00 f i ha_myisam.obj
 0001:0005bc40       ?val_int_offset@Field@@QAE_JI@Z 0045cc40 f i ha_myisam.obj
 0001:0005bcd0       ??0ha_myisammrg@@QAE@PAUst_table@@@Z 0045ccd0 f   ha_myisammrg.obj
 0001:0005bd20       _myrg_print_wrong_table    0045cd20 f   ha_myisammrg.obj
 0001:0005be30       ?bas_ext@ha_myisammrg@@UBEPAPBDXZ 0045ce30 f   ha_myisammrg.obj
 0001:0005be50       ?index_type@ha_myisammrg@@UAEPBDI@Z 0045ce50 f   ha_myisammrg.obj
 0001:0005bef0       ?open@ha_myisammrg@@UAEHPBDHI@Z 0045cef0 f   ha_myisammrg.obj
 0001:0005c330       ?close@ha_myisammrg@@UAEHXZ 0045d330 f   ha_myisammrg.obj
 0001:0005c360       ?write_row@ha_myisammrg@@UAEHPAE@Z 0045d360 f   ha_myisammrg.obj
 0001:0005c440       ?update_row@ha_myisammrg@@UAEHPBEPAE@Z 0045d440 f   ha_myisammrg.obj
 0001:0005c4c0       ?delete_row@ha_myisammrg@@UAEHPBE@Z 0045d4c0 f   ha_myisammrg.obj
 0001:0005c520       ?index_read@ha_myisammrg@@UAEHPAEPBEIW4ha_rkey_function@@@Z 0045d520 f   ha_myisammrg.obj
 0001:0005c5b0       ?index_read_idx@ha_myisammrg@@UAEHPAEIPBEIW4ha_rkey_function@@@Z 0045d5b0 f   ha_myisammrg.obj
 0001:0005c640       ?index_read_last@ha_myisammrg@@UAEHPAEPBEI@Z 0045d640 f   ha_myisammrg.obj
 0001:0005c6d0       ?index_next@ha_myisammrg@@UAEHPAE@Z 0045d6d0 f   ha_myisammrg.obj
 0001:0005c760       ?index_prev@ha_myisammrg@@UAEHPAE@Z 0045d760 f   ha_myisammrg.obj
 0001:0005c7f0       ?index_first@ha_myisammrg@@UAEHPAE@Z 0045d7f0 f   ha_myisammrg.obj
 0001:0005c880       ?index_last@ha_myisammrg@@UAEHPAE@Z 0045d880 f   ha_myisammrg.obj
 0001:0005c910       ?index_next_same@ha_myisammrg@@UAEHPAEPBEI@Z 0045d910 f   ha_myisammrg.obj
 0001:0005c990       ?rnd_init@ha_myisammrg@@UAEHH@Z 0045d990 f   ha_myisammrg.obj
 0001:0005c9d0       ?rnd_next@ha_myisammrg@@UAEHPAE@Z 0045d9d0 f   ha_myisammrg.obj
 0001:0005ca50       ?rnd_pos@ha_myisammrg@@UAEHPAE0@Z 0045da50 f   ha_myisammrg.obj
 0001:0005caf0       ?position@ha_myisammrg@@UAEXPBE@Z 0045daf0 f   ha_myisammrg.obj
 0001:0005cb60       ?records_in_range@ha_myisammrg@@UAEKIPAUst_key_range@@0@Z 0045db60 f   ha_myisammrg.obj
 0001:0005cba0       ?info@ha_myisammrg@@UAEHI@Z 0045dba0 f   ha_myisammrg.obj
 0001:0005cd90       ?extra@ha_myisammrg@@UAEHW4ha_extra_function@@@Z 0045dd90 f   ha_myisammrg.obj
 0001:0005cde0       ?extra_opt@ha_myisammrg@@UAEHW4ha_extra_function@@K@Z 0045dde0 f   ha_myisammrg.obj
 0001:0005ce30       ?external_lock@ha_myisammrg@@UAEHPAVTHD@@H@Z 0045de30 f   ha_myisammrg.obj
 0001:0005ce70       ?lock_count@ha_myisammrg@@UBEIXZ 0045de70 f   ha_myisammrg.obj
 0001:0005ce90       ?store_lock@ha_myisammrg@@UAEPAPAUst_thr_lock_data@@PAVTHD@@PAPAU2@W4thr_lock_type@@@Z 0045de90 f   ha_myisammrg.obj
 0001:0005d020       ?update_create_info@ha_myisammrg@@UAEXPAUst_ha_create_information@@@Z 0045e020 f   ha_myisammrg.obj
 0001:0005d290       ?create@ha_myisammrg@@UAEHPBDPAUst_table@@PAUst_ha_create_information@@@Z 0045e290 f   ha_myisammrg.obj
 0001:0005d600       ?append_create_info@ha_myisammrg@@UAEXPAVString@@@Z 0045e600 f   ha_myisammrg.obj
 0001:0005d7b0       ?check@ha_myisammrg@@UAEHPAVTHD@@PAUst_ha_check_opt@@@Z 0045e7b0 f   ha_myisammrg.obj
 0001:0005de90       ?table_type@ha_myisammrg@@UBEPBDXZ 0045ee90 f i ha_myisammrg.obj
 0001:0005deb0       ?table_flags@ha_myisammrg@@UBEKXZ 0045eeb0 f i ha_myisammrg.obj
 0001:0005ded0       ?index_flags@ha_myisammrg@@UBEKIIH@Z 0045eed0 f i ha_myisammrg.obj
 0001:0005df10       ?max_supported_keys@ha_myisammrg@@UBEIXZ 0045ef10 f i ha_myisammrg.obj
 0001:0005df30       ?max_supported_key_length@ha_myisammrg@@UBEIXZ 0045ef30 f i ha_myisammrg.obj
 0001:0005df50       ?max_supported_key_part_length@ha_myisammrg@@UBEIXZ 0045ef50 f i ha_myisammrg.obj
 0001:0005df70       ?scan_time@ha_myisammrg@@UAENXZ 0045ef70 f i ha_myisammrg.obj
 0001:0005dff0       ??_Eha_myisammrg@@UAEPAXI@Z 0045eff0 f i ha_myisammrg.obj
 0001:0005dff0       ??_Gha_myisammrg@@UAEPAXI@Z 0045eff0 f i ha_myisammrg.obj
 0001:0005e050       ??1ha_myisammrg@@UAE@XZ    0045f050 f i ha_myisammrg.obj
 0001:0005e090       ?calloc@Query_arena@@QAEPADI@Z 0045f090 f i ha_myisammrg.obj
 0001:0005e100       ?strmake@Query_arena@@QAEPADPBDI@Z 0045f100 f i ha_myisammrg.obj
 0001:0005e150       ?alloc@Query_arena@@QAEPADI@Z 0045f150 f i ha_myisammrg.obj
 0001:0005e190       ?innobase_release_temporary_latches@@YAXPAVTHD@@@Z 0045f190 f   ha_innodb.obj
 0001:0005e1e0       _innobase_mysql_prepare_print_arbitrary_thd 0045f1e0 f   ha_innodb.obj
 0001:0005e210       _innobase_mysql_end_print_arbitrary_thd 0045f210 f   ha_innodb.obj
 0001:0005e240       _innobase_mysql_print_thd  0045f240 f   ha_innodb.obj
 0001:0005e4b0       _innobase_get_cset_width   0045f4b0 f   ha_innodb.obj
 0001:0005e570       _innobase_strcasecmp       0045f570 f   ha_innodb.obj
 0001:0005e5b0       _innobase_casedn_str       0045f5b0 f   ha_innodb.obj
 0001:0005e5f0       _innobase_mysql_tmpfile    0045f5f0 f   ha_innodb.obj
 0001:0005e740       ??0ha_innobase@@QAE@PAUst_table@@@Z 0045f740 f   ha_innodb.obj
 0001:0005e7b0       ?innobase_query_caching_of_table_permitted@@YADPAVTHD@@PADIPA_K@Z 0045f7b0 f   ha_innodb.obj
 0001:0005eb90       _innobase_invalidate_query_cache 0045fb90 f   ha_innodb.obj
 0001:0005ebc0       _mysql_get_identifier_quote_char 0045fbc0 f   ha_innodb.obj
 0001:0005ec00       _trx_is_interrupted        0045fc00 f   ha_innodb.obj
 0001:0005ec70       _innobase_current_thd      0045fc70 f   ha_innodb.obj
 0001:0005ec90       ?init_table_handle_for_HANDLER@ha_innobase@@UAEXXZ 0045fc90 f   ha_innodb.obj
 0001:0005ed80       ?innobase_init@@YAHXZ      0045fd80 f   ha_innodb.obj
 0001:0005f480       ?innobase_end@@YAHXZ       00460480 f   ha_innodb.obj
 0001:0005f620       ?innobase_flush_logs@@YAHXZ 00460620 f   ha_innodb.obj
 0001:0005f710       ?innobase_commit_low@@YAXPAUtrx_struct@@@Z 00460710 f   ha_innodb.obj
 0001:0005f790       ?innobase_start_trx_and_assign_read_view@@YAHPAVTHD@@@Z 00460790 f   ha_innodb.obj
 0001:0005fbf0       ?innobase_report_binlog_offset_and_commit@@YAHPAVTHD@@PAXPAD_K@Z 00460bf0 f   ha_innodb.obj
 0001:0005fcc0       ?innobase_commit_complete@@YAHPAVTHD@@@Z 00460cc0 f   ha_innodb.obj
 0001:00060040       ?innobase_rollback_trx@@YAHPAUtrx_struct@@@Z 00461040 f   ha_innodb.obj
 0001:00060740       ?get_row_type@ha_innobase@@UBE?AW4row_type@@XZ 00461740 f   ha_innodb.obj
 0001:000607a0       ?bas_ext@ha_innobase@@UBEPAPBDXZ 004617a0 f   ha_innodb.obj
 0001:000607c0       ?open@ha_innobase@@UAEHPBDHI@Z 004617c0 f   ha_innodb.obj
 0001:00060df0       ?max_supported_key_part_length@ha_innobase@@UBEIXZ 00461df0 f   ha_innodb.obj
 0001:00060e10       ?close@ha_innobase@@UAEHXZ 00461e10 f   ha_innodb.obj
 0001:00060f60       _innobase_mysql_cmp        00461f60 f   ha_innodb.obj
 0001:00061210       ?store_key_val_for_row@ha_innobase@@AAEIIPADIPBE@Z 00462210 f   ha_innodb.obj
 0001:00061970       ?write_row@ha_innobase@@UAEHPAE@Z 00462970 f   ha_innodb.obj
 0001:000623c0       ?update_row@ha_innobase@@UAEHPBEPAE@Z 004633c0 f   ha_innodb.obj
 0001:00062a70       ?delete_row@ha_innobase@@UAEHPBE@Z 00463a70 f   ha_innodb.obj
 0001:00062c50       ?unlock_row@ha_innobase@@UAEXXZ 00463c50 f   ha_innodb.obj
 0001:00062e20       ?index_init@ha_innobase@@UAEHI@Z 00463e20 f   ha_innodb.obj
 0001:00062f20       ?index_end@ha_innobase@@UAEHXZ 00463f20 f   ha_innodb.obj
 0001:00063020       ?index_read@ha_innobase@@UAEHPAEPBEIW4ha_rkey_function@@@Z 00464020 f   ha_innodb.obj
 0001:00063340       ?index_read_last@ha_innobase@@UAEHPAEPBEI@Z 00464340 f   ha_innodb.obj
 0001:00063390       ?change_active_index@ha_innobase@@AAEHI@Z 00464390 f   ha_innodb.obj
 0001:000635f0       ?index_read_idx@ha_innobase@@UAEHPAEIPBEIW4ha_rkey_function@@@Z 004645f0 f   ha_innodb.obj
 0001:00063650       ?general_fetch@ha_innobase@@AAEHPAEII@Z 00464650 f   ha_innodb.obj
 0001:00063810       ?index_next@ha_innobase@@UAEHPAE@Z 00464810 f   ha_innodb.obj
 0001:00063860       ?index_next_same@ha_innobase@@UAEHPAEPBEI@Z 00464860 f   ha_innodb.obj
 0001:000638c0       ?index_prev@ha_innobase@@UAEHPAE@Z 004648c0 f   ha_innodb.obj
 0001:00063910       ?index_first@ha_innobase@@UAEHPAE@Z 00464910 f   ha_innodb.obj
 0001:00063a40       ?index_last@ha_innobase@@UAEHPAE@Z 00464a40 f   ha_innodb.obj
 0001:00063b70       ?rnd_init@ha_innobase@@UAEHH@Z 00464b70 f   ha_innodb.obj
 0001:00063bf0       ?rnd_end@ha_innobase@@UAEHXZ 00464bf0 f   ha_innodb.obj
 0001:00063c30       ?rnd_next@ha_innobase@@UAEHPAE@Z 00464c30 f   ha_innodb.obj
 0001:00063d90       ?rnd_pos@ha_innobase@@UAEHPAE0@Z 00464d90 f   ha_innodb.obj
 0001:00063fd0       ?position@ha_innobase@@UAEXPBE@Z 00464fd0 f   ha_innodb.obj
 0001:00064090       ?update_create_info@ha_innobase@@UAEXPAUst_ha_create_information@@@Z 00465090 f   ha_innodb.obj
 0001:000640e0       ?create@ha_innobase@@UAEHPBDPAUst_table@@PAUst_ha_create_information@@@Z 004650e0 f   ha_innodb.obj
 0001:00064ea0       ?discard_or_import_tablespace@ha_innobase@@UAEHD@Z 00465ea0 f   ha_innodb.obj
 0001:000650f0       ?delete_all_rows@ha_innobase@@UAEHXZ 004660f0 f   ha_innodb.obj
 0001:00065260       ?delete_table@ha_innobase@@UAEHPBD@Z 00466260 f   ha_innodb.obj
 0001:00065510       ?innobase_drop_database@@YAHPAD@Z 00466510 f   ha_innodb.obj
 0001:000656c0       ?rename_table@ha_innobase@@UAEHPBD0@Z 004666c0 f   ha_innodb.obj
 0001:00065970       ?records_in_range@ha_innobase@@UAEKIPAUst_key_range@@0@Z 00466970 f   ha_innodb.obj
 0001:00065d40       ?estimate_rows_upper_bound@ha_innobase@@UAEKXZ 00466d40 f   ha_innodb.obj
 0001:00065ec0       ?scan_time@ha_innobase@@UAENXZ 00466ec0 f   ha_innodb.obj
 0001:00065f10       ?read_time@ha_innobase@@UAENIIK@Z 00466f10 f   ha_innodb.obj
 0001:00066000       ?info@ha_innobase@@UAEHI@Z 00467000 f   ha_innodb.obj
 0001:00066690       ?analyze@ha_innobase@@UAEHPAVTHD@@PAUst_ha_check_opt@@@Z 00467690 f   ha_innodb.obj
 0001:000666d0       ?optimize@ha_innobase@@UAEHPAVTHD@@PAUst_ha_check_opt@@@Z 004676d0 f   ha_innodb.obj
 0001:000666f0       ?check@ha_innobase@@UAEHPAVTHD@@PAUst_ha_check_opt@@@Z 004676f0 f   ha_innodb.obj
 0001:00066860       ?update_table_comment@ha_innobase@@UAEPADPBD@Z 00467860 f   ha_innodb.obj
 0001:00066a60       ?get_foreign_key_create_info@ha_innobase@@UAEPADXZ 00467a60 f   ha_innodb.obj
 0001:00066c10       ?get_foreign_key_list@ha_innobase@@UAEHPAVTHD@@PAV?$List@Ust_foreign_key_info@@@@@Z 00467c10 f   ha_innodb.obj
 0001:00067060       ?can_switch_engines@ha_innobase@@UAEHXZ 00468060 f   ha_innodb.obj
 0001:000671c0       ?referenced_by_foreign_key@ha_innobase@@UAEIXZ 004681c0 f   ha_innodb.obj
 0001:00067210       ?free_foreign_key_create_info@ha_innobase@@UAEXPAD@Z 00468210 f   ha_innodb.obj
 0001:00067250       ?extra@ha_innobase@@UAEHW4ha_extra_function@@@Z 00468250 f   ha_innodb.obj
 0001:000673b0       ?start_stmt@ha_innobase@@UAEHPAVTHD@@W4thr_lock_type@@@Z 004683b0 f   ha_innodb.obj
 0001:000674c0       ?external_lock@ha_innobase@@UAEHPAVTHD@@H@Z 004684c0 f   ha_innodb.obj
 0001:000678e0       ?transactional_table_lock@ha_innobase@@QAEHPAVTHD@@H@Z 004688e0 f   ha_innodb.obj
 0001:00067c00       ?innodb_export_status@@YAXXZ 00468c00 f   ha_innodb.obj
 0001:00067c20       ?innodb_show_status@@YAHPAVTHD@@@Z 00468c20 f   ha_innodb.obj
 0001:00068120       ?innodb_mutex_show_status@@YAHPAVTHD@@@Z 00469120 f   ha_innodb.obj
 0001:00068640       ?store_lock@ha_innobase@@UAEPAPAUst_thr_lock_data@@PAVTHD@@PAPAU2@W4thr_lock_type@@@Z 00469640 f   ha_innodb.obj
 0001:00068870       ?innobase_read_and_init_auto_inc@ha_innobase@@AAEHPA_J@Z 00469870 f   ha_innodb.obj
 0001:00068c40       ?get_auto_increment@ha_innobase@@UAE_KXZ 00469c40 f   ha_innodb.obj
 0001:00068ce0       ?reset_auto_increment@ha_innobase@@UAEH_K@Z 00469ce0 f   ha_innodb.obj
 0001:00068e40       ?get_error_message@ha_innobase@@UAEHHPAVString@@@Z 00469e40 f   ha_innodb.obj
 0001:00068eb0       ?cmp_ref@ha_innobase@@UAEHPBE0@Z 00469eb0 f   ha_innodb.obj
 0001:00069060       ?get_mysql_bin_log_name@ha_innobase@@SAPADXZ 0046a060 f   ha_innodb.obj
 0001:00069070       ?get_mysql_bin_log_pos@ha_innobase@@SA_KXZ 0046a070 f   ha_innodb.obj
 0001:00069080       _innobase_get_at_most_n_mbchars 0046a080 f   ha_innodb.obj
 0001:00069130       _innobase_query_is_update  0046a130 f   ha_innodb.obj
 0001:000691c0       ?innobase_xa_prepare@@YAHPAVTHD@@H@Z 0046a1c0 f   ha_innodb.obj
 0001:00069300       ?innobase_xa_recover@@YAHPAUxid_t@@I@Z 0046a300 f   ha_innodb.obj
 0001:00069330       ?innobase_commit_by_xid@@YAHPAUxid_t@@@Z 0046a330 f   ha_innodb.obj
 0001:00069380       ?innobase_rollback_by_xid@@YAHPAUxid_t@@@Z 0046a380 f   ha_innodb.obj
 0001:000693d0       ?innobase_create_cursor_view@@YAPAXXZ 0046a3d0 f   ha_innodb.obj
 0001:00069400       ?innobase_close_cursor_view@@YAXPAX@Z 0046a400 f   ha_innodb.obj
 0001:00069430       ?innobase_set_cursor_view@@YAXPAX@Z 0046a430 f   ha_innodb.obj
 0001:0006c110       ?innobase_release_stat_resources@@YAXPAUtrx_struct@@@Z 0046d110 f i ha_innodb.obj
 0001:0006c160       ?table_type@ha_innobase@@UBEPBDXZ 0046d160 f i ha_innodb.obj
 0001:0006c180       ?index_type@ha_innobase@@UAEPBDI@Z 0046d180 f i ha_innodb.obj
 0001:0006c1a0       ?table_flags@ha_innobase@@UBEKXZ 0046d1a0 f i ha_innodb.obj
 0001:0006c1d0       ?index_flags@ha_innobase@@UBEKIIH@Z 0046d1d0 f i ha_innodb.obj
 0001:0006c1f0       ?max_supported_keys@ha_innobase@@UBEIXZ 0046d1f0 f i ha_innodb.obj
 0001:0006c210       ?max_supported_key_length@ha_innobase@@UBEIXZ 0046d210 f i ha_innodb.obj
 0001:0006c230       ?keys_to_use_for_scanning@ha_innobase@@UAEPBV?$Bitmap@$0EA@@@XZ 0046d230 f i ha_innodb.obj
 0001:0006c250       ?has_transactions@ha_innobase@@UAEHXZ 0046d250 f i ha_innodb.obj
 0001:0006c270       ?table_cache_type@ha_innobase@@UAEEXZ 0046d270 f i ha_innodb.obj
 0001:0006c290       ?register_query_cache_table@ha_innobase@@UAEDPAVTHD@@PADIPAP6AD01IPA_K@Z2@Z 0046d290 f i ha_innodb.obj
 0001:0006c300       ?primary_key_is_clustered@ha_innobase@@UAEHXZ 0046d300 f i ha_innodb.obj
 0001:0006c320       ??_Gha_innobase@@UAEPAXI@Z 0046d320 f i ha_innodb.obj
 0001:0006c320       ??_Eha_innobase@@UAEPAXI@Z 0046d320 f i ha_innodb.obj
 0001:0006c380       ??1ha_innobase@@UAE@XZ     0046d380 f i ha_innodb.obj
 0001:0006c3c0       ?innobase_register_trx_and_stmt@@YAXPAVTHD@@@Z 0046d3c0 f i ha_innodb.obj
 0001:0006c440       ?innobase_register_stmt@@YAXPAVTHD@@@Z 0046d440 f i ha_innodb.obj
 0001:0006c470       ?update_thd@ha_innobase@@AAEHPAVTHD@@@Z 0046d470 f i ha_innodb.obj
 0001:0006c500       ?get_log_fname@MYSQL_LOG@@QAEPADXZ 0046d500 f i ha_innodb.obj
 0001:0006c520       ?get_log_file@MYSQL_LOG@@QAEPAUst_io_cache@@XZ 0046d520 f i ha_innodb.obj
 0001:0006c540       ?get_field_offset@@YAIPAUst_table@@PAVField@@@Z 0046d540 f i ha_innodb.obj
 0001:0006c560       ?innobase_write_to_2_little_endian@@YAXPAEK@Z 0046d560 f i ha_innodb.obj
 0001:0006c610       ?innodb_srv_conc_enter_innodb@@YAXPAUtrx_struct@@@Z 0046d610 f i ha_innodb.obj
 0001:0006c640       ?innodb_srv_conc_exit_innodb@@YAXPAUtrx_struct@@@Z 0046d640 f i ha_innodb.obj
 0001:0006c670       ?innobase_active_small@@YAXXZ 0046d670 f i ha_innodb.obj
 0001:0006c6b0       ?field_in_record_is_null@@YAIPAUst_table@@PAVField@@PAD@Z 0046d6b0 f i ha_innodb.obj
 0001:0006c710       ?convert_search_mode_to_innobase@@YAKW4ha_rkey_function@@@Z 0046d710 f i ha_innodb.obj
 0001:0006c7e0       ?charset@THD@@QAEPAUcharset_info_st@@XZ 0046d7e0 f i ha_innodb.obj
 0001:0006c810       ?get_innobase_type_from_mysql_type@@YAKPAKPAVField@@@Z 0046d810 f i ha_innodb.obj
 0001:0006cbf0       ?memdup@Query_arena@@QAEPADPBDI@Z 0046dbf0 f i ha_innodb.obj
 0001:0006cc40       ??0st_foreign_key_info@@QAE@XZ 0046dc40 f i ha_innodb.obj
 0001:0006cc90       ??1st_foreign_key_info@@QAE@XZ 0046dc90 f i ha_innodb.obj
 0001:0006ccd0       ??1?$List@Ust_lex_string@@@@QAE@XZ 0046dcd0 f i ha_innodb.obj
 0001:0006cd00       ??1base_list@@QAE@XZ       0046dd00 f i ha_innodb.obj
 0001:0006cd30       ?innobase_map_isolation_level@@YAKW4enum_tx_isolation@@@Z 0046dd30 f i ha_innodb.obj
 0001:0006ce20       ??0Item_empty_string@@QAE@PBDIPAUcharset_info_st@@@Z 0046de20 f i ha_innodb.obj
 0001:0006cee0       ??_EItem_empty_string@@UAEPAXI@Z 0046dee0 f i ha_innodb.obj
 0001:0006cee0       ??_GItem_empty_string@@UAEPAXI@Z 0046dee0 f i ha_innodb.obj
 0001:0006cf30       ??1Item_empty_string@@UAE@XZ 0046df30 f i ha_innodb.obj
 0001:0006cf60       ??1?$List@VItem@@@@QAE@XZ  0046df60 f i ha_innodb.obj
 0001:0006cf90       ?store@Protocol@@QAEH_K@Z  0046df90 f i ha_innodb.obj
 0001:0006cfe0       ?innobase_read_from_2_little_endian@@YAIPBE@Z 0046dfe0 f i ha_innodb.obj
 0001:0006d000       ??0?$List@Ust_lex_string@@@@QAE@XZ 0046e000 f i ha_innodb.obj
 0001:0006d030       ?push_back@?$List@Ust_lex_string@@@@QAEHPAUst_lex_string@@@Z 0046e030 f i ha_innodb.obj
 0001:0006d070       ??0?$List@VItem@@@@QAE@XZ  0046e070 f i ha_innodb.obj
 0001:0006d0a0       ?push_back@?$List@VItem@@@@QAEHPAVItem@@@Z 0046e0a0 f i ha_innodb.obj
 0001:0006d0e0       ?push_back@?$List@Ust_foreign_key_info@@@@QAEHPAUst_foreign_key_info@@@Z 0046e0e0 f i ha_innodb.obj
 0001:0006d120       ?federated_db_init@@YAHXZ  0046e120 f   ha_federated.obj
 0001:0006d2c0       ?federated_db_end@@YAHXZ   0046e2c0 f   ha_federated.obj
 0001:0006d310       ??0ha_federated@@QAE@PAUst_table@@@Z 0046e310 f   ha_federated.obj
 0001:0006d380       ?convert_row_to_internal_format@ha_federated@@AAEIPAEPAPADPAUst_mysql_res@@@Z 0046e380 f   ha_federated.obj
 0001:0006d550       ?create_where_from_key@ha_federated@@AAEHPAVString@@PAUst_key@@PBUst_key_range@@2H@Z 0046e550 f   ha_federated.obj
 0001:0006ec20       ?records_in_range@ha_federated@@UAEKIPAUst_key_range@@0@Z 0046fc20 f   ha_federated.obj
 0001:0006ed10       ?bas_ext@ha_federated@@UBEPAPBDXZ 0046fd10 f   ha_federated.obj
 0001:0006ed30       ?open@ha_federated@@UAEHPBDHI@Z 0046fd30 f   ha_federated.obj
 0001:0006fb00       ?close@ha_federated@@UAEHXZ 00470b00 f   ha_federated.obj
 0001:0006fdf0       ?append_stmt_insert@ha_federated@@AAEHPAVString@@@Z 00470df0 f   ha_federated.obj
 0001:00070120       ?write_row@ha_federated@@UAEHPAE@Z 00471120 f   ha_federated.obj
 0001:00070760       ?start_bulk_insert@ha_federated@@UAEXK@Z 00471760 f   ha_federated.obj
 0001:00070900       ?end_bulk_insert@ha_federated@@UAEHXZ 00471900 f   ha_federated.obj
 0001:00070a60       ?update_auto_increment@ha_federated@@QAEXXZ 00471a60 f   ha_federated.obj
 0001:00070ba0       ?optimize@ha_federated@@UAEHPAVTHD@@PAUst_ha_check_opt@@@Z 00471ba0 f   ha_federated.obj
 0001:00070dc0       ?repair@ha_federated@@UAEHPAVTHD@@PAUst_ha_check_opt@@@Z 00471dc0 f   ha_federated.obj
 0001:00071030       ?update_row@ha_federated@@UAEHPBEPAE@Z 00472030 f   ha_federated.obj
 0001:000715c0       ?delete_row@ha_federated@@UAEHPBE@Z 004725c0 f   ha_federated.obj
 0001:00071a60       ?index_read@ha_federated@@UAEHPAEPBEIW4ha_rkey_function@@@Z 00472a60 f   ha_federated.obj
 0001:00071b90       ?index_read_idx@ha_federated@@UAEHPAEIPBEIW4ha_rkey_function@@@Z 00472b90 f   ha_federated.obj
 0001:00071ce0       ?index_read_idx_with_result_set@ha_federated@@AAEHPAEIPBEIW4ha_rkey_function@@PAPAUst_mysql_res@@@Z 00472ce0 f   ha_federated.obj
 0001:00072110       ?index_init@ha_federated@@UAEHI@Z 00473110 f   ha_federated.obj
 0001:00072240       ?read_range_first@ha_federated@@UAEHPBUst_key_range@@0HH@Z 00473240 f   ha_federated.obj
 0001:00072540       ?read_range_next@ha_federated@@UAEHXZ 00473540 f   ha_federated.obj
 0001:00072650       ?index_next@ha_federated@@UAEHPAE@Z 00473650 f   ha_federated.obj
 0001:00072770       ?rnd_init@ha_federated@@UAEHH@Z 00473770 f   ha_federated.obj
 0001:00072900       ?rnd_end@ha_federated@@UAEHXZ 00473900 f   ha_federated.obj
 0001:00072a00       ?index_end@ha_federated@@UAEHXZ 00473a00 f   ha_federated.obj
 0001:00072b20       ?rnd_next@ha_federated@@UAEHPAE@Z 00473b20 f   ha_federated.obj
 0001:00072c50       ?read_next@ha_federated@@AAEHPAEPAUst_mysql_res@@@Z 00473c50 f   ha_federated.obj
 0001:00072db0       ?position@ha_federated@@UAEXPBE@Z 00473db0 f   ha_federated.obj
 0001:00072f00       ?rnd_pos@ha_federated@@UAEHPAE0@Z 00473f00 f   ha_federated.obj
 0001:00073090       ?info@ha_federated@@UAEHI@Z 00474090 f   ha_federated.obj
 0001:00073550       ?extra@ha_federated@@UAEHW4ha_extra_function@@@Z 00474550 f   ha_federated.obj
 0001:00073760       ?delete_all_rows@ha_federated@@UAEHXZ 00474760 f   ha_federated.obj
 0001:000739b0       ?store_lock@ha_federated@@UAEPAPAUst_thr_lock_data@@PAVTHD@@PAPAU2@W4thr_lock_type@@@Z 004749b0 f   ha_federated.obj
 0001:00073b00       ?create@ha_federated@@UAEHPBDPAUst_table@@PAUst_ha_create_information@@@Z 00474b00 f   ha_federated.obj
 0001:00073c50       ?real_connect@ha_federated@@AAEHXZ 00474c50 f   ha_federated.obj
 0001:000740f0       ?real_query@ha_federated@@AAEHPBDI@Z 004750f0 f   ha_federated.obj
 0001:00074230       ?stash_remote_error@ha_federated@@AAEHXZ 00475230 f   ha_federated.obj
 0001:000743d0       ?get_error_message@ha_federated@@UAEHHPAVString@@@Z 004753d0 f   ha_federated.obj
 0001:00076290       ?table_type@ha_federated@@UBEPBDXZ 00477290 f i ha_federated.obj
 0001:000762b0       ?index_type@ha_federated@@UAEPBDI@Z 004772b0 f i ha_federated.obj
 0001:000762d0       ?table_flags@ha_federated@@UBEKXZ 004772d0 f i ha_federated.obj
 0001:000762f0       ?index_flags@ha_federated@@UBEKIIH@Z 004772f0 f i ha_federated.obj
 0001:00076310       ?max_supported_record_length@ha_federated@@UBEIXZ 00477310 f i ha_federated.obj
 0001:00076330       ?max_supported_keys@ha_federated@@UBEIXZ 00477330 f i ha_federated.obj
 0001:00076350       ?max_supported_key_parts@ha_federated@@UBEIXZ 00477350 f i ha_federated.obj
 0001:00076370       ?max_supported_key_length@ha_federated@@UBEIXZ 00477370 f i ha_federated.obj
 0001:00076390       ?max_supported_key_part_length@ha_federated@@UBEIXZ 00477390 f i ha_federated.obj
 0001:000763b0       ?scan_time@ha_federated@@UAENXZ 004773b0 f i ha_federated.obj
 0001:00076450       ?read_time@ha_federated@@UAENIIK@Z 00477450 f i ha_federated.obj
 0001:000764a0       ?keys_to_use_for_scanning@ha_federated@@UAEPBV?$Bitmap@$0EA@@@XZ 004774a0 f i ha_federated.obj
 0001:000764c0       ?table_cache_type@ha_federated@@UAEEXZ 004774c0 f i ha_federated.obj
 0001:000764e0       ??_Eha_federated@@UAEPAXI@Z 004774e0 f i ha_federated.obj
 0001:000764e0       ??_Gha_federated@@UAEPAXI@Z 004774e0 f i ha_federated.obj
 0001:00076540       ??1ha_federated@@UAE@XZ    00477540 f i ha_federated.obj
 0001:00076580       ?reserve@String@@QAEHK@Z   00477580 f i ha_federated.obj
 0001:000765c0       ?val_str@Field@@QAEPAVString@@PAV2@PAD@Z 004775c0 f i ha_federated.obj
 0001:00076630       ?insert_id@THD@@QAEX_K@Z   00477630 f i ha_federated.obj
 0001:00076690       ?ha_resolve_by_name@@YA?AW4db_type@@PBDI@Z 00477690 f   handler.obj
 0001:000767f0       ?ha_get_storage_engine@@YAPBDW4db_type@@@Z 004777f0 f   handler.obj
 0001:00076840       ?ha_check_storage_engine_flag@@YAHW4db_type@@K@Z 00477840 f   handler.obj
 0001:00076890       ?ha_storage_engine_is_enabled@@YADW4db_type@@@Z 00477890 f   handler.obj
 0001:000768e0       ?ha_checktype@@YA?AW4db_type@@PAVTHD@@W41@HH@Z 004778e0 f   handler.obj
 0001:000769b0       ?get_new_handler@@YAPAVhandler@@PAUst_table@@PAUst_mem_root@@W4db_type@@@Z 004779b0 f   handler.obj
 0001:00076c90       ?ha_init@@YAHXZ            00477c90 f   handler.obj
 0001:000770b0       ?ha_panic@@YAHW4ha_panic_function@@@Z 004780b0 f   handler.obj
 0001:000771c0       ?ha_drop_database@@YAXPAD@Z 004781c0 f   handler.obj
 0001:000771f0       ?ha_close_connection@@YAXPAVTHD@@@Z 004781f0 f   handler.obj
 0001:00077260       ?trans_register_ha@@YAXPAVTHD@@HPAUhandlerton@@@Z 00478260 f   handler.obj
 0001:00077480       ?ha_prepare@@YAHPAVTHD@@@Z 00478480 f   handler.obj
 0001:00077660       ?ha_commit_trans@@YAHPAVTHD@@H@Z 00478660 f   handler.obj
 0001:00077ac0       ?ha_commit_one_phase@@YAHPAVTHD@@H@Z 00478ac0 f   handler.obj
 0001:00077d00       ?ha_rollback_trans@@YAHPAVTHD@@H@Z 00478d00 f   handler.obj
 0001:00077ff0       ?ha_autocommit_or_rollback@@YAHPAVTHD@@H@Z 00478ff0 f   handler.obj
 0001:00078150       ?ha_commit_or_rollback_by_xid@@YAHPAUxid_t@@H@Z 00479150 f   handler.obj
 0001:00078200       ?ha_recover@@YAHPAUst_hash@@@Z 00479200 f   handler.obj
 0001:00078940       ?mysql_xa_recover@@YAHPAVTHD@@@Z 00479940 f   handler.obj
 0001:00078d20       ?ha_release_temporary_latches@@YAHPAVTHD@@@Z 00479d20 f   handler.obj
 0001:00078d50       ?ha_update_statistics@@YAHXZ 00479d50 f   handler.obj
 0001:00078d70       ?ha_rollback_to_savepoint@@YAHPAVTHD@@PAUst_savepoint@@@Z 00479d70 f   handler.obj
 0001:00078ff0       ?ha_savepoint@@YAHPAVTHD@@PAUst_savepoint@@@Z 00479ff0 f   handler.obj
 0001:000791c0       ?ha_release_savepoint@@YAHPAVTHD@@PAUst_savepoint@@@Z 0047a1c0 f   handler.obj
 0001:00079360       ?ha_start_consistent_snapshot@@YAHPAVTHD@@@Z 0047a360 f   handler.obj
 0001:000793b0       ?ha_flush_logs@@YAHXZ      0047a3b0 f   handler.obj
 0001:000793f0       ?ha_delete_table@@YAHPAVTHD@@W4db_type@@PBD2H@Z 0047a3f0 f   handler.obj
 0001:00079860       ?clone@handler@@UAEPAV1@PAUst_mem_root@@@Z 0047a860 f   handler.obj
 0001:000798f0       ?ha_open@handler@@QAEHPBDHH@Z 0047a8f0 f   handler.obj
 0001:00079be0       ?read_first_row@handler@@UAEHPAEI@Z 0047abe0 f   handler.obj
 0001:00079d80       ?adjust_next_insert_id_after_explicit_value@handler@@QAEX_K@Z 0047ad80 f   handler.obj
 0001:00079e80       ?update_auto_increment@handler@@QAEHXZ 0047ae80 f   handler.obj
 0001:0007a2c0       ?restore_auto_increment@handler@@UAEXXZ 0047b2c0 f   handler.obj
 0001:0007a350       ?get_auto_increment@handler@@UAE_KXZ 0047b350 f   handler.obj
 0001:0007a520       ?print_error@handler@@UAEXHH@Z 0047b520 f   handler.obj
 0001:0007ad20       ?get_error_message@handler@@UAEHHPAVString@@@Z 0047bd20 f   handler.obj
 0001:0007ad40       ?ha_check_for_upgrade@handler@@QAEHPAUst_ha_check_opt@@@Z 0047bd40 f   handler.obj
 0001:0007ae70       ?check_old_types@handler@@QAEHXZ 0047be70 f   handler.obj
 0001:0007af20       ?get_dup_key@handler@@QAEIH@Z 0047bf20 f   handler.obj
 0001:0007b060       ?delete_table@handler@@UAEHPBD@Z 0047c060 f   handler.obj
 0001:0007b180       ?rename_table@handler@@UAEHPBD0@Z 0047c180 f   handler.obj
 0001:0007b220       ?ha_check@handler@@QAEHPAVTHD@@PAUst_ha_check_opt@@@Z 0047c220 f   handler.obj
 0001:0007b670       ?ha_repair@handler@@QAEHPAVTHD@@PAUst_ha_check_opt@@@Z 0047c670 f   handler.obj
 0001:0007b6e0       ?ha_enable_transaction@@YAHPAVTHD@@H@Z 0047c6e0 f   handler.obj
 0001:0007b800       ?index_next_same@handler@@UAEHPAEPBEI@Z 0047c800 f   handler.obj
 0001:0007b890       ?ha_create_table@@YAHPBDPAUst_ha_create_information@@H@Z 0047c890 f   handler.obj
 0001:0007bb10       ?ha_create_table_from_engine@@YAHPAVTHD@@PBD1@Z 0047cb10 f   handler.obj
 0001:0007bee0       ?init@st_ha_check_opt@@QAEXXZ 0047cee0 f   handler.obj
 0001:0007bf20       ?ha_init_key_cache@@YAHPBDPAUst_key_cache@@@Z 0047cf20 f   handler.obj
 0001:0007c0a0       ?ha_resize_key_cache@@YAHPAUst_key_cache@@@Z 0047d0a0 f   handler.obj
 0001:0007c220       ?ha_change_key_cache_param@@YAHPAUst_key_cache@@@Z 0047d220 f   handler.obj
 0001:0007c2b0       ?ha_end_key_cache@@YAHPAUst_key_cache@@@Z 0047d2b0 f   handler.obj
 0001:0007c2d0       ?ha_change_key_cache@@YAHPAUst_key_cache@@0@Z 0047d2d0 f   handler.obj
 0001:0007c2f0       ?ha_discover@@YAHPAVTHD@@PBD1PAPBXPAI@Z 0047d2f0 f   handler.obj
 0001:0007c460       ?ha_find_files@@YAHPAVTHD@@PBD11HPAV?$List@D@@@Z 0047d460 f   handler.obj
 0001:0007c580       ?ha_table_exists_in_engine@@YAHPAVTHD@@PBD1@Z 0047d580 f   handler.obj
 0001:0007c6d0       ?read_multi_range_first@handler@@UAEHPAPAUst_key_multi_range@@PAU2@IHPAUst_handler_buffer@@@Z 0047d6d0 f   handler.obj
 0001:0007c8d0       ?read_multi_range_next@handler@@UAEHPAPAUst_key_multi_range@@@Z 0047d8d0 f   handler.obj
 0001:0007cb30       ?read_range_first@handler@@UAEHPBUst_key_range@@0HH@Z 0047db30 f   handler.obj
 0001:0007cd70       ?read_range_next@handler@@UAEHXZ 0047dd70 f   handler.obj
 0001:0007cf20       ?compare_key@handler@@QAEHPAUst_key_range@@@Z 0047df20 f   handler.obj
 0001:0007cf90       ?index_read_idx@handler@@UAEHPAEIPBEIW4ha_rkey_function@@@Z 0047df90 f   handler.obj
 0001:0007d010       ?ha_known_exts@@YAPAUst_typelib@@XZ 0047e010 f   handler.obj
 0001:0007ed50       ??2Sql_alloc@@SAPAXIPAUst_mem_root@@@Z 0047fd50 f i handler.obj
 0001:0007ed80       ?set@xid_t@@QAEX_K@Z       0047fd80 f i handler.obj
 0001:0007ee60       ?set@xid_t@@QAEXJJPBD@Z    0047fe60 f i handler.obj
 0001:0007eed0       ?is_null@xid_t@@QAEHXZ     0047fed0 f i handler.obj
 0001:0007ef00       ?get_my_xid@xid_t@@QAE_KXZ 0047ff00 f i handler.obj
 0001:0007efc0       ?quick_get_my_xid@xid_t@@QAE_KXZ 0047ffc0 f i handler.obj
 0001:0007f050       ?null@xid_t@@QAEXXZ        00480050 f i handler.obj
 0001:0007f080       ?cleanup@st_transactions@THD@@QAEXXZ 00480080 f i handler.obj
 0001:0007f0e0       ??0Item_int@@QAE@PBD_JI@Z  004800e0 f i handler.obj
 0001:0007f150       ??0Item_num@@QAE@XZ        00480150 f i handler.obj
 0001:0007f190       ??_EItem_num@@UAEPAXI@Z    00480190 f i handler.obj
 0001:0007f190       ??_GItem_num@@UAEPAXI@Z    00480190 f i handler.obj
 0001:0007f1e0       ??1Item_num@@UAE@XZ        004801e0 f i handler.obj
 0001:0007f210       ?type@Item_int@@UBE?AW4Type@Item@@XZ 00480210 f i handler.obj
 0001:0007f230       ?result_type@Item_int@@UBE?AW4Item_result@@XZ 00480230 f i handler.obj
 0001:0007f250       ?field_type@Item_int@@UBE?AW4enum_field_types@@XZ 00480250 f i handler.obj
 0001:0007f270       ?val_int@Item_int@@UAE_JXZ 00480270 f i handler.obj
 0001:0007f2d0       ?val_real@Item_int@@UAENXZ 004802d0 f i handler.obj
 0001:0007f330       ?basic_const_item@Item_int@@UBEHXZ 00480330 f i handler.obj
 0001:0007f350       ?clone_item@Item_int@@UAEPAVItem@@XZ 00480350 f i handler.obj
 0001:0007f3e0       ?cleanup@Item_int@@UAEXXZ  004803e0 f i handler.obj
 0001:0007f400       ?neg@Item_int@@UAEPAVItem_num@@XZ 00480400 f i handler.obj
 0001:0007f440       ?decimal_precision@Item_int@@UBEIXZ 00480440 f i handler.obj
 0001:0007f4b0       ??_EItem_int@@UAEPAXI@Z    004804b0 f i handler.obj
 0001:0007f4b0       ??_GItem_int@@UAEPAXI@Z    004804b0 f i handler.obj
 0001:0007f500       ??1Item_int@@UAE@XZ        00480500 f i handler.obj
 0001:0007f530       ??0st_table@@QAE@XZ        00480530 f i handler.obj
 0001:0007f5a0       ??0st_table_share@@QAE@XZ  004805a0 f i handler.obj
 0001:0007f5f0       ?ha_index_init@handler@@QAEHI@Z 004805f0 f i handler.obj
 0001:0007f770       ?ha_index_end@handler@@QAEHXZ 00480770 f i handler.obj
 0001:0007f8e0       ?next_insert_id@@YA_K_KPAUsystem_variables@@@Z 004808e0 f i handler.obj
 0001:0007f960       ?prev_insert_id@@YA_K_KPAUsystem_variables@@@Z 00480960 f i handler.obj
 0001:0007fa80       ?is_empty@String@@QAEHXZ   00480a80 f i handler.obj
 0001:0007fab0       ?c_ptr_safe@String@@QAEPADXZ 00480ab0 f i handler.obj
 0001:0007fb20       ??1?$List@D@@QAE@XZ        00480b20 f i handler.obj
 0001:0007fb50       ??0?$List@D@@QAE@XZ        00480b50 f i handler.obj
 0001:0007fb80       ?push_back@?$List@D@@QAEHPAD@Z 00480b80 f i handler.obj
 0001:0007fbc0       ??0?$List_iterator_fast@D@@QAE@AAV?$List@D@@@Z 00480bc0 f i handler.obj
 0001:0007fc00       ??E?$List_iterator_fast@D@@QAEPADH@Z 00480c00 f i handler.obj
 0001:0007fc30       ?next_fast@base_list_iterator@@QAEPAXXZ 00480c30 f i handler.obj
 0001:0007fc80       ?rewind@?$List_iterator_fast@D@@QAEXXZ 00480c80 f i handler.obj
 0001:0007fcb0       ?rewind@base_list_iterator@@QAEXXZ 00480cb0 f i handler.obj
 0001:0007fce0       ?hostname_cache_refresh@@YAXXZ 00480ce0 f   hostname.obj
 0001:0007fd00       ?hostname_cache_init@@YAHXZ 00480d00 f   hostname.obj
 0001:0007fdf0       ?hostname_cache_free@@YAXXZ 00480df0 f   hostname.obj
 0001:0007fe70       ?inc_host_errors@@YAXPAUin_addr@@@Z 00480e70 f   hostname.obj
 0001:0007fef0       ?reset_host_errors@@YAXPAUin_addr@@@Z 00480ef0 f   hostname.obj
 0001:0007ff60       ?ip_to_hostname@@YAPADPAUin_addr@@PAI@Z 00480f60 f   hostname.obj
 0001:00080810       ?clear@hash_filo@@QAEXH@Z  00481810 f i hostname.obj
 0001:00080930       ??0hash_filo@@QAE@IIIP6APAEPBEPAID@ZP6AXPAX@ZPAUcharset_info_st@@@Z 00481930 f i hostname.obj
 0001:000809c0       ??0host_entry@@QAE@XZ      004819c0 f i hostname.obj
 0001:000809f0       ??0hash_filo_element@@QAE@XZ 004819f0 f i hostname.obj
 0001:00080a10       ??_Ghash_filo@@QAEPAXI@Z   00481a10 f i hostname.obj
 0001:00080a60       ??1hash_filo@@QAE@XZ       00481a60 f i hostname.obj
 0001:00080ad0       ?search@hash_filo@@QAEPAVhash_filo_element@@PADI@Z 00481ad0 f i hostname.obj
 0001:00080bb0       ?add@hash_filo@@QAEDPAVhash_filo_element@@@Z 00481bb0 f i hostname.obj
 0001:00080cc0       ?add_wrong_ip@@YAXPAUin_addr@@@Z 00481cc0 f i hostname.obj
 0001:00080ce0       ?unireg_init@@YAXK@Z       00481ce0 f   init.obj
 0001:00080e80       ?fix_length_and_dec@Hybrid_type_traits@@UBEXPAVItem@@0@Z 00481e80 f   item.obj
 0001:00080ec0       ?instance@Hybrid_type_traits@@SAPBU1@XZ 00481ec0 f   item.obj
 0001:00080ed0       ?val_decimal@Hybrid_type_traits@@UBEPAVmy_decimal@@PAUHybrid_type@@PAV2@@Z 00481ed0 f   item.obj
 0001:00080f20       ?val_str@Hybrid_type_traits@@UBEPAVString@@PAUHybrid_type@@PAV2@E@Z 00481f20 f   item.obj
 0001:00080f60       ?instance@Hybrid_type_traits_decimal@@SAPBU1@XZ 00481f60 f   item.obj
 0001:00080f70       ?fix_length_and_dec@Hybrid_type_traits_decimal@@UBEXPAVItem@@0@Z 00481f70 f   item.obj
 0001:00080fd0       ?set_zero@Hybrid_type_traits_decimal@@UBEXPAUHybrid_type@@@Z 00481fd0 f   item.obj
 0001:00081010       ?add@Hybrid_type_traits_decimal@@UBEXPAUHybrid_type@@PAVField@@@Z 00482010 f   item.obj
 0001:000810a0       ?div@Hybrid_type_traits_decimal@@UBEXPAUHybrid_type@@_K@Z 004820a0 f   item.obj
 0001:00081130       ?val_int@Hybrid_type_traits_decimal@@UBE_JPAUHybrid_type@@H@Z 00482130 f   item.obj
 0001:000811c0       ?val_real@Hybrid_type_traits_decimal@@UBENPAUHybrid_type@@@Z 004821c0 f   item.obj
 0001:00081210       ?val_str@Hybrid_type_traits_decimal@@UBEPAVString@@PAUHybrid_type@@PAV2@E@Z 00482210 f   item.obj
 0001:00081280       ?instance@Hybrid_type_traits_integer@@SAPBU1@XZ 00482280 f   item.obj
 0001:00081290       ?fix_length_and_dec@Hybrid_type_traits_integer@@UBEXPAVItem@@0@Z 00482290 f   item.obj
 0001:000812c0       ?item_init@@YAXXZ          004822c0 f   item.obj
 0001:000812e0       ?val_bool@Item@@UAEHXZ     004822e0 f   item.obj
 0001:00081450       ?val_string_from_real@Item@@QAEPAVString@@PAV2@@Z 00482450 f   item.obj
 0001:000814d0       ?val_string_from_int@Item@@QAEPAVString@@PAV2@@Z 004824d0 f   item.obj
 0001:00081570       ?val_string_from_decimal@Item@@QAEPAVString@@PAV2@@Z 00482570 f   item.obj
 0001:00081640       ?val_decimal_from_real@Item@@QAEPAVmy_decimal@@PAV2@@Z 00482640 f   item.obj
 0001:000816b0       ?val_decimal_from_int@Item@@QAEPAVmy_decimal@@PAV2@@Z 004826b0 f   item.obj
 0001:00081730       ?val_decimal_from_string@Item@@QAEPAVmy_decimal@@PAV2@@Z 00482730 f   item.obj
 0001:00081810       ?val_decimal_from_date@Item@@QAEPAVmy_decimal@@PAV2@@Z 00482810 f   item.obj
 0001:000818d0       ?val_decimal_from_time@Item@@QAEPAVmy_decimal@@PAV2@@Z 004828d0 f   item.obj
 0001:00081990       ?val_real_from_decimal@Item@@QAENXZ 00482990 f   item.obj
 0001:00081a50       ?val_int_from_decimal@Item@@QAE_JXZ 00482a50 f   item.obj
 0001:00081b10       ?save_time_in_field@Item@@QAEHPAVField@@@Z 00482b10 f   item.obj
 0001:00081bc0       ?save_date_in_field@Item@@QAEHPAVField@@@Z 00482bc0 f   item.obj
 0001:00081c70       ?save_str_value_in_field@Item@@QAEHPAVField@@PAVString@@@Z 00482c70 f   item.obj
 0001:00081ce0       ??0Item@@QAE@XZ            00482ce0 f   item.obj
 0001:00081e30       ??0Item@@QAE@PAVTHD@@PAV0@@Z 00482e30 f   item.obj
 0001:00081f30       ?decimal_precision@Item@@UBEIXZ 00482f30 f   item.obj
 0001:00081ff0       ?print_item_w_name@Item@@QAEXPAVString@@@Z 00482ff0 f   item.obj
 0001:00082080       ?cleanup@Item@@UAEXXZ      00483080 f   item.obj
 0001:00082190       ?cleanup_processor@Item@@UAEHPAE@Z 00483190 f   item.obj
 0001:000821e0       ?rename@Item@@QAEXPAD@Z    004831e0 f   item.obj
 0001:00082220       ?transform@Item@@UAEPAV1@P81@AEPAV1@PAE@Z0@Z 00483220 f   item.obj
 0001:00082280       ??0Item_ident@@QAE@PAUName_resolution_context@@PBD11@Z 00483280 f   item.obj
 0001:00082330       ??0Item_ident@@QAE@PAVTHD@@PAV0@@Z 00483330 f   item.obj
 0001:000823f0       ?cleanup@Item_ident@@UAEXXZ 004833f0 f   item.obj
 0001:00082510       ?remove_dependence_processor@Item_ident@@UAEHPAE@Z 00483510 f   item.obj
 0001:00082610       ?collect_item_field_processor@Item_field@@UAEHPAE@Z 00483610 f   item.obj
 0001:000827d0       ?find_item_in_field_list_processor@Item_field@@UAEHPAE@Z 004837d0 f   item.obj
 0001:00082860       ?check_cols@Item@@UAEHI@Z  00483860 f   item.obj
 0001:000828a0       ?set_name@Item@@QAEXPBDIPAUcharset_info_st@@@Z 004838a0 f   item.obj
 0001:00082a60       ?eq@Item@@UBEHPBV1@H@Z     00483a60 f   item.obj
 0001:00082b10       ?safe_charset_converter@Item@@UAEPAV1@PAUcharset_info_st@@@Z 00483b10 f   item.obj
 0001:00082b90       ?safe_charset_converter@Item_num@@UAEPAVItem@@PAUcharset_info_st@@@Z 00483b90 f   item.obj
 0001:00082cc0       ?safe_charset_converter@Item_static_float_func@@UAEPAVItem@@PAUcharset_info_st@@@Z 00483cc0 f   item.obj
 0001:00082df0       ?safe_charset_converter@Item_string@@UAEPAVItem@@PAUcharset_info_st@@@Z 00483df0 f   item.obj
 0001:00082f70       ?safe_charset_converter@Item_param@@UAEPAVItem@@PAUcharset_info_st@@@Z 00483f70 f   item.obj
 0001:00083090       ?safe_charset_converter@Item_static_string_func@@UAEPAVItem@@PAUcharset_info_st@@@Z 00484090 f   item.obj
 0001:00083220       ?eq@Item_string@@UBEHPBVItem@@H@Z 00484220 f   item.obj
 0001:00083300       ?get_date@Item@@UAEHPAUst_mysql_time@@I@Z 00484300 f   item.obj
 0001:000834f0       ?get_time@Item@@UAEHPAUst_mysql_time@@@Z 004844f0 f   item.obj
 0001:00083600       ?default_charset@Item@@SAPAUcharset_info_st@@XZ 00484600 f   item.obj
 0001:00083620       ?save_in_field_no_warnings@Item@@QAEHPAVField@@H@Z 00484620 f   item.obj
 0001:000836a0       ??0Item_sp_variable@@QAE@PADI@Z 004846a0 f   item.obj
 0001:00083700       ?fix_fields@Item_sp_variable@@UAEHPAVTHD@@PAPAVItem@@@Z 00484700 f   item.obj
 0001:000837c0       ?val_real@Item_sp_variable@@UAENXZ 004847c0 f   item.obj
 0001:00083850       ?val_int@Item_sp_variable@@UAE_JXZ 00484850 f   item.obj
 0001:000838f0       ?val_str@Item_sp_variable@@UAEPAVString@@PAV2@@Z 004848f0 f   item.obj
 0001:000839d0       ?val_decimal@Item_sp_variable@@UAEPAVmy_decimal@@PAV2@@Z 004849d0 f   item.obj
 0001:00083a70       ?is_null@Item_sp_variable@@UAEHXZ 00484a70 f   item.obj
 0001:00083ad0       ??0Item_splocal@@QAE@ABUst_lex_string@@IW4enum_field_types@@II@Z 00484ad0 f   item.obj
 0001:00083b80       ?this_item@Item_splocal@@UAEPAVItem@@XZ 00484b80 f   item.obj
 0001:00083bf0       ?this_item@Item_splocal@@UBEPBVItem@@XZ 00484bf0 f   item.obj
 0001:00083c60       ?this_item_addr@Item_splocal@@UAEPAPAVItem@@PAVTHD@@PAPAV2@@Z 00484c60 f   item.obj
 0001:00083cc0       ?print@Item_splocal@@UAEXPAVString@@@Z 00484cc0 f   item.obj
 0001:00083d20       ?set_value@Item_splocal@@EAEHPAVTHD@@PAVsp_rcontext@@PAPAVItem@@@Z 00484d20 f   item.obj
 0001:00083d60       ??0Item_case_expr@@QAE@H@Z 00484d60 f   item.obj
 0001:00083db0       ?this_item@Item_case_expr@@UAEPAVItem@@XZ 00484db0 f   item.obj
 0001:00083e20       ?this_item@Item_case_expr@@UBEPBVItem@@XZ 00484e20 f   item.obj
 0001:00083e90       ?this_item_addr@Item_case_expr@@UAEPAPAVItem@@PAVTHD@@PAPAV2@@Z 00484e90 f   item.obj
 0001:00083ef0       ?print@Item_case_expr@@UAEXPAVString@@@Z 00484ef0 f   item.obj
 0001:00083f30       ?val_real@Item_name_const@@UAENXZ 00484f30 f   item.obj
 0001:00083fc0       ?val_int@Item_name_const@@UAE_JXZ 00484fc0 f   item.obj
 0001:00084050       ?val_str@Item_name_const@@UAEPAVString@@PAV2@@Z 00485050 f   item.obj
 0001:000840d0       ?val_decimal@Item_name_const@@UAEPAVmy_decimal@@PAV2@@Z 004850d0 f   item.obj
 0001:00084150       ?is_null@Item_name_const@@UAEHXZ 00485150 f   item.obj
 0001:00084190       ?type@Item_name_const@@UBE?AW4Type@Item@@XZ 00485190 f   item.obj
 0001:000841d0       ?fix_fields@Item_name_const@@UAEHPAVTHD@@PAPAVItem@@@Z 004851d0 f   item.obj
 0001:00084410       ?print@Item_name_const@@UAEXPAVString@@@Z 00485410 f   item.obj
 0001:000844a0       ?split_sum_func2@Item@@QAEXPAVTHD@@PAPAV1@AAV?$List@VItem@@@@1H@Z 004854a0 f   item.obj
 0001:00084710       ?aggregate@DTCollation@@QAEHAAV1@I@Z 00485710 f   item.obj
 0001:000849b0       ?agg_item_collations@@YAHAAVDTCollation@@PBDPAPAVItem@@IIH@Z 004859b0 f   item.obj
 0001:00084bc0       ?agg_item_collations_for_comparison@@YAHAAVDTCollation@@PBDPAPAVItem@@II@Z 00485bc0 f   item.obj
 0001:00084bf0       ?agg_item_charsets@@YAHAAVDTCollation@@PBDPAPAVItem@@IIH@Z 00485bf0 f   item.obj
 0001:00084ec0       ?make_field@Item_ident_for_show@@UAEXPAVSend_field@@@Z 00485ec0 f   item.obj
 0001:00084fe0       ??0Item_field@@QAE@PAVField@@@Z 00485fe0 f   item.obj
 0001:00085080       ??0Item_field@@QAE@PAVTHD@@PAUName_resolution_context@@PAVField@@@Z 00486080 f   item.obj
 0001:00085190       ??0Item_field@@QAE@PAUName_resolution_context@@PBD11@Z 00486190 f   item.obj
 0001:00085270       ??0Item_field@@QAE@PAVTHD@@PAV0@@Z 00486270 f   item.obj
 0001:00085320       ?set_field@Item_field@@IAEXPAVField@@@Z 00486320 f   item.obj
 0001:00085460       ?reset_field@Item_field@@QAEXPAVField@@@Z 00486460 f   item.obj
 0001:000854a0       ?full_name@Item_ident@@UBEPBDXZ 004864a0 f   item.obj
 0001:00085610       ?print@Item_ident@@UAEXPAVString@@@Z 00486610 f   item.obj
 0001:000859c0       ?val_str@Item_field@@UAEPAVString@@PAV2@@Z 004869c0 f   item.obj
 0001:00085a60       ?val_real@Item_field@@UAENXZ 00486a60 f   item.obj
 0001:00085af0       ?val_int@Item_field@@UAE_JXZ 00486af0 f   item.obj
 0001:00085b70       ?val_decimal@Item_field@@UAEPAVmy_decimal@@PAV2@@Z 00486b70 f   item.obj
 0001:00085bd0       ?str_result@Item_field@@UAEPAVString@@PAV2@@Z 00486bd0 f   item.obj
 0001:00085c50       ?get_date@Item_field@@UAEHPAUst_mysql_time@@I@Z 00486c50 f   item.obj
 0001:00085ce0       ?get_date_result@Item_field@@UAEHPAUst_mysql_time@@I@Z 00486ce0 f   item.obj
 0001:00085d70       ?get_time@Item_field@@UAEHPAUst_mysql_time@@@Z 00486d70 f   item.obj
 0001:00085df0       ?val_result@Item_field@@UAENXZ 00486df0 f   item.obj
 0001:00085e50       ?val_int_result@Item_field@@UAE_JXZ 00486e50 f   item.obj
 0001:00085eb0       ?val_decimal_result@Item_field@@UAEPAVmy_decimal@@PAV2@@Z 00486eb0 f   item.obj
 0001:00085f10       ?val_bool_result@Item_field@@UAEHXZ 00486f10 f   item.obj
 0001:000860c0       ?eq@Item_field@@UBEHPBVItem@@H@Z 004870c0 f   item.obj
 0001:00086220       ?used_tables@Item_field@@UBE_KXZ 00487220 f   item.obj
 0001:000862a0       ?get_tmp_table_item@Item_field@@UAEPAVItem@@PAVTHD@@@Z 004872a0 f   item.obj
 0001:00086320       ??0Item_int@@QAE@PBDI@Z    00487320 f   item.obj
 0001:000863f0       ?val_decimal@Item_int@@UAEPAVmy_decimal@@PAV2@@Z 004873f0 f   item.obj
 0001:00086440       ?val_str@Item_int@@UAEPAVString@@PAV2@@Z 00487440 f   item.obj
 0001:000864a0       ?print@Item_int@@UAEXPAVString@@@Z 004874a0 f   item.obj
 0001:000864f0       ??0Item_uint@@QAE@PBDI@Z   004874f0 f   item.obj
 0001:00086540       ??0Item_uint@@QAE@PBD_JI@Z 00487540 f   item.obj
 0001:00086590       ?val_str@Item_uint@@UAEPAVString@@PAV2@@Z 00487590 f   item.obj
 0001:000865f0       ?print@Item_uint@@UAEXPAVString@@@Z 004875f0 f   item.obj
 0001:00086640       ??0Item_decimal@@QAE@PBDIPAUcharset_info_st@@@Z 00487640 f   item.obj
 0001:000866f0       ??0Item_decimal@@QAE@_JH@Z 004876f0 f   item.obj
 0001:00086790       ??0Item_decimal@@QAE@NHH@Z 00487790 f   item.obj
 0001:00086830       ??0Item_decimal@@QAE@PBDPBVmy_decimal@@II@Z 00487830 f   item.obj
 0001:000868b0       ??0Item_decimal@@QAE@PAVmy_decimal@@@Z 004878b0 f   item.obj
 0001:00086940       ??0Item_decimal@@QAE@PBDHH@Z 00487940 f   item.obj
 0001:000869d0       ?val_int@Item_decimal@@UAE_JXZ 004879d0 f   item.obj
 0001:00086a50       ?val_real@Item_decimal@@UAENXZ 00487a50 f   item.obj
 0001:00086ac0       ?val_str@Item_decimal@@UAEPAVString@@PAV2@@Z 00487ac0 f   item.obj
 0001:00086b10       ?print@Item_decimal@@UAEXPAVString@@@Z 00487b10 f   item.obj
 0001:00086b60       ?eq@Item_decimal@@UBEHPBVItem@@H@Z 00487b60 f   item.obj
 0001:00086c20       ?set_decimal_value@Item_decimal@@QAEXPAVmy_decimal@@@Z 00487c20 f   item.obj
 0001:00086ca0       ?val_str@Item_float@@UAEPAVString@@PAV2@@Z 00487ca0 f   item.obj
 0001:00086d10       ?val_decimal@Item_float@@UAEPAVmy_decimal@@PAV2@@Z 00487d10 f   item.obj
 0001:00086d70       ?print@Item_string@@UAEXPAVString@@@Z 00487d70 f   item.obj
 0001:00086dd0       ?val_real@Item_string@@UAENXZ 00487dd0 f   item.obj
 0001:00086f60       ?val_int@Item_string@@UAE_JXZ 00487f60 f   item.obj
 0001:000870b0       ?val_decimal@Item_string@@UAEPAVmy_decimal@@PAV2@@Z 004880b0 f   item.obj
 0001:000870e0       ?eq@Item_null@@UBEHPBVItem@@H@Z 004880e0 f   item.obj
 0001:00087140       ?val_real@Item_null@@UAENXZ 00488140 f   item.obj
 0001:00087190       ?val_int@Item_null@@UAE_JXZ 00488190 f   item.obj
 0001:000871e0       ?val_str@Item_null@@UAEPAVString@@PAV2@@Z 004881e0 f   item.obj
 0001:00087230       ?val_decimal@Item_null@@UAEPAVmy_decimal@@PAV2@@Z 00488230 f   item.obj
 0001:00087250       ?safe_charset_converter@Item_null@@UAEPAVItem@@PAUcharset_info_st@@@Z 00488250 f   item.obj
 0001:00087280       ??0Item_param@@QAE@I@Z     00488280 f   item.obj
 0001:000873e0       ?set_null@Item_param@@QAEXXZ 004883e0 f   item.obj
 0001:000874f0       ?set_int@Item_param@@QAEX_JK@Z 004884f0 f   item.obj
 0001:00087610       ?set_double@Item_param@@QAEXN@Z 00488610 f   item.obj
 0001:00087730       ?set_decimal@Item_param@@QAEXPBDK@Z 00488730 f   item.obj
 0001:000878a0       ?set_time@Item_param@@QAEXPAUst_mysql_time@@W4enum_mysql_timestamp_type@@K@Z 004888a0 f   item.obj
 0001:00087a90       ?set_str@Item_param@@QAEHPBDK@Z 00488a90 f   item.obj
 0001:00087bf0       ?set_longdata@Item_param@@QAEHPBDK@Z 00488bf0 f   item.obj
 0001:00087d30       ?set_from_user_var@Item_param@@QAEHPAVTHD@@PBVuser_var_entry@@@Z 00488d30 f   item.obj
 0001:00088060       ?reset@Item_param@@QAEXXZ  00489060 f   item.obj
 0001:000881c0       ?save_in_field@Item_param@@UAEHPAVField@@H@Z 004891c0 f   item.obj
 0001:00088350       ?get_time@Item_param@@UAEHPAUst_mysql_time@@@Z 00489350 f   item.obj
 0001:000883b0       ?get_date@Item_param@@UAEHPAUst_mysql_time@@I@Z 004893b0 f   item.obj
 0001:00088410       ?val_real@Item_param@@UAENXZ 00489410 f   item.obj
 0001:000885b0       ?val_int@Item_param@@UAE_JXZ 004895b0 f   item.obj
 0001:00088750       ?val_decimal@Item_param@@UAEPAVmy_decimal@@PAV2@@Z 00489750 f   item.obj
 0001:00088890       ?val_str@Item_param@@UAEPAVString@@PAV2@@Z 00489890 f   item.obj
 0001:000889f0       ?query_val_str@Item_param@@QBEPBVString@@PAV2@@Z 004899f0 f   item.obj
 0001:00088ba0       ?convert_str_value@Item_param@@QAEHPAVTHD@@@Z 00489ba0 f   item.obj
 0001:00088cb0       ?basic_const_item@Item_param@@UBEHXZ 00489cb0 f   item.obj
 0001:00088cf0       ?clone_item@Item_param@@UAEPAVItem@@XZ 00489cf0 f   item.obj
 0001:00088f10       ?eq@Item_param@@UBEHPBVItem@@H@Z 00489f10 f   item.obj
 0001:000890f0       ?print@Item_param@@UAEXPAVString@@@Z 0048a0f0 f   item.obj
 0001:000891c0       ?copy@Item_copy_string@@QAEXXZ 0048a1c0 f   item.obj
 0001:00089240       ?val_str@Item_copy_string@@UAEPAVString@@PAV2@@Z 0048a240 f   item.obj
 0001:00089270       ?val_decimal@Item_copy_string@@UAEPAVmy_decimal@@PAV2@@Z 0048a270 f   item.obj
 0001:000892c0       ?fix_fields@Item@@UAEHPAVTHD@@PAPAV1@@Z 0048a2c0 f   item.obj
 0001:00089330       ?val_real@Item_ref_null_helper@@UAENXZ 0048a330 f   item.obj
 0001:000893e0       ?val_int@Item_ref_null_helper@@UAE_JXZ 0048a3e0 f   item.obj
 0001:000894a0       ?val_decimal@Item_ref_null_helper@@UAEPAVmy_decimal@@PAV2@@Z 0048a4a0 f   item.obj
 0001:00089550       ?val_bool@Item_ref_null_helper@@UAEHXZ 0048a550 f   item.obj
 0001:00089600       ?val_str@Item_ref_null_helper@@UAEPAVString@@PAV2@@Z 0048a600 f   item.obj
 0001:000896b0       ?get_date@Item_ref_null_helper@@UAEHPAUst_mysql_time@@I@Z 0048a6b0 f   item.obj
 0001:00089740       ?mark_select_range_as_dependent@@YAXPAVTHD@@PAVst_select_lex@@1PAVField@@PAVItem@@PAVItem_ident@@@Z 0048a740 f   item.obj
 0001:00089a60       ?fix_outer_field@Item_field@@QAEHPAVTHD@@PAPAVField@@PAPAVItem@@@Z 0048aa60 f   item.obj
 0001:0008a9d0       ?fix_fields@Item_field@@UAEHPAVTHD@@PAPAVItem@@@Z 0048b9d0 f   item.obj
 0001:0008afd0       ?safe_charset_converter@Item_field@@UAEPAVItem@@PAUcharset_info_st@@@Z 0048bfd0 f   item.obj
 0001:0008b010       ?cleanup@Item_field@@UAEXXZ 0048c010 f   item.obj
 0001:0008b120       ?find_item_equal@Item_field@@QAEPAVItem_equal@@PAVCOND_EQUAL@@@Z 0048c120 f   item.obj
 0001:0008b1e0       ?subst_argument_checker@Item_field@@UAEHPAPAE@Z 0048c1e0 f   item.obj
 0001:0008b240       ?equal_fields_propagator@Item_field@@UAEPAVItem@@PAE@Z 0048c240 f   item.obj
 0001:0008b2e0       ?set_no_const_sub@Item_field@@UAEHPAE@Z 0048c2e0 f   item.obj
 0001:0008b340       ?replace_equal_field@Item_field@@UAEPAVItem@@PAE@Z 0048c340 f   item.obj
 0001:0008b400       ?init_make_field@Item@@QAEXPAVSend_field@@W4enum_field_types@@@Z 0048c400 f   item.obj
 0001:0008b4d0       ?make_field@Item@@UAEXPAVSend_field@@@Z 0048c4d0 f   item.obj
 0001:0008b520       ?make_field@Item_empty_string@@UAEXPAVSend_field@@@Z 0048c520 f   item.obj
 0001:0008b590       ?field_type@Item@@UBE?AW4enum_field_types@@XZ 0048c590 f   item.obj
 0001:0008b630       ?is_datetime@Item@@QAEHXZ  0048c630 f   item.obj
 0001:0008b690       ?make_string_field@Item@@QAEPAVField@@PAUst_table@@@Z 0048c690 f   item.obj
 0001:0008b830       ?tmp_table_field_from_field_type@Item@@QAEPAVField@@PAUst_table@@@Z 0048c830 f   item.obj
 0001:0008bfb0       ?make_field@Item_field@@UAEXPAVSend_field@@@Z 0048cfb0 f   item.obj
 0001:0008c050       ?save_org_in_field@Item_field@@UAEXPAVField@@@Z 0048d050 f   item.obj
 0001:0008c0c0       ?save_in_field@Item_field@@UAEHPAVField@@H@Z 0048d0c0 f   item.obj
 0001:0008c140       ?save_in_field@Item_null@@UAEHPAVField@@H@Z 0048d140 f   item.obj
 0001:0008c170       ?save_safe_in_field@Item_null@@UAEHPAVField@@@Z 0048d170 f   item.obj
 0001:0008c1a0       ?save_in_field@Item@@UAEHPAVField@@H@Z 0048d1a0 f   item.obj
 0001:0008c4d0       ?save_in_field@Item_string@@UAEHPAVField@@H@Z 0048d4d0 f   item.obj
 0001:0008c530       ?save_in_field@Item_uint@@UAEHPAVField@@H@Z 0048d530 f   item.obj
 0001:0008c560       ?save_in_field@Item_int@@UAEHPAVField@@H@Z 0048d560 f   item.obj
 0001:0008c600       ?save_in_field@Item_decimal@@UAEHPAVField@@H@Z 0048d600 f   item.obj
 0001:0008c650       ?eq@Item_int@@UBEHPBVItem@@H@Z 0048d650 f   item.obj
 0001:0008c740       ?clone_item@Item_int_with_ref@@UAEPAVItem@@XZ 0048d740 f   item.obj
 0001:0008c880       ?neg@Item_uint@@UAEPAVItem_num@@XZ 0048d880 f   item.obj
 0001:0008c900       ??0Item_float@@QAE@PBDI@Z  0048d900 f   item.obj
 0001:0008caf0       ?save_in_field@Item_float@@UAEHPAVField@@H@Z 0048daf0 f   item.obj
 0001:0008cb80       ?print@Item_float@@UAEXPAVString@@@Z 0048db80 f   item.obj
 0001:0008cc60       ?eq@Item_float@@UBEHPBVItem@@H@Z 0048dc60 f   item.obj
 0001:0008cd20       ??0Item_hex_string@@QAE@PBDI@Z 0048dd20 f   item.obj
 0001:0008ce60       ?val_int@Item_hex_string@@UAE_JXZ 0048de60 f   item.obj
 0001:0008cf50       ?val_decimal@Item_hex_string@@UAEPAVmy_decimal@@PAV2@@Z 0048df50 f   item.obj
 0001:0008cfe0       ?save_in_field@Item_hex_string@@UAEHPAVField@@H@Z 0048dfe0 f   item.obj
 0001:0008d160       ?eq@Item_hex_string@@UBEHPBVItem@@H@Z 0048e160 f   item.obj
 0001:0008d220       ?safe_charset_converter@Item_hex_string@@UAEPAVItem@@PAUcharset_info_st@@@Z 0048e220 f   item.obj
 0001:0008d330       ??0Item_bin_string@@QAE@PBDI@Z 0048e330 f   item.obj
 0001:0008d470       ?send@Item_null@@UAEHPAVProtocol@@PAVString@@@Z 0048e470 f   item.obj
 0001:0008d4b0       ?send@Item@@UAEHPAVProtocol@@PAVString@@@Z 0048e4b0 f   item.obj
 0001:0008d8a0       ?send@Item_field@@UAEHPAVProtocol@@PAVString@@@Z 0048e8a0 f   item.obj
 0001:0008d8e0       ?update_null_value@Item_field@@UAEXXZ 0048e8e0 f   item.obj
 0001:0008d950       ?update_value_transformer@Item_field@@UAEPAVItem@@PAE@Z 0048e950 f   item.obj
 0001:0008da80       ?print@Item_field@@UAEXPAVString@@@Z 0048ea80 f   item.obj
 0001:0008db90       ??0Item_ref@@QAE@PAUName_resolution_context@@PAPAVItem@@PBD2H@Z 0048eb90 f   item.obj
 0001:0008dc20       ?fix_fields@Item_ref@@UAEHPAVTHD@@PAPAVItem@@@Z 0048ec20 f   item.obj
 0001:0008e3f0       ?set_properties@Item_ref@@IAEXXZ 0048f3f0 f   item.obj
 0001:0008e4d0       ?cleanup@Item_ref@@UAEXXZ  0048f4d0 f   item.obj
 0001:0008e5c0       ?print@Item_ref@@UAEXPAVString@@@Z 0048f5c0 f   item.obj
 0001:0008e6c0       ?send@Item_ref@@UAEHPAVProtocol@@PAVString@@@Z 0048f6c0 f   item.obj
 0001:0008e730       ?val_result@Item_ref@@UAENXZ 0048f730 f   item.obj
 0001:0008e7b0       ?val_int_result@Item_ref@@UAE_JXZ 0048f7b0 f   item.obj
 0001:0008e830       ?str_result@Item_ref@@UAEPAVString@@PAV2@@Z 0048f830 f   item.obj
 0001:0008e8d0       ?val_decimal_result@Item_ref@@UAEPAVmy_decimal@@PAV2@@Z 0048f8d0 f   item.obj
 0001:0008e960       ?val_bool_result@Item_ref@@UAEHXZ 0048f960 f   item.obj
 0001:0008eb30       ?val_real@Item_ref@@UAENXZ 0048fb30 f   item.obj
 0001:0008ebc0       ?val_int@Item_ref@@UAE_JXZ 0048fbc0 f   item.obj
 0001:0008ec50       ?val_bool@Item_ref@@UAEHXZ 0048fc50 f   item.obj
 0001:0008ecd0       ?val_str@Item_ref@@UAEPAVString@@PAV2@@Z 0048fcd0 f   item.obj
 0001:0008ed50       ?is_null@Item_ref@@UAEHXZ  0048fd50 f   item.obj
 0001:0008edc0       ?get_date@Item_ref@@UAEHPAUst_mysql_time@@I@Z 0048fdc0 f   item.obj
 0001:0008ee20       ?val_decimal@Item_ref@@UAEPAVmy_decimal@@PAV2@@Z 0048fe20 f   item.obj
 0001:0008ee90       ?save_in_field@Item_ref@@UAEHPAVField@@H@Z 0048fe90 f   item.obj
 0001:0008ef20       ?save_org_in_field@Item_ref@@UAEXPAVField@@@Z 0048ff20 f   item.obj
 0001:0008ef70       ?make_field@Item_ref@@UAEXPAVSend_field@@@Z 0048ff70 f   item.obj
 0001:0008eff0       ?get_tmp_table_item@Item_ref@@UAEPAVItem@@PAVTHD@@@Z 0048fff0 f   item.obj
 0001:0008f0b0       ?print@Item_ref_null_helper@@UAEXPAVString@@@Z 004900b0 f   item.obj
 0001:0008f130       ?val_real@Item_direct_ref@@UAENXZ 00490130 f   item.obj
 0001:0008f1a0       ?val_int@Item_direct_ref@@UAE_JXZ 004901a0 f   item.obj
 0001:0008f210       ?val_str@Item_direct_ref@@UAEPAVString@@PAV2@@Z 00490210 f   item.obj
 0001:0008f270       ?val_decimal@Item_direct_ref@@UAEPAVmy_decimal@@PAV2@@Z 00490270 f   item.obj
 0001:0008f2e0       ?val_bool@Item_direct_ref@@UAEHXZ 004902e0 f   item.obj
 0001:0008f340       ?is_null@Item_direct_ref@@UAEHXZ 00490340 f   item.obj
 0001:0008f380       ?get_date@Item_direct_ref@@UAEHPAUst_mysql_time@@I@Z 00490380 f   item.obj
 0001:0008f3e0       ?fix_fields@Item_direct_view_ref@@UAEHPAVTHD@@PAPAVItem@@@Z 004903e0 f   item.obj
 0001:0008f480       ?fix_fields@Item_outer_ref@@UAEHPAVTHD@@PAPAVItem@@@Z 00490480 f   item.obj
 0001:0008f560       ?eq@Item_direct_view_ref@@UBEHPBVItem@@H@Z 00490560 f   item.obj
 0001:0008f620       ?eq@Item_default_value@@UBEHPBVItem@@H@Z 00490620 f   item.obj
 0001:0008f6b0       ?fix_fields@Item_default_value@@UAEHPAVTHD@@PAPAVItem@@@Z 004906b0 f   item.obj
 0001:0008f8b0       ?print@Item_default_value@@UAEXPAVString@@@Z 004908b0 f   item.obj
 0001:0008f930       ?save_in_field@Item_default_value@@UAEHPAVField@@H@Z 00490930 f   item.obj
 0001:0008fa70       ?transform@Item_default_value@@UAEPAVItem@@P82@AEPAV2@PAE@Z0@Z 00490a70 f   item.obj
 0001:0008fb40       ?eq@Item_insert_value@@UBEHPBVItem@@H@Z 00490b40 f   item.obj
 0001:0008fbd0       ?fix_fields@Item_insert_value@@UAEHPAVTHD@@PAPAVItem@@@Z 00490bd0 f   item.obj
 0001:0008fe90       ?print@Item_insert_value@@UAEXPAVString@@@Z 00490e90 f   item.obj
 0001:0008fef0       ?setup_field@Item_trigger_field@@QAEXPAVTHD@@PAUst_table@@PAUst_grant_info@@@Z 00490ef0 f   item.obj
 0001:0008ff80       ?eq@Item_trigger_field@@UBEHPBVItem@@H@Z 00490f80 f   item.obj
 0001:00090020       ?set_required_privilege@Item_trigger_field@@EAEXH@Z 00491020 f   item.obj
 0001:00090050       ?set_value@Item_trigger_field@@EAEHPAVTHD@@PAVsp_rcontext@@PAPAVItem@@@Z 00491050 f   item.obj
 0001:00090100       ?fix_fields@Item_trigger_field@@UAEHPAVTHD@@PAPAVItem@@@Z 00491100 f   item.obj
 0001:000902a0       ?print@Item_trigger_field@@UAEXPAVString@@@Z 004912a0 f   item.obj
 0001:00090310       ?cleanup@Item_trigger_field@@UAEXXZ 00491310 f   item.obj
 0001:00090350       ?item_cmp_type@@YA?AW4Item_result@@W41@0@Z 00491350 f   item.obj
 0001:000903b0       ?resolve_const_item@@YAXPAVTHD@@PAPAVItem@@PAV2@@Z 004913b0 f   item.obj
 0001:00090ad0       ?field_is_equal_to_item@@YAHPAVField@@PAVItem@@@Z 00491ad0 f   item.obj
 0001:00090de0       ?get_cache@Item_cache@@SAPAV1@W4Item_result@@@Z 00491de0 f   item.obj
 0001:00090f40       ?print@Item_cache@@UAEXPAVString@@@Z 00491f40 f   item.obj
 0001:00090fc0       ?store@Item_cache_int@@UAEXPAVItem@@@Z 00491fc0 f   item.obj
 0001:00091020       ?store@Item_cache_int@@QAEXPAVItem@@_J@Z 00492020 f   item.obj
 0001:00091060       ?val_str@Item_cache_int@@UAEPAVString@@PAV2@@Z 00492060 f   item.obj
 0001:000910c0       ?val_decimal@Item_cache_int@@UAEPAVmy_decimal@@PAV2@@Z 004920c0 f   item.obj
 0001:00091130       ?store@Item_cache_real@@UAEXPAVItem@@@Z 00492130 f   item.obj
 0001:00091180       ?val_int@Item_cache_real@@UAE_JXZ 00492180 f   item.obj
 0001:000911e0       ?val_str@Item_cache_real@@UAEPAVString@@PAV2@@Z 004921e0 f   item.obj
 0001:00091250       ?val_decimal@Item_cache_real@@UAEPAVmy_decimal@@PAV2@@Z 00492250 f   item.obj
 0001:000912b0       ?store@Item_cache_decimal@@UAEXPAVItem@@@Z 004922b0 f   item.obj
 0001:00091330       ?val_real@Item_cache_decimal@@UAENXZ 00492330 f   item.obj
 0001:000913c0       ?val_int@Item_cache_decimal@@UAE_JXZ 004923c0 f   item.obj
 0001:00091460       ?val_str@Item_cache_decimal@@UAEPAVString@@PAV2@@Z 00492460 f   item.obj
 0001:000914e0       ?val_decimal@Item_cache_decimal@@UAEPAVmy_decimal@@PAV2@@Z 004924e0 f   item.obj
 0001:00091530       ?store@Item_cache_str@@UAEXPAVItem@@@Z 00492530 f   item.obj
 0001:00091600       ?val_real@Item_cache_str@@UAENXZ 00492600 f   item.obj
 0001:00091710       ?val_int@Item_cache_str@@UAE_JXZ 00492710 f   item.obj
 0001:000917f0       ?val_decimal@Item_cache_str@@UAEPAVmy_decimal@@PAV2@@Z 004927f0 f   item.obj
 0001:00091870       ?allocate@Item_cache_row@@UAEHI@Z 00492870 f   item.obj
 0001:000918d0       ?setup@Item_cache_row@@UAEHPAVItem@@@Z 004928d0 f   item.obj
 0001:00091a00       ?store@Item_cache_row@@UAEXPAVItem@@@Z 00492a00 f   item.obj
 0001:00091ad0       ?illegal_method_call@Item_cache_row@@QAEXPBD@Z 00492ad0 f   item.obj
 0001:00091c10       ?check_cols@Item_cache_row@@UAEHI@Z 00492c10 f   item.obj
 0001:00091c60       ?null_inside@Item_cache_row@@UAEHXZ 00492c60 f   item.obj
 0001:00091d60       ?bring_value@Item_cache_row@@UAEXXZ 00492d60 f   item.obj
 0001:00091dd0       ??0Item_type_holder@@QAE@PAVTHD@@PAVItem@@@Z 00492dd0 f   item.obj
 0001:00091f10       ?result_type@Item_type_holder@@UBE?AW4Item_result@@XZ 00492f10 f   item.obj
 0001:00091f40       ?get_real_type@Item_type_holder@@SA?AW4enum_field_types@@PAVItem@@@Z 00492f40 f   item.obj
 0001:000920e0       ?join_types@Item_type_holder@@QAEHPAVTHD@@PAVItem@@@Z 004930e0 f   item.obj
 0001:00092710       ?display_length@Item_type_holder@@SAKPAVItem@@@Z 00493710 f   item.obj
 0001:00092830       ?make_field_by_type@Item_type_holder@@QAEPAVField@@PAUst_table@@@Z 00493830 f   item.obj
 0001:000929c0       ?get_full_info@Item_type_holder@@IAEXPAVItem@@@Z 004939c0 f   item.obj
 0001:00092b00       ?val_real@Item_type_holder@@UAENXZ 00493b00 f   item.obj
 0001:00092b40       ?val_int@Item_type_holder@@UAE_JXZ 00493b40 f   item.obj
 0001:00092b80       ?val_decimal@Item_type_holder@@UAEPAVmy_decimal@@PAV2@@Z 00493b80 f   item.obj
 0001:00092bc0       ?val_str@Item_type_holder@@UAEPAVString@@PAV2@@Z 00493bc0 f   item.obj
 0001:00092c00       ?cleanup@Item_result_field@@UAEXXZ 00493c00 f   item.obj
 0001:00092cf0       ?dummy_error_processor@@YAXPAVTHD@@PAX@Z 00493cf0 f   item.obj
 0001:00092d00       ?view_error_processor@@YAXPAVTHD@@PAX@Z 00493d00 f   item.obj
 0001:000974c0       ?float_length@Item@@QBEII@Z 004984c0 f i item.obj
 0001:00097510       ?my_decimal_add@@YAHIPAVmy_decimal@@PBV1@1@Z 00498510 f i item.obj
 0001:00097550       ?my_decimal_div@@YAHIPAVmy_decimal@@PBV1@1H@Z 00498550 f i item.obj
 0001:000975a0       ?my_decimal_round@@YAHIPBVmy_decimal@@HHPAV1@@Z 004985a0 f i item.obj
 0001:000975f0       ?my_decimal_is_zero@@YAHPBVmy_decimal@@@Z 004985f0 f i item.obj
 0001:00097610       ??0DTCollation@@QAE@PAUcharset_info_st@@W4Derivation@@@Z 00498610 f i item.obj
 0001:00097660       ?set_repertoire_from_charset@DTCollation@@QAEXPAUcharset_info_st@@@Z 00498660 f i item.obj
 0001:000976a0       ??0String@@QAE@ABV0@@Z     004986a0 f i item.obj
 0001:00097710       ?is_stmt_prepare@Query_arena@@QBEHXZ 00498710 f i item.obj
 0001:00097740       ?change_context_processor@Item_ident@@UAEHPAE@Z 00498740 f i item.obj
 0001:00097770       ??_EItem_ident@@UAEPAXI@Z  00498770 f i item.obj
 0001:00097770       ??_GItem_ident@@UAEPAXI@Z  00498770 f i item.obj
 0001:000977c0       ??1Item_ident@@UAE@XZ      004987c0 f i item.obj
 0001:000977f0       ??0Item_func_conv_charset@@QAE@PAVItem@@PAUcharset_info_st@@H@Z 004987f0 f i item.obj
 0001:00097a50       ?mark_as_const@String@@QAEXXZ 00498a50 f i item.obj
 0001:00097a80       ?get_tmp_table_field@Item_result_field@@UAEPAVField@@XZ 00498a80 f i item.obj
 0001:00097aa0       ?set_result_field@Item_result_field@@UAEXPAVField@@@Z 00498aa0 f i item.obj
 0001:00097ad0       ?is_result_field@Item_result_field@@UAEHXZ 00498ad0 f i item.obj
 0001:00097af0       ?save_in_result_field@Item_result_field@@UAEXH@Z 00498af0 f i item.obj
 0001:00097b40       ?type@Item_func@@UBE?AW4Type@Item@@XZ 00498b40 f i item.obj
 0001:00097b60       ?functype@Item_func@@UBE?AW4Functype@1@XZ 00498b60 f i item.obj
 0001:00097b80       ?select_optimize@Item_func@@UBE?AW4optimize_type@1@XZ 00498b80 f i item.obj
 0001:00097ba0       ?have_rev_func@Item_func@@UBEHXZ 00498ba0 f i item.obj
 0001:00097bc0       ?key_item@Item_func@@UBEPAVItem@@XZ 00498bc0 f i item.obj
 0001:00097be0       ?const_item@Item_func@@UBEHXZ 00498be0 f i item.obj
 0001:00097c00       ?is_null@Item_func@@UAEHXZ 00498c00 f i item.obj
 0001:00097c50       ?is_expensive@Item_func@@UAEHXZ 00498c50 f i item.obj
 0001:00097c70       ??0Item_str_func@@QAE@PAVItem@@@Z 00498c70 f i item.obj
 0001:00097cc0       ??0Item_func@@QAE@PAVItem@@@Z 00498cc0 f i item.obj
 0001:00097d50       ??0Item_result_field@@QAE@XZ 00498d50 f i item.obj
 0001:00097da0       ?tmp_table_field@Item_result_field@@UAEPAVField@@PAUst_table@@@Z 00498da0 f i item.obj
 0001:00097dc0       ?used_tables@Item_result_field@@UBE_KXZ 00498dc0 f i item.obj
 0001:00097de0       ??_EItem_result_field@@UAEPAXI@Z 00498de0 f i item.obj
 0001:00097de0       ??_GItem_result_field@@UAEPAXI@Z 00498de0 f i item.obj
 0001:00097e30       ??1Item_result_field@@UAE@XZ 00498e30 f i item.obj
 0001:00097e70       ??_EItem_func@@UAEPAXI@Z   00498e70 f i item.obj
 0001:00097e70       ??_GItem_func@@UAEPAXI@Z   00498e70 f i item.obj
 0001:00097ed0       ??1Item_func@@UAE@XZ       00498ed0 f i item.obj
 0001:00097f00       ?result_type@Item_str_func@@UBE?AW4Item_result@@XZ 00498f00 f i item.obj
 0001:00097f20       ??_EItem_str_func@@UAEPAXI@Z 00498f20 f i item.obj
 0001:00097f20       ??_GItem_str_func@@UAEPAXI@Z 00498f20 f i item.obj
 0001:00097f80       ??1Item_str_func@@UAE@XZ   00498f80 f i item.obj
 0001:00097fb0       ?func_name@Item_func_conv_charset@@UBEPBDXZ 00498fb0 f i item.obj
 0001:00097fd0       ??_GItem_func_conv_charset@@UAEPAXI@Z 00498fd0 f i item.obj
 0001:00097fd0       ??_EItem_func_conv_charset@@UAEPAXI@Z 00498fd0 f i item.obj
 0001:00098030       ??1Item_func_conv_charset@@UAE@XZ 00499030 f i item.obj
 0001:00098060       ??0Item_static_string_func@@QAE@PBD0IPAUcharset_info_st@@W4Derivation@@@Z 00499060 f i item.obj
 0001:000980d0       ?print@Item_static_string_func@@UAEXPAVString@@@Z 004990d0 f i item.obj
 0001:00098110       ??_GItem_static_string_func@@UAEPAXI@Z 00499110 f i item.obj
 0001:00098110       ??_EItem_static_string_func@@UAEPAXI@Z 00499110 f i item.obj
 0001:00098160       ??1Item_static_string_func@@UAE@XZ 00499160 f i item.obj
 0001:00098190       ?make_field@Item_sp_variable@@UAEXPAVSend_field@@@Z 00499190 f i item.obj
 0001:00098270       ?const_item@Item_sp_variable@@UBEHXZ 00499270 f i item.obj
 0001:00098290       ?save_in_field@Item_sp_variable@@UAEHPAVField@@H@Z 00499290 f i item.obj
 0001:00098310       ?send@Item_sp_variable@@UAEHPAVProtocol@@PAVString@@@Z 00499310 f i item.obj
 0001:00098390       ??_GItem_sp_variable@@UAEPAXI@Z 00499390 f i item.obj
 0001:00098390       ??_EItem_sp_variable@@UAEPAXI@Z 00499390 f i item.obj
 0001:000983e0       ??1Item_sp_variable@@UAE@XZ 004993e0 f i item.obj
 0001:00098410       ?set@DTCollation@@QAEXPAUcharset_info_st@@W4Derivation@@@Z 00499410 f i item.obj
 0001:00098460       ??0Settable_routine_parameter@@QAE@XZ 00499460 f i item.obj
 0001:00098490       ?set_required_privilege@Settable_routine_parameter@@UAEXH@Z 00499490 f i item.obj
 0001:000984b0       ??_GSettable_routine_parameter@@UAEPAXI@Z 004994b0 f i item.obj
 0001:000984b0       ??_ESettable_routine_parameter@@UAEPAXI@Z 004994b0 f i item.obj
 0001:00098500       ??1Settable_routine_parameter@@UAE@XZ 00499500 f i item.obj
 0001:00098530       ?is_splocal@Item_splocal@@UAEHXZ 00499530 f i item.obj
 0001:00098550       ?field_type@Item_splocal@@UBE?AW4enum_field_types@@XZ 00499550 f i item.obj
 0001:00098570       ?get_settable_routine_parameter@Item_splocal@@UAEPAVSettable_routine_parameter@@XZ 00499570 f i item.obj
 0001:000985c0       ?type@Item_splocal@@UBE?AW4Type@Item@@XZ 004995c0 f i item.obj
 0001:000985e0       ?result_type@Item_splocal@@UBE?AW4Item_result@@XZ 004995e0 f i item.obj
 0001:00098600       ??_GItem_splocal@@UAEPAXI@Z 00499600 f i item.obj
 0001:00098600       ??_EItem_splocal@@UAEPAXI@Z 00499600 f i item.obj
 0001:00098650       ??1Item_splocal@@UAE@XZ    00499650 f i item.obj
 0001:000986b0       ?get_var_idx@Item_splocal@@QBEIXZ 004996b0 f i item.obj
 0001:000986d0       ?type@Item_case_expr@@UBE?AW4Type@Item@@XZ 004996d0 f i item.obj
 0001:00098740       ?result_type@Item_case_expr@@UBE?AW4Item_result@@XZ 00499740 f i item.obj
 0001:000987b0       ??_GItem_case_expr@@UAEPAXI@Z 004997b0 f i item.obj
 0001:000987b0       ??_EItem_case_expr@@UAEPAXI@Z 004997b0 f i item.obj
 0001:00098800       ??1Item_case_expr@@UAE@XZ  00499800 f i item.obj
 0001:00098830       ?depended_from@Item_sum@@QAEPAVst_select_lex@@XZ 00499830 f i item.obj
 0001:00098890       ?change_item_tree@THD@@QAEXPAPAVItem@@PAV2@@Z 00499890 f i item.obj
 0001:00098900       ?is_conventional@Query_arena@@QBEHXZ 00499900 f i item.obj
 0001:00098930       ??0Item_aggregate_ref@@QAE@PAUName_resolution_context@@PAPAVItem@@PBD2@Z 00499930 f i item.obj
 0001:00098990       ?type@Item_ref@@UBE?AW4Type@Item@@XZ 00499990 f i item.obj
 0001:000989b0       ?eq@Item_ref@@UBEHPBVItem@@H@Z 004999b0 f i item.obj
 0001:00098a70       ?result_type@Item_ref@@UBE?AW4Item_result@@XZ 00499a70 f i item.obj
 0001:00098ac0       ?field_type@Item_ref@@UBE?AW4enum_field_types@@XZ 00499ac0 f i item.obj
 0001:00098b10       ?get_tmp_table_field@Item_ref@@UAEPAVField@@XZ 00499b10 f i item.obj
 0001:00098b90       ?used_tables@Item_ref@@UBE_KXZ 00499b90 f i item.obj
 0001:00098c20       ?update_used_tables@Item_ref@@UAEXXZ 00499c20 f i item.obj
 0001:00098c80       ?not_null_tables@Item_ref@@UBE_KXZ 00499c80 f i item.obj
 0001:00098cd0       ?set_result_field@Item_ref@@UAEXPAVField@@@Z 00499cd0 f i item.obj
 0001:00098d00       ?is_result_field@Item_ref@@UAEHXZ 00499d00 f i item.obj
 0001:00098d20       ?save_in_result_field@Item_ref@@UAEXH@Z 00499d20 f i item.obj
 0001:00098d80       ?real_item@Item_ref@@UAEPAVItem@@XZ 00499d80 f i item.obj
 0001:00098e00       ?walk@Item_ref@@UAEHP8Item@@AEHPAE@Z0@Z 00499e00 f i item.obj
 0001:00098e60       ?result_as_longlong@Item_ref@@UAEHXZ 00499e60 f i item.obj
 0001:00098eb0       ?filed_for_view_update@Item_ref@@UAEPAVItem_field@@XZ 00499eb0 f i item.obj
 0001:00098f00       ?ref_type@Item_ref@@UAE?AW4Ref_Type@1@XZ 00499f00 f i item.obj
 0001:00098f20       ?print@Item_aggregate_ref@@UAEXPAVString@@@Z 00499f20 f i item.obj
 0001:00098fa0       ??_GItem_aggregate_ref@@UAEPAXI@Z 00499fa0 f i item.obj
 0001:00098fa0       ??_EItem_aggregate_ref@@UAEPAXI@Z 00499fa0 f i item.obj
 0001:00099000       ??1Item_aggregate_ref@@UAE@XZ 0049a000 f i item.obj
 0001:00099030       ??1Item_ref@@UAE@XZ        0049a030 f i item.obj
 0001:00099060       ?set@DTCollation@@QAEXAAV1@@Z 0049a060 f i item.obj
 0001:000990b0       ?derivation_name@DTCollation@@QBEPBDXZ 0049a0b0 f i item.obj
 0001:00099150       ??0Query_arena@@QAE@XZ     0049a150 f i item.obj
 0001:00099190       ??1Query_arena@@UAE@XZ     0049a190 f i item.obj
 0001:000991c0       ??_GQuery_arena@@UAEPAXI@Z 0049a1c0 f i item.obj
 0001:000991c0       ??_EQuery_arena@@UAEPAXI@Z 0049a1c0 f i item.obj
 0001:00099210       ?activate_stmt_arena_if_needed@THD@@QAEPAVQuery_arena@@PAV2@@Z 0049a210 f i item.obj
 0001:00099290       ?type@Item_field@@UBE?AW4Type@Item@@XZ 0049a290 f i item.obj
 0001:000992b0       ?result_type@Item_field@@UBE?AW4Item_result@@XZ 0049a2b0 f i item.obj
 0001:00099300       ?cast_to_int_type@Item_field@@UBE?AW4Item_result@@XZ 0049a300 f i item.obj
 0001:00099350       ?field_type@Item_field@@UBE?AW4enum_field_types@@XZ 0049a350 f i item.obj
 0001:000993a0       ?get_tmp_table_field@Item_field@@UAEPAVField@@XZ 0049a3a0 f i item.obj
 0001:000993c0       ?tmp_table_field@Item_field@@UAEPAVField@@PAUst_table@@@Z 0049a3c0 f i item.obj
 0001:000993e0       ?is_null@Item_field@@UAEHXZ 0049a3e0 f i item.obj
 0001:00099420       ?reset_query_id_processor@Item_field@@UAEHPAE@Z 0049a420 f i item.obj
 0001:00099480       ?result_as_longlong@Item_field@@UAEHXZ 0049a480 f i item.obj
 0001:000994d0       ?filed_for_view_update@Item_field@@UAEPAV1@XZ 0049a4d0 f i item.obj
 0001:000994f0       ??_EItem_field@@UAEPAXI@Z  0049a4f0 f i item.obj
 0001:000994f0       ??_GItem_field@@UAEPAXI@Z  0049a4f0 f i item.obj
 0001:00099550       ??1Item_field@@UAE@XZ      0049a550 f i item.obj
 0001:00099580       ?is_stmt_prepare_or_first_sp_execute@Query_arena@@QBEHXZ 0049a580 f i item.obj
 0001:000995b0       ?strdup@Query_arena@@QAEPADPBD@Z 0049a5b0 f i item.obj
 0001:000995f0       ?set@DTCollation@@QAEXW4Derivation@@@Z 0049a5f0 f i item.obj
 0001:00099620       ?val_real@Item_uint@@UAENXZ 0049a620 f i item.obj
 0001:00099690       ?clone_item@Item_uint@@UAEPAVItem@@XZ 0049a690 f i item.obj
 0001:00099710       ?decimal_precision@Item_uint@@UBEIXZ 0049a710 f i item.obj
 0001:00099730       ??_EItem_uint@@UAEPAXI@Z   0049a730 f i item.obj
 0001:00099730       ??_GItem_uint@@UAEPAXI@Z   0049a730 f i item.obj
 0001:00099780       ??1Item_uint@@UAE@XZ       0049a780 f i item.obj
 0001:000997b0       ?type@Item_decimal@@UBE?AW4Type@Item@@XZ 0049a7b0 f i item.obj
 0001:000997d0       ?result_type@Item_decimal@@UBE?AW4Item_result@@XZ 0049a7d0 f i item.obj
 0001:000997f0       ?field_type@Item_decimal@@UBE?AW4enum_field_types@@XZ 0049a7f0 f i item.obj
 0001:00099810       ?val_decimal@Item_decimal@@UAEPAVmy_decimal@@PAV2@@Z 0049a810 f i item.obj
 0001:00099830       ?basic_const_item@Item_decimal@@UBEHXZ 0049a830 f i item.obj
 0001:00099850       ?clone_item@Item_decimal@@UAEPAVItem@@XZ 0049a850 f i item.obj
 0001:000998f0       ?cleanup@Item_decimal@@UAEXXZ 0049a8f0 f i item.obj
 0001:00099910       ?neg@Item_decimal@@UAEPAVItem_num@@XZ 0049a910 f i item.obj
 0001:00099970       ?my_decimal_neg@@YAXPAUst_decimal_t@@@Z 0049a970 f i item.obj
 0001:000999c0       ?decimal_precision@Item_decimal@@UBEIXZ 0049a9c0 f i item.obj
 0001:000999f0       ?precision@my_decimal@@QBEIXZ 0049a9f0 f i item.obj
 0001:00099a20       ??_EItem_decimal@@UAEPAXI@Z 0049aa20 f i item.obj
 0001:00099a20       ??_GItem_decimal@@UAEPAXI@Z 0049aa20 f i item.obj
 0001:00099a80       ??1Item_decimal@@UAE@XZ    0049aa80 f i item.obj
 0001:00099ab0       ?my_decimal2decimal@@YAXPBVmy_decimal@@PAV1@@Z 0049aab0 f i item.obj
 0001:00099ae0       ?my_decimal_cmp@@YAHPBVmy_decimal@@0@Z 0049aae0 f i item.obj
 0001:00099b10       ?set@DTCollation@@QAEXPAUcharset_info_st@@@Z 0049ab10 f i item.obj
 0001:00099b50       ?result_type@Item_param@@UBE?AW4Item_result@@XZ 0049ab50 f i item.obj
 0001:00099b80       ?type@Item_param@@UBE?AW4Type@Item@@XZ 0049ab80 f i item.obj
 0001:00099bb0       ?field_type@Item_param@@UBE?AW4enum_field_types@@XZ 0049abb0 f i item.obj
 0001:00099be0       ?used_tables@Item_param@@UBE_KXZ 0049abe0 f i item.obj
 0001:00099c50       ?is_null@Item_param@@UAEHXZ 0049ac50 f i item.obj
 0001:00099cc0       ??_EItem_param@@UAEPAXI@Z  0049acc0 f i item.obj
 0001:00099cc0       ??_GItem_param@@UAEPAXI@Z  0049acc0 f i item.obj
 0001:00099d20       ??1Item_param@@UAE@XZ      0049ad20 f i item.obj
 0001:00099d70       ?str2my_decimal@@YAHIPBDPAVmy_decimal@@PAPAD@Z 0049ad70 f i item.obj
 0001:00099db0       ?string2my_decimal@@YAHIPBVString@@PAVmy_decimal@@@Z 0049adb0 f i item.obj
 0001:00099e00       ??0Item_null@@QAE@PAD@Z    0049ae00 f i item.obj
 0001:00099eb0       ?type@Item_null@@UBE?AW4Type@Item@@XZ 0049aeb0 f i item.obj
 0001:00099ed0       ?result_type@Item_null@@UBE?AW4Item_result@@XZ 0049aed0 f i item.obj
 0001:00099ef0       ?field_type@Item_null@@UBE?AW4enum_field_types@@XZ 0049aef0 f i item.obj
 0001:00099f10       ?cleanup@Item_null@@UAEXXZ 0049af10 f i item.obj
 0001:00099f30       ?basic_const_item@Item_null@@UBEHXZ 0049af30 f i item.obj
 0001:00099f50       ?clone_item@Item_null@@UAEPAVItem@@XZ 0049af50 f i item.obj
 0001:00099fd0       ?is_null@Item_null@@UAEHXZ 0049afd0 f i item.obj
 0001:00099ff0       ?print@Item_null@@UAEXPAVString@@@Z 0049aff0 f i item.obj
 0001:0009a030       ??_EItem_null@@UAEPAXI@Z   0049b030 f i item.obj
 0001:0009a030       ??_GItem_null@@UAEPAXI@Z   0049b030 f i item.obj
 0001:0009a080       ??1Item_null@@UAE@XZ       0049b080 f i item.obj
 0001:0009a0b0       ??0Item_float@@QAE@PBDNII@Z 0049b0b0 f i item.obj
 0001:0009a130       ?type@Item_float@@UBE?AW4Type@Item@@XZ 0049b130 f i item.obj
 0001:0009a150       ?field_type@Item_float@@UBE?AW4enum_field_types@@XZ 0049b150 f i item.obj
 0001:0009a170       ?val_real@Item_float@@UAENXZ 0049b170 f i item.obj
 0001:0009a1d0       ?val_int@Item_float@@UAE_JXZ 0049b1d0 f i item.obj
 0001:0009a290       ?basic_const_item@Item_float@@UBEHXZ 0049b290 f i item.obj
 0001:0009a2b0       ?cleanup@Item_float@@UAEXXZ 0049b2b0 f i item.obj
 0001:0009a2d0       ?clone_item@Item_float@@UAEPAVItem@@XZ 0049b2d0 f i item.obj
 0001:0009a370       ?neg@Item_float@@UAEPAVItem_num@@XZ 0049b370 f i item.obj
 0001:0009a3a0       ??_GItem_float@@UAEPAXI@Z  0049b3a0 f i item.obj
 0001:0009a3a0       ??_EItem_float@@UAEPAXI@Z  0049b3a0 f i item.obj
 0001:0009a3f0       ??1Item_float@@UAE@XZ      0049b3f0 f i item.obj
 0001:0009a420       ??0Item_ref@@QAE@PAUName_resolution_context@@PBD11@Z 0049b420 f i item.obj
 0001:0009a490       ??_EItem_ref@@UAEPAXI@Z    0049b490 f i item.obj
 0001:0009a490       ??_GItem_ref@@UAEPAXI@Z    0049b490 f i item.obj
 0001:0009a4f0       ??0Item_direct_ref@@QAE@PAUName_resolution_context@@PAPAVItem@@PBD2H@Z 0049b4f0 f i item.obj
 0001:0009a550       ?ref_type@Item_direct_ref@@UAE?AW4Ref_Type@Item_ref@@XZ 0049b550 f i item.obj
 0001:0009a570       ??_EItem_direct_ref@@UAEPAXI@Z 0049b570 f i item.obj
 0001:0009a570       ??_GItem_direct_ref@@UAEPAXI@Z 0049b570 f i item.obj
 0001:0009a5d0       ??1Item_direct_ref@@UAE@XZ 0049b5d0 f i item.obj
 0001:0009a600       ??0Item_outer_ref@@QAE@PAUName_resolution_context@@PAVItem_field@@@Z 0049b600 f i item.obj
 0001:0009a6b0       ??0Item_outer_ref@@QAE@PAUName_resolution_context@@PAPAVItem@@PBD2H@Z 0049b6b0 f i item.obj
 0001:0009a740       ?save_in_result_field@Item_outer_ref@@UAEXH@Z 0049b740 f i item.obj
 0001:0009a7a0       ?used_tables@Item_outer_ref@@UBE_KXZ 0049b7a0 f i item.obj
 0001:0009a840       ?ref_type@Item_outer_ref@@UAE?AW4Ref_Type@Item_ref@@XZ 0049b840 f i item.obj
 0001:0009a860       ??_EItem_outer_ref@@UAEPAXI@Z 0049b860 f i item.obj
 0001:0009a860       ??_GItem_outer_ref@@UAEPAXI@Z 0049b860 f i item.obj
 0001:0009a8c0       ??1Item_outer_ref@@UAE@XZ  0049b8c0 f i item.obj
 0001:0009a8f0       ?first_select@st_select_lex_unit@@QAEPAVst_select_lex@@XZ 0049b8f0 f i item.obj
 0001:0009a910       ?process_error@Name_resolution_context@@QAEXPAVTHD@@@Z 0049b910 f i item.obj
 0001:0009a960       ?get_const@Item_equal@@QAEPAVItem@@XZ 0049b960 f i item.obj
 0001:0009a990       ?get_first@Item_equal@@QAEPAVItem_field@@XZ 0049b990 f i item.obj
 0001:0009a9d0       ??0Field_string@@QAE@KHPBDPAUst_table@@PAUcharset_info_st@@@Z 0049b9d0 f i item.obj
 0001:0009aa50       ??0Field_blob@@QAE@KHPBDPAUst_table@@PAUcharset_info_st@@@Z 0049ba50 f i item.obj
 0001:0009aaf0       ??0Field_date@@QAE@HPBDPAUst_table@@PAUcharset_info_st@@@Z 0049baf0 f i item.obj
 0001:0009ab60       ??0Field_time@@QAE@HPBDPAUst_table@@PAUcharset_info_st@@@Z 0049bb60 f i item.obj
 0001:0009abd0       ??0Field_datetime@@QAE@HPBDPAUst_table@@PAUcharset_info_st@@@Z 0049bbd0 f i item.obj
 0001:0009ac40       ??0Field_blob@@QAE@KHPBDPAUst_table@@PAUcharset_info_st@@H@Z 0049bc40 f i item.obj
 0001:0009ad60       ??0Field_geom@@QAE@KHPBDPAUst_table@@W4geometry_type@Field@@@Z 0049bd60 f i item.obj
 0001:0009add0       ?get_geometry_type@Item_type_holder@@QAE?AW4geometry_type@Field@@XZ 0049bdd0 f i item.obj
 0001:0009adf0       ?type@Item_hex_string@@UBE?AW4Type@Item@@XZ 0049bdf0 f i item.obj
 0001:0009ae10       ?val_real@Item_hex_string@@UAENXZ 0049be10 f i item.obj
 0001:0009aec0       ?basic_const_item@Item_hex_string@@UBEHXZ 0049bec0 f i item.obj
 0001:0009aee0       ?val_str@Item_hex_string@@UAEPAVString@@PAV2@@Z 0049bee0 f i item.obj
 0001:0009af40       ?result_type@Item_hex_string@@UBE?AW4Item_result@@XZ 0049bf40 f i item.obj
 0001:0009af60       ?cast_to_int_type@Item_hex_string@@UBE?AW4Item_result@@XZ 0049bf60 f i item.obj
 0001:0009af80       ?field_type@Item_hex_string@@UBE?AW4enum_field_types@@XZ 0049bf80 f i item.obj
 0001:0009afa0       ?cleanup@Item_hex_string@@UAEXXZ 0049bfa0 f i item.obj
 0001:0009afc0       ??_GItem_hex_string@@UAEPAXI@Z 0049bfc0 f i item.obj
 0001:0009afc0       ??_EItem_hex_string@@UAEPAXI@Z 0049bfc0 f i item.obj
 0001:0009b010       ??1Item_hex_string@@UAE@XZ 0049c010 f i item.obj
 0001:0009b040       ?char_val@@YAID@Z          0049c040 f i item.obj
 0001:0009b0c0       ??0Item_hex_string@@QAE@XZ 0049c0c0 f i item.obj
 0001:0009b100       ??_GItem_bin_string@@UAEPAXI@Z 0049c100 f i item.obj
 0001:0009b100       ??_EItem_bin_string@@UAEPAXI@Z 0049c100 f i item.obj
 0001:0009b150       ??1Item_bin_string@@UAE@XZ 0049c150 f i item.obj
 0001:0009b180       ?top_table@TABLE_LIST@@QAEPAU1@XZ 0049c180 f i item.obj
 0001:0009b1d0       ??0Item_cache_int@@QAE@XZ  0049c1d0 f i item.obj
 0001:0009b230       ??0Item_cache@@QAE@XZ      0049c230 f i item.obj
 0001:0009b2a0       ?allocate@Item_cache@@UAEHI@Z 0049c2a0 f i item.obj
 0001:0009b2c0       ?setup@Item_cache@@UAEHPAVItem@@@Z 0049c2c0 f i item.obj
 0001:0009b340       ?type@Item_cache@@UBE?AW4Type@Item@@XZ 0049c340 f i item.obj
 0001:0009b360       ?used_tables@Item_cache@@UBE_KXZ 0049c360 f i item.obj
 0001:0009b390       ?keep_array@Item_cache@@UAEXXZ 0049c390 f i item.obj
 0001:0009b3b0       ?cleanup@Item_cache@@UAEXXZ 0049c3b0 f i item.obj
 0001:0009b3d0       ??_EItem_cache@@UAEPAXI@Z  0049c3d0 f i item.obj
 0001:0009b3d0       ??_GItem_cache@@UAEPAXI@Z  0049c3d0 f i item.obj
 0001:0009b420       ??1Item_cache@@UAE@XZ      0049c420 f i item.obj
 0001:0009b450       ?val_real@Item_cache_int@@UAENXZ 0049c450 f i item.obj
 0001:0009b4b0       ?val_int@Item_cache_int@@UAE_JXZ 0049c4b0 f i item.obj
 0001:0009b510       ?result_type@Item_cache_int@@UBE?AW4Item_result@@XZ 0049c510 f i item.obj
 0001:0009b530       ?result_as_longlong@Item_cache_int@@UAEHXZ 0049c530 f i item.obj
 0001:0009b550       ??_GItem_cache_int@@UAEPAXI@Z 0049c550 f i item.obj
 0001:0009b550       ??_EItem_cache_int@@UAEPAXI@Z 0049c550 f i item.obj
 0001:0009b5a0       ??1Item_cache_int@@UAE@XZ  0049c5a0 f i item.obj
 0001:0009b5d0       ??0Item_cache_real@@QAE@XZ 0049c5d0 f i item.obj
 0001:0009b620       ?val_real@Item_cache_real@@UAENXZ 0049c620 f i item.obj
 0001:0009b680       ?result_type@Item_cache_real@@UBE?AW4Item_result@@XZ 0049c680 f i item.obj
 0001:0009b6a0       ??_EItem_cache_real@@UAEPAXI@Z 0049c6a0 f i item.obj
 0001:0009b6a0       ??_GItem_cache_real@@UAEPAXI@Z 0049c6a0 f i item.obj
 0001:0009b6f0       ??1Item_cache_real@@UAE@XZ 0049c6f0 f i item.obj
 0001:0009b720       ??0Item_cache_decimal@@QAE@XZ 0049c720 f i item.obj
 0001:0009b770       ?result_type@Item_cache_decimal@@UBE?AW4Item_result@@XZ 0049c770 f i item.obj
 0001:0009b790       ??_EItem_cache_decimal@@UAEPAXI@Z 0049c790 f i item.obj
 0001:0009b790       ??_GItem_cache_decimal@@UAEPAXI@Z 0049c790 f i item.obj
 0001:0009b7f0       ??1Item_cache_decimal@@UAE@XZ 0049c7f0 f i item.obj
 0001:0009b820       ??0Item_cache_str@@QAE@XZ  0049c820 f i item.obj
 0001:0009b880       ?val_str@Item_cache_str@@UAEPAVString@@PAV2@@Z 0049c880 f i item.obj
 0001:0009b8e0       ?result_type@Item_cache_str@@UBE?AW4Item_result@@XZ 0049c8e0 f i item.obj
 0001:0009b900       ??_EItem_cache_str@@UAEPAXI@Z 0049c900 f i item.obj
 0001:0009b900       ??_GItem_cache_str@@UAEPAXI@Z 0049c900 f i item.obj
 0001:0009b960       ??1Item_cache_str@@UAE@XZ  0049c960 f i item.obj
 0001:0009b9a0       ??0Item_cache_row@@QAE@XZ  0049c9a0 f i item.obj
 0001:0009ba10       ?make_field@Item_cache_row@@UAEXPAVSend_field@@@Z 0049ca10 f i item.obj
 0001:0009ba50       ?val_real@Item_cache_row@@UAENXZ 0049ca50 f i item.obj
 0001:0009ba90       ?val_int@Item_cache_row@@UAE_JXZ 0049ca90 f i item.obj
 0001:0009bad0       ?val_str@Item_cache_row@@UAEPAVString@@PAV2@@Z 0049cad0 f i item.obj
 0001:0009bb10       ?val_decimal@Item_cache_row@@UAEPAVmy_decimal@@PAV2@@Z 0049cb10 f i item.obj
 0001:0009bb50       ?result_type@Item_cache_row@@UBE?AW4Item_result@@XZ 0049cb50 f i item.obj
 0001:0009bb70       ?cols@Item_cache_row@@UAEIXZ 0049cb70 f i item.obj
 0001:0009bb90       ?element_index@Item_cache_row@@UAEPAVItem@@I@Z 0049cb90 f i item.obj
 0001:0009bbc0       ?addr@Item_cache_row@@UAEPAPAVItem@@I@Z 0049cbc0 f i item.obj
 0001:0009bbf0       ?keep_array@Item_cache_row@@UAEXXZ 0049cbf0 f i item.obj
 0001:0009bc20       ?cleanup@Item_cache_row@@UAEXXZ 0049cc20 f i item.obj
 0001:0009bd80       ??_GItem_cache_row@@UAEPAXI@Z 0049cd80 f i item.obj
 0001:0009bd80       ??_EItem_cache_row@@UAEPAXI@Z 0049cd80 f i item.obj
 0001:0009bdd0       ??1Item_cache_row@@UAE@XZ  0049cdd0 f i item.obj
 0001:0009be00       ?decimal_int_part@Item@@QBEHXZ 0049ce00 f i item.obj
 0001:0009be60       ?my_decimal_int_part@@YAHII@Z 0049ce60 f i item.obj
 0001:0009be80       ?get_geometry_type@Item_field@@QAE?AW4geometry_type@Field@@XZ 0049ce80 f i item.obj
 0001:0009bf10       ?field_type@Item_type_holder@@UBE?AW4enum_field_types@@XZ 0049cf10 f i item.obj
 0001:0009bf30       ?type@Item_type_holder@@UBE?AW4Type@Item@@XZ 0049cf30 f i item.obj
 0001:0009bf50       ??_GItem_type_holder@@UAEPAXI@Z 0049cf50 f i item.obj
 0001:0009bf50       ??_EItem_type_holder@@UAEPAXI@Z 0049cf50 f i item.obj
 0001:0009bfa0       ??1Item_type_holder@@UAE@XZ 0049cfa0 f i item.obj
 0001:0009bfd0       ?max_disp_length@Item_field@@QAEKXZ 0049cfd0 f i item.obj
 0001:0009c020       ?push_front@?$List@VItem@@@@QAEHPAVItem@@@Z 0049d020 f i item.obj
 0001:0009c060       ?push_front@base_list@@QAEHPAX@Z 0049d060 f i item.obj
 0001:0009c130       ?push_back@?$List@VItem_field@@@@QAEHPAVItem_field@@@Z 0049d130 f i item.obj
 0001:0009c170       ?head@?$List@VItem_field@@@@QAEPAVItem_field@@XZ 0049d170 f i item.obj
 0001:0009c1a0       ?head@base_list@@QAEPAXXZ  0049d1a0 f i item.obj
 0001:0009c1c0       ?push_back@?$List@VItem_outer_ref@@@@QAEHPAVItem_outer_ref@@@Z 0049d1c0 f i item.obj
 0001:0009c200       ??0?$List_iterator@VItem_field@@@@QAE@AAV?$List@VItem_field@@@@@Z 0049d200 f i item.obj
 0001:0009c240       ??E?$List_iterator@VItem_field@@@@QAEPAVItem_field@@H@Z 0049d240 f i item.obj
 0001:0009c270       ??0?$List_iterator_fast@VItem_equal@@@@QAE@AAV?$List@VItem_equal@@@@@Z 0049d270 f i item.obj
 0001:0009c2b0       ??E?$List_iterator_fast@VItem_equal@@@@QAEPAVItem_equal@@H@Z 0049d2b0 f i item.obj
 0001:0009c2e0       ??_EItem_splocal@@WFM@AEPAXI@Z 0049d2e0 f i item.obj
 0001:0009c2f0       ??0Hybrid_type_traits@@QAE@XZ 0049d2f0 f i item.obj
 0001:0009c320       ?type@Hybrid_type_traits@@UBE?AW4Item_result@@XZ 0049d320 f i item.obj
 0001:0009c340       ?set_zero@Hybrid_type_traits@@UBEXPAUHybrid_type@@@Z 0049d340 f i item.obj
 0001:0009c370       ?add@Hybrid_type_traits@@UBEXPAUHybrid_type@@PAVField@@@Z 0049d370 f i item.obj
 0001:0009c3c0       ?div@Hybrid_type_traits@@UBEXPAUHybrid_type@@_K@Z 0049d3c0 f i item.obj
 0001:0009c410       ?val_int@Hybrid_type_traits@@UBE_JPAUHybrid_type@@H@Z 0049d410 f i item.obj
 0001:0009c460       ?val_real@Hybrid_type_traits@@UBENPAUHybrid_type@@@Z 0049d460 f i item.obj
 0001:0009c480       ??_GHybrid_type_traits@@UAEPAXI@Z 0049d480 f i item.obj
 0001:0009c480       ??_EHybrid_type_traits@@UAEPAXI@Z 0049d480 f i item.obj
 0001:0009c4d0       ??1Hybrid_type_traits@@UAE@XZ 0049d4d0 f i item.obj
 0001:0009c500       ??0Hybrid_type_traits_decimal@@QAE@XZ 0049d500 f i item.obj
 0001:0009c540       ?type@Hybrid_type_traits_decimal@@UBE?AW4Item_result@@XZ 0049d540 f i item.obj
 0001:0009c560       ?val_decimal@Hybrid_type_traits_decimal@@UBEPAVmy_decimal@@PAUHybrid_type@@PAV2@@Z 0049d560 f i item.obj
 0001:0009c590       ??_GHybrid_type_traits_decimal@@UAEPAXI@Z 0049d590 f i item.obj
 0001:0009c590       ??_EHybrid_type_traits_decimal@@UAEPAXI@Z 0049d590 f i item.obj
 0001:0009c5e0       ??1Hybrid_type_traits_decimal@@UAE@XZ 0049d5e0 f i item.obj
 0001:0009c610       ??0Hybrid_type_traits_integer@@QAE@XZ 0049d610 f i item.obj
 0001:0009c650       ?type@Hybrid_type_traits_integer@@UBE?AW4Item_result@@XZ 0049d650 f i item.obj
 0001:0009c670       ?set_zero@Hybrid_type_traits_integer@@UBEXPAUHybrid_type@@@Z 0049d670 f i item.obj
 0001:0009c6a0       ?add@Hybrid_type_traits_integer@@UBEXPAUHybrid_type@@PAVField@@@Z 0049d6a0 f i item.obj
 0001:0009c700       ?div@Hybrid_type_traits_integer@@UBEXPAUHybrid_type@@_K@Z 0049d700 f i item.obj
 0001:0009c750       ?val_int@Hybrid_type_traits_integer@@UBE_JPAUHybrid_type@@H@Z 0049d750 f i item.obj
 0001:0009c780       ?val_real@Hybrid_type_traits_integer@@UBENPAUHybrid_type@@@Z 0049d780 f i item.obj
 0001:0009c7a0       ?val_decimal@Hybrid_type_traits_integer@@UBEPAVmy_decimal@@PAUHybrid_type@@PAV2@@Z 0049d7a0 f i item.obj
 0001:0009c800       ?val_str@Hybrid_type_traits_integer@@UBEPAVString@@PAUHybrid_type@@PAV2@E@Z 0049d800 f i item.obj
 0001:0009c850       ??_GHybrid_type_traits_integer@@UAEPAXI@Z 0049d850 f i item.obj
 0001:0009c850       ??_EHybrid_type_traits_integer@@UAEPAXI@Z 0049d850 f i item.obj
 0001:0009c8a0       ??1Hybrid_type_traits_integer@@UAE@XZ 0049d8a0 f i item.obj
 0001:0009c8d0       ?new_Cached_item@@YAPAVCached_item@@PAVTHD@@PAVItem@@@Z 0049d8d0 f   item_buff.obj
 0001:0009cac0       ??1Cached_item@@UAE@XZ     0049dac0 f   item_buff.obj
 0001:0009cb10       ??0Cached_item_str@@QAE@PAVTHD@@PAVItem@@@Z 0049db10 f   item_buff.obj
 0001:0009cba0       ?cmp@Cached_item_str@@UAEHXZ 0049dba0 f   item_buff.obj
 0001:0009ccc0       ??1Cached_item_str@@UAE@XZ 0049dcc0 f   item_buff.obj
 0001:0009cd10       ?cmp@Cached_item_real@@UAEHXZ 0049dd10 f   item_buff.obj
 0001:0009cdb0       ?cmp@Cached_item_int@@UAEHXZ 0049ddb0 f   item_buff.obj
 0001:0009ce60       ?cmp@Cached_item_field@@UAEHXZ 0049de60 f   item_buff.obj
 0001:0009cf30       ??0Cached_item_decimal@@QAE@PAVItem@@@Z 0049df30 f   item_buff.obj
 0001:0009cf90       ?cmp@Cached_item_decimal@@UAEHXZ 0049df90 f   item_buff.obj
 0001:0009d270       ??0Cached_item_real@@QAE@PAVItem@@@Z 0049e270 f i item_buff.obj
 0001:0009d2d0       ??0Cached_item@@QAE@XZ     0049e2d0 f i item_buff.obj
 0001:0009d320       ??_ECached_item@@UAEPAXI@Z 0049e320 f i item_buff.obj
 0001:0009d320       ??_GCached_item@@UAEPAXI@Z 0049e320 f i item_buff.obj
 0001:0009d370       ??_GCached_item_real@@UAEPAXI@Z 0049e370 f i item_buff.obj
 0001:0009d370       ??_ECached_item_real@@UAEPAXI@Z 0049e370 f i item_buff.obj
 0001:0009d3c0       ??1Cached_item_real@@UAE@XZ 0049e3c0 f i item_buff.obj
 0001:0009d3f0       ??0Cached_item_int@@QAE@PAVItem@@@Z 0049e3f0 f i item_buff.obj
 0001:0009d450       ??_ECached_item_int@@UAEPAXI@Z 0049e450 f i item_buff.obj
 0001:0009d450       ??_GCached_item_int@@UAEPAXI@Z 0049e450 f i item_buff.obj
 0001:0009d4a0       ??1Cached_item_int@@UAE@XZ 0049e4a0 f i item_buff.obj
 0001:0009d4d0       ??0Cached_item_field@@QAE@PAVItem_field@@@Z 0049e4d0 f i item_buff.obj
 0001:0009d570       ??_GCached_item_field@@UAEPAXI@Z 0049e570 f i item_buff.obj
 0001:0009d570       ??_ECached_item_field@@UAEPAXI@Z 0049e570 f i item_buff.obj
 0001:0009d5c0       ??1Cached_item_field@@UAE@XZ 0049e5c0 f i item_buff.obj
 0001:0009d5f0       ??0String@@QAE@K@Z         0049e5f0 f i item_buff.obj
 0001:0009d650       ??_GCached_item_str@@UAEPAXI@Z 0049e650 f i item_buff.obj
 0001:0009d650       ??_ECached_item_str@@UAEPAXI@Z 0049e650 f i item_buff.obj
 0001:0009d6a0       ?cmp@Field@@QAEHPBD@Z      0049e6a0 f i item_buff.obj
 0001:0009d6f0       ??_GCached_item_decimal@@UAEPAXI@Z 0049e6f0 f i item_buff.obj
 0001:0009d6f0       ??_ECached_item_decimal@@UAEPAXI@Z 0049e6f0 f i item_buff.obj
 0001:0009d740       ??1Cached_item_decimal@@UAE@XZ 0049e740 f i item_buff.obj
 0001:0009d770       ?create@Eq_creator@@UBEPAVItem_bool_func2@@PAVItem@@0@Z 0049e770 f   item_cmpfunc.obj
 0001:0009d7e0       ?create@Ne_creator@@UBEPAVItem_bool_func2@@PAVItem@@0@Z 0049e7e0 f   item_cmpfunc.obj
 0001:0009d850       ?create@Gt_creator@@UBEPAVItem_bool_func2@@PAVItem@@0@Z 0049e850 f   item_cmpfunc.obj
 0001:0009d8c0       ?create@Lt_creator@@UBEPAVItem_bool_func2@@PAVItem@@0@Z 0049e8c0 f   item_cmpfunc.obj
 0001:0009d930       ?create@Ge_creator@@UBEPAVItem_bool_func2@@PAVItem@@0@Z 0049e930 f   item_cmpfunc.obj
 0001:0009d9a0       ?create@Le_creator@@UBEPAVItem_bool_func2@@PAVItem@@0@Z 0049e9a0 f   item_cmpfunc.obj
 0001:0009da10       ?val_int@Item_func_not@@UAE_JXZ 0049ea10 f   item_cmpfunc.obj
 0001:0009dac0       ?print@Item_func_not@@UAEXPAVString@@@Z 0049eac0 f   item_cmpfunc.obj
 0001:0009db00       ?val_int@Item_func_not_all@@UAE_JXZ 0049eb00 f   item_cmpfunc.obj
 0001:0009dbc0       ?empty_underlying_subquery@Item_func_not_all@@QAEHXZ 0049ebc0 f   item_cmpfunc.obj
 0001:0009dc40       ?print@Item_func_not_all@@UAEXPAVString@@@Z 0049ec40 f   item_cmpfunc.obj
 0001:0009dca0       ?val_int@Item_func_nop_all@@UAE_JXZ 0049eca0 f   item_cmpfunc.obj
 0001:0009dd60       ?fix_length_and_dec@Item_bool_func2@@UAEXXZ 0049ed60 f   item_cmpfunc.obj
 0001:0009e280       ?set_compare_func@Arg_comparator@@QAEHPAVItem_bool_func2@@W4Item_result@@@Z 0049f280 f   item_cmpfunc.obj
 0001:0009e820       ?can_compare_as_dates@Arg_comparator@@SA?AW4enum_date_cmp_type@1@PAVItem@@0PA_K@Z 0049f820 f   item_cmpfunc.obj
 0001:0009ebb0       ?get_time_value@@YA_KPAVTHD@@PAPAPAVItem@@PAPAV2@PAV2@PAH@Z 0049fbb0 f   item_cmpfunc.obj
 0001:0009ed70       ?set_cmp_func@Arg_comparator@@QAEHPAVItem_bool_func2@@PAPAVItem@@1W4Item_result@@@Z 0049fd70 f   item_cmpfunc.obj
 0001:0009f090       ?set_datetime_cmp_func@Arg_comparator@@QAEXPAPAVItem@@0@Z 004a0090 f   item_cmpfunc.obj
 0001:0009f150       ?get_datetime_value@@YA_KPAVTHD@@PAPAPAVItem@@PAPAV2@PAV2@PAH@Z 004a0150 f   item_cmpfunc.obj
 0001:0009f3e0       ?compare_datetime@Arg_comparator@@QAEHXZ 004a03e0 f   item_cmpfunc.obj
 0001:0009f5a0       ?compare_string@Arg_comparator@@QAEHXZ 004a05a0 f   item_cmpfunc.obj
 0001:0009f670       ?compare_binary_string@Arg_comparator@@QAEHXZ 004a0670 f   item_cmpfunc.obj
 0001:0009f7a0       ?compare_e_string@Arg_comparator@@QAEHXZ 004a07a0 f   item_cmpfunc.obj
 0001:0009f860       ?compare_e_binary_string@Arg_comparator@@QAEHXZ 004a0860 f   item_cmpfunc.obj
 0001:0009f920       ?compare_real@Arg_comparator@@QAEHXZ 004a0920 f   item_cmpfunc.obj
 0001:0009fa00       ?compare_decimal@Arg_comparator@@QAEHXZ 004a0a00 f   item_cmpfunc.obj
 0001:0009fb20       ?compare_e_real@Arg_comparator@@QAEHXZ 004a0b20 f   item_cmpfunc.obj
 0001:0009fc10       ?compare_e_decimal@Arg_comparator@@QAEHXZ 004a0c10 f   item_cmpfunc.obj
 0001:0009fd60       ?compare_real_fixed@Arg_comparator@@QAEHXZ 004a0d60 f   item_cmpfunc.obj
 0001:0009fe60       ?compare_e_real_fixed@Arg_comparator@@QAEHXZ 004a0e60 f   item_cmpfunc.obj
 0001:0009ff70       ?compare_int_signed@Arg_comparator@@QAEHXZ 004a0f70 f   item_cmpfunc.obj
 0001:000a0050       ?compare_int_unsigned@Arg_comparator@@QAEHXZ 004a1050 f   item_cmpfunc.obj
 0001:000a0130       ?compare_int_signed_unsigned@Arg_comparator@@QAEHXZ 004a1130 f   item_cmpfunc.obj
 0001:000a0220       ?compare_int_unsigned_signed@Arg_comparator@@QAEHXZ 004a1220 f   item_cmpfunc.obj
 0001:000a0320       ?compare_e_int@Arg_comparator@@QAEHXZ 004a1320 f   item_cmpfunc.obj
 0001:000a0410       ?compare_e_int_diff_signedness@Arg_comparator@@QAEHXZ 004a1410 f   item_cmpfunc.obj
 0001:000a0530       ?compare_row@Arg_comparator@@QAEHXZ 004a1530 f   item_cmpfunc.obj
 0001:000a06b0       ?compare_e_row@Arg_comparator@@QAEHXZ 004a16b0 f   item_cmpfunc.obj
 0001:000a0780       ?fix_length_and_dec@Item_func_truth@@UAEXXZ 004a1780 f   item_cmpfunc.obj
 0001:000a07c0       ?print@Item_func_truth@@UAEXPAVString@@@Z 004a17c0 f   item_cmpfunc.obj
 0001:000a0870       ?val_bool@Item_func_truth@@UAEHXZ 004a1870 f   item_cmpfunc.obj
 0001:000a0910       ?val_int@Item_func_truth@@UAE_JXZ 004a1910 f   item_cmpfunc.obj
 0001:000a0950       ?fix_left@Item_in_optimizer@@QAEHPAVTHD@@PAPAVItem@@@Z 004a1950 f   item_cmpfunc.obj
 0001:000a0c60       ?fix_fields@Item_in_optimizer@@UAEHPAVTHD@@PAPAVItem@@@Z 004a1c60 f   item_cmpfunc.obj
 0001:000a0eb0       ?val_int@Item_in_optimizer@@UAE_JXZ 004a1eb0 f   item_cmpfunc.obj
 0001:000a1190       ?keep_top_level_cache@Item_in_optimizer@@QAEXXZ 004a2190 f   item_cmpfunc.obj
 0001:000a11e0       ?cleanup@Item_in_optimizer@@UAEXXZ 004a21e0 f   item_cmpfunc.obj
 0001:000a12e0       ?is_null@Item_in_optimizer@@UAEHXZ 004a22e0 f   item_cmpfunc.obj
 0001:000a1390       ?val_int@Item_func_eq@@UAE_JXZ 004a2390 f   item_cmpfunc.obj
 0001:000a1400       ?fix_length_and_dec@Item_func_equal@@UAEXXZ 004a2400 f   item_cmpfunc.obj
 0001:000a1440       ?val_int@Item_func_equal@@UAE_JXZ 004a2440 f   item_cmpfunc.obj
 0001:000a1490       ?val_int@Item_func_ne@@UAE_JXZ 004a2490 f   item_cmpfunc.obj
 0001:000a1520       ?val_int@Item_func_ge@@UAE_JXZ 004a2520 f   item_cmpfunc.obj
 0001:000a1590       ?val_int@Item_func_gt@@UAE_JXZ 004a2590 f   item_cmpfunc.obj
 0001:000a1600       ?val_int@Item_func_le@@UAE_JXZ 004a2600 f   item_cmpfunc.obj
 0001:000a1690       ?val_int@Item_func_lt@@UAE_JXZ 004a2690 f   item_cmpfunc.obj
 0001:000a1720       ?val_int@Item_func_strcmp@@UAE_JXZ 004a2720 f   item_cmpfunc.obj
 0001:000a1860       ?eq@Item_func_opt_neg@@UBEHPBVItem@@H@Z 004a2860 f   item_cmpfunc.obj
 0001:000a1990       ?fix_length_and_dec@Item_func_interval@@UAEXXZ 004a2990 f   item_cmpfunc.obj
 0001:000a1e20       ?val_int@Item_func_interval@@UAE_JXZ 004a2e20 f   item_cmpfunc.obj
 0001:000a2330       ?fix_fields@Item_func_between@@UAEHPAVTHD@@PAPAVItem@@@Z 004a3330 f   item_cmpfunc.obj
 0001:000a2460       ?fix_length_and_dec@Item_func_between@@UAEXXZ 004a3460 f   item_cmpfunc.obj
 0001:000a29c0       ?val_int@Item_func_between@@UAE_JXZ 004a39c0 f   item_cmpfunc.obj
 0001:000a33c0       ?print@Item_func_between@@UAEXPAVString@@@Z 004a43c0 f   item_cmpfunc.obj
 0001:000a34a0       ?fix_length_and_dec@Item_func_ifnull@@UAEXXZ 004a44a0 f   item_cmpfunc.obj
 0001:000a3890       ?decimal_precision@Item_func_ifnull@@UBEIXZ 004a4890 f   item_cmpfunc.obj
 0001:000a3930       ?field_type@Item_func_ifnull@@UBE?AW4enum_field_types@@XZ 004a4930 f   item_cmpfunc.obj
 0001:000a3950       ?tmp_table_field@Item_func_ifnull@@UAEPAVField@@PAUst_table@@@Z 004a4950 f   item_cmpfunc.obj
 0001:000a3980       ?real_op@Item_func_ifnull@@UAENXZ 004a4980 f   item_cmpfunc.obj
 0001:000a3a60       ?int_op@Item_func_ifnull@@UAE_JXZ 004a4a60 f   item_cmpfunc.obj
 0001:000a3b50       ?decimal_op@Item_func_ifnull@@UAEPAVmy_decimal@@PAV2@@Z 004a4b50 f   item_cmpfunc.obj
 0001:000a3c30       ?str_op@Item_func_ifnull@@UAEPAVString@@PAV2@@Z 004a4c30 f   item_cmpfunc.obj
 0001:000a3d30       ?fix_fields@Item_func_if@@UAEHPAVTHD@@PAPAVItem@@@Z 004a4d30 f   item_cmpfunc.obj
 0001:000a3e10       ?fix_length_and_dec@Item_func_if@@UAEXXZ 004a4e10 f   item_cmpfunc.obj
 0001:000a4190       ?decimal_precision@Item_func_if@@UBEIXZ 004a5190 f   item_cmpfunc.obj
 0001:000a4230       ?val_real@Item_func_if@@UAENXZ 004a5230 f   item_cmpfunc.obj
 0001:000a42f0       ?val_int@Item_func_if@@UAE_JXZ 004a52f0 f   item_cmpfunc.obj
 0001:000a43b0       ?val_str@Item_func_if@@UAEPAVString@@PAV2@@Z 004a53b0 f   item_cmpfunc.obj
 0001:000a4480       ?val_decimal@Item_func_if@@UAEPAVmy_decimal@@PAV2@@Z 004a5480 f   item_cmpfunc.obj
 0001:000a4540       ?fix_length_and_dec@Item_func_nullif@@UAEXXZ 004a5540 f   item_cmpfunc.obj
 0001:000a4610       ?val_real@Item_func_nullif@@UAENXZ 004a5610 f   item_cmpfunc.obj
 0001:000a46c0       ?val_int@Item_func_nullif@@UAE_JXZ 004a56c0 f   item_cmpfunc.obj
 0001:000a4770       ?val_str@Item_func_nullif@@UAEPAVString@@PAV2@@Z 004a5770 f   item_cmpfunc.obj
 0001:000a4820       ?val_decimal@Item_func_nullif@@UAEPAVmy_decimal@@PAV2@@Z 004a5820 f   item_cmpfunc.obj
 0001:000a48d0       ?is_null@Item_func_nullif@@UAEHXZ 004a58d0 f   item_cmpfunc.obj
 0001:000a4930       ?find_item@Item_func_case@@QAEPAVItem@@PAVString@@@Z 004a5930 f   item_cmpfunc.obj
 0001:000a5090       ?val_str@Item_func_case@@UAEPAVString@@PAV2@@Z 004a6090 f   item_cmpfunc.obj
 0001:000a5140       ?val_int@Item_func_case@@UAE_JXZ 004a6140 f   item_cmpfunc.obj
 0001:000a52c0       ?val_real@Item_func_case@@UAENXZ 004a62c0 f   item_cmpfunc.obj
 0001:000a5420       ?val_decimal@Item_func_case@@UAEPAVmy_decimal@@PAV2@@Z 004a6420 f   item_cmpfunc.obj
 0001:000a5580       ?fix_fields@Item_func_case@@UAEHPAVTHD@@PAPAVItem@@@Z 004a6580 f   item_cmpfunc.obj
 0001:000a5630       ?fix_length_and_dec@Item_func_case@@UAEXXZ 004a6630 f   item_cmpfunc.obj
 0001:000a5960       ?decimal_precision@Item_func_case@@UBEIXZ 004a6960 f   item_cmpfunc.obj
 0001:000a5a50       ?print@Item_func_case@@UAEXPAVString@@@Z 004a6a50 f   item_cmpfunc.obj
 0001:000a5c00       ?str_op@Item_func_coalesce@@UAEPAVString@@PAV2@@Z 004a6c00 f   item_cmpfunc.obj
 0001:000a5cc0       ?int_op@Item_func_coalesce@@UAE_JXZ 004a6cc0 f   item_cmpfunc.obj
 0001:000a5d90       ?real_op@Item_func_coalesce@@UAENXZ 004a6d90 f   item_cmpfunc.obj
 0001:000a5e60       ?decimal_op@Item_func_coalesce@@UAEPAVmy_decimal@@PAV2@@Z 004a6e60 f   item_cmpfunc.obj
 0001:000a5f30       ?fix_length_and_dec@Item_func_coalesce@@UAEXXZ 004a6f30 f   item_cmpfunc.obj
 0001:000a6020       ?cmp_longlong@@YAHPAXPAUpacked_longlong@in_longlong@@1@Z 004a7020 f   item_cmpfunc.obj
 0001:000a6240       ?find@in_vector@@QAEHPAVItem@@@Z 004a7240 f   item_cmpfunc.obj
 0001:000a6360       ??0in_string@@QAE@IP6AHPBX00@ZPAUcharset_info_st@@@Z 004a7360 f   item_cmpfunc.obj
 0001:000a63c0       ??1in_string@@UAE@XZ       004a73c0 f   item_cmpfunc.obj
 0001:000a6440       ?set@in_string@@UAEXIPAVItem@@@Z 004a7440 f   item_cmpfunc.obj
 0001:000a6500       ?get_value@in_string@@UAEPAEPAVItem@@@Z 004a7500 f   item_cmpfunc.obj
 0001:000a6540       ??0in_row@@QAE@IPAVItem@@@Z 004a7540 f   item_cmpfunc.obj
 0001:000a6670       ??1in_row@@UAE@XZ          004a7670 f   item_cmpfunc.obj
 0001:000a6730       ?get_value@in_row@@UAEPAEPAVItem@@@Z 004a7730 f   item_cmpfunc.obj
 0001:000a67a0       ?set@in_row@@UAEXIPAVItem@@@Z 004a77a0 f   item_cmpfunc.obj
 0001:000a68f0       ??0in_longlong@@QAE@I@Z    004a78f0 f   item_cmpfunc.obj
 0001:000a6930       ?set@in_longlong@@UAEXIPAVItem@@@Z 004a7930 f   item_cmpfunc.obj
 0001:000a69a0       ?get_value@in_longlong@@UAEPAEPAVItem@@@Z 004a79a0 f   item_cmpfunc.obj
 0001:000a6a10       ?set@in_datetime@@UAEXIPAVItem@@@Z 004a7a10 f   item_cmpfunc.obj
 0001:000a6ae0       ?get_value@in_datetime@@UAEPAEPAVItem@@@Z 004a7ae0 f   item_cmpfunc.obj
 0001:000a6bd0       ??0in_double@@QAE@I@Z      004a7bd0 f   item_cmpfunc.obj
 0001:000a6c70       ?set@in_double@@UAEXIPAVItem@@@Z 004a7c70 f   item_cmpfunc.obj
 0001:000a6cb0       ?get_value@in_double@@UAEPAEPAVItem@@@Z 004a7cb0 f   item_cmpfunc.obj
 0001:000a6d00       ??0in_decimal@@QAE@I@Z     004a7d00 f   item_cmpfunc.obj
 0001:000a6d80       ?set@in_decimal@@UAEXIPAVItem@@@Z 004a7d80 f   item_cmpfunc.obj
 0001:000a6e10       ?get_value@in_decimal@@UAEPAEPAVItem@@@Z 004a7e10 f   item_cmpfunc.obj
 0001:000a6e70       ?get_comparator@cmp_item@@SAPAV1@W4Item_result@@PAUcharset_info_st@@@Z 004a7e70 f   item_cmpfunc.obj
 0001:000a6fd0       ?make_same@cmp_item_sort_string@@UAEPAVcmp_item@@XZ 004a7fd0 f   item_cmpfunc.obj
 0001:000a7030       ?make_same@cmp_item_int@@UAEPAVcmp_item@@XZ 004a8030 f   item_cmpfunc.obj
 0001:000a7090       ?make_same@cmp_item_real@@UAEPAVcmp_item@@XZ 004a8090 f   item_cmpfunc.obj
 0001:000a70f0       ?make_same@cmp_item_row@@UAEPAVcmp_item@@XZ 004a80f0 f   item_cmpfunc.obj
 0001:000a7150       ??1cmp_item_row@@UAE@XZ    004a8150 f   item_cmpfunc.obj
 0001:000a72f0       ?store_value@cmp_item_row@@UAEXPAVItem@@@Z 004a82f0 f   item_cmpfunc.obj
 0001:000a7540       ?store_value_by_template@cmp_item_row@@UAEXPAVcmp_item@@PAVItem@@@Z 004a8540 f   item_cmpfunc.obj
 0001:000a76f0       ?cmp@cmp_item_row@@UAEHPAVItem@@@Z 004a86f0 f   item_cmpfunc.obj
 0001:000a7830       ?compare@cmp_item_row@@UAEHPAVcmp_item@@@Z 004a8830 f   item_cmpfunc.obj
 0001:000a78d0       ?store_value@cmp_item_decimal@@UAEXPAVItem@@@Z 004a88d0 f   item_cmpfunc.obj
 0001:000a7940       ?cmp@cmp_item_decimal@@UAEHPAVItem@@@Z 004a8940 f   item_cmpfunc.obj
 0001:000a79f0       ?compare@cmp_item_decimal@@UAEHPAVcmp_item@@@Z 004a89f0 f   item_cmpfunc.obj
 0001:000a7a40       ?make_same@cmp_item_decimal@@UAEPAVcmp_item@@XZ 004a8a40 f   item_cmpfunc.obj
 0001:000a7aa0       ?store_value@cmp_item_datetime@@UAEXPAVItem@@@Z 004a8aa0 f   item_cmpfunc.obj
 0001:000a7b70       ?cmp@cmp_item_datetime@@UAEHPAVItem@@@Z 004a8b70 f   item_cmpfunc.obj
 0001:000a7c40       ?compare@cmp_item_datetime@@UAEHPAVcmp_item@@@Z 004a8c40 f   item_cmpfunc.obj
 0001:000a7cf0       ?make_same@cmp_item_datetime@@UAEPAVcmp_item@@XZ 004a8cf0 f   item_cmpfunc.obj
 0001:000a7d50       ?nulls_in_row@Item_func_in@@QAEHXZ 004a8d50 f   item_cmpfunc.obj
 0001:000a7de0       ?fix_fields@Item_func_in@@UAEHPAVTHD@@PAPAVItem@@@Z 004a8de0 f   item_cmpfunc.obj
 0001:000a7ef0       ?fix_length_and_dec@Item_func_in@@UAEXXZ 004a8ef0 f   item_cmpfunc.obj
 0001:000a8840       ?print@Item_func_in@@UAEXPAVString@@@Z 004a9840 f   item_cmpfunc.obj
 0001:000a88e0       ?val_int@Item_func_in@@UAE_JXZ 004a98e0 f   item_cmpfunc.obj
 0001:000a8b40       ?val_int@Item_func_bit_or@@UAE_JXZ 004a9b40 f   item_cmpfunc.obj
 0001:000a8c30       ?val_int@Item_func_bit_and@@UAE_JXZ 004a9c30 f   item_cmpfunc.obj
 0001:000a8d20       ??0Item_cond@@QAE@PAVTHD@@PAV0@@Z 004a9d20 f   item_cmpfunc.obj
 0001:000a8da0       ?copy_andor_arguments@Item_cond@@QAEXPAVTHD@@PAV1@@Z 004a9da0 f   item_cmpfunc.obj
 0001:000a8e50       ?fix_fields@Item_cond@@UAEHPAVTHD@@PAPAVItem@@@Z 004a9e50 f   item_cmpfunc.obj
 0001:000a91e0       ?walk@Item_cond@@UAEHP8Item@@AEHPAE@Z0@Z 004aa1e0 f   item_cmpfunc.obj
 0001:000a92a0       ?transform@Item_cond@@UAEPAVItem@@P82@AEPAV2@PAE@Z0@Z 004aa2a0 f   item_cmpfunc.obj
 0001:000a93c0       ?compile@Item_cond@@UAEPAVItem@@P82@AEHPAPAE@Z0P82@AEPAV2@PAE@Z2@Z 004aa3c0 f   item_cmpfunc.obj
 0001:000a94d0       ?traverse_cond@Item_cond@@UAEXP6AXPBVItem@@PAX@Z1W4traverse_order@2@@Z 004aa4d0 f   item_cmpfunc.obj
 0001:000a9610       ?split_sum_func@Item_cond@@UAEXPAVTHD@@PAPAVItem@@AAV?$List@VItem@@@@@Z 004aa610 f   item_cmpfunc.obj
 0001:000a96c0       ?used_tables@Item_cond@@UBE_KXZ 004aa6c0 f   item_cmpfunc.obj
 0001:000a96e0       ?update_used_tables@Item_cond@@UAEXXZ 004aa6e0 f   item_cmpfunc.obj
 0001:000a97e0       ?print@Item_cond@@UAEXPAVString@@@Z 004aa7e0 f   item_cmpfunc.obj
 0001:000a9900       ?neg_arguments@Item_cond@@QAEXPAVTHD@@@Z 004aa900 f   item_cmpfunc.obj
 0001:000a99f0       ?val_int@Item_cond_and@@UAE_JXZ 004aa9f0 f   item_cmpfunc.obj
 0001:000a9af0       ?val_int@Item_cond_or@@UAE_JXZ 004aaaf0 f   item_cmpfunc.obj
 0001:000a9be0       ?and_expressions@@YAPAVItem@@PAV1@0PAPAV1@@Z 004aabe0 f   item_cmpfunc.obj
 0001:000a9d50       ?val_int@Item_func_isnull@@UAE_JXZ 004aad50 f   item_cmpfunc.obj
 0001:000a9e00       ?val_int@Item_is_not_null_test@@UAE_JXZ 004aae00 f   item_cmpfunc.obj
 0001:000aa070       ?update_used_tables@Item_is_not_null_test@@UAEXXZ 004ab070 f   item_cmpfunc.obj
 0001:000aa1a0       ?val_int@Item_func_isnotnull@@UAE_JXZ 004ab1a0 f   item_cmpfunc.obj
 0001:000aa210       ?print@Item_func_isnotnull@@UAEXPAVString@@@Z 004ab210 f   item_cmpfunc.obj
 0001:000aa270       ?val_int@Item_func_like@@UAE_JXZ 004ab270 f   item_cmpfunc.obj
 0001:000aa420       ?select_optimize@Item_func_like@@UBE?AW4optimize_type@Item_func@@XZ 004ab420 f   item_cmpfunc.obj
 0001:000aa500       ?fix_fields@Item_func_like@@UAEHPAVTHD@@PAPAVItem@@@Z 004ab500 f   item_cmpfunc.obj
 0001:000aaa90       ?cleanup@Item_func_like@@UAEXXZ 004aba90 f   item_cmpfunc.obj
 0001:000aaad0       ?fix_fields@Item_func_regex@@UAEHPAVTHD@@PAPAVItem@@@Z 004abad0 f   item_cmpfunc.obj
 0001:000aaf90       ?val_int@Item_func_regex@@UAE_JXZ 004abf90 f   item_cmpfunc.obj
 0001:000ab2f0       ?cleanup@Item_func_regex@@UAEXXZ 004ac2f0 f   item_cmpfunc.obj
 0001:000ab410       ?turboBM_compute_suffixes@Item_func_like@@AAEXPAH@Z 004ac410 f   item_cmpfunc.obj
 0001:000ab620       ?turboBM_compute_good_suffix_shifts@Item_func_like@@AAEXPAH@Z 004ac620 f   item_cmpfunc.obj
 0001:000ab7d0       ?turboBM_compute_bad_character_shifts@Item_func_like@@AAEXXZ 004ac7d0 f   item_cmpfunc.obj
 0001:000ab8f0       ?turboBM_matches@Item_func_like@@ABEHPBDH@Z 004ac8f0 f   item_cmpfunc.obj
 0001:000abc70       ?val_int@Item_cond_xor@@UAE_JXZ 004acc70 f   item_cmpfunc.obj
 0001:000abd80       ?neg_transformer@Item_func_not@@UAEPAVItem@@PAVTHD@@@Z 004acd80 f   item_cmpfunc.obj
 0001:000abda0       ?neg_transformer@Item_bool_rowready_func2@@UAEPAVItem@@PAVTHD@@@Z 004acda0 f   item_cmpfunc.obj
 0001:000abdf0       ?neg_transformer@Item_func_isnull@@UAEPAVItem@@PAVTHD@@@Z 004acdf0 f   item_cmpfunc.obj
 0001:000abe60       ?neg_transformer@Item_func_isnotnull@@UAEPAVItem@@PAVTHD@@@Z 004ace60 f   item_cmpfunc.obj
 0001:000abed0       ?neg_transformer@Item_cond_and@@UAEPAVItem@@PAVTHD@@@Z 004aced0 f   item_cmpfunc.obj
 0001:000abf50       ?neg_transformer@Item_cond_or@@UAEPAVItem@@PAVTHD@@@Z 004acf50 f   item_cmpfunc.obj
 0001:000abfd0       ?neg_transformer@Item_func_nop_all@@UAEPAVItem@@PAVTHD@@@Z 004acfd0 f   item_cmpfunc.obj
 0001:000ac090       ?neg_transformer@Item_func_not_all@@UAEPAVItem@@PAVTHD@@@Z 004ad090 f   item_cmpfunc.obj
 0001:000ac150       ?negated_item@Item_func_eq@@UAEPAVItem@@XZ 004ad150 f   item_cmpfunc.obj
 0001:000ac1c0       ?negated_item@Item_func_ne@@UAEPAVItem@@XZ 004ad1c0 f   item_cmpfunc.obj
 0001:000ac230       ?negated_item@Item_func_lt@@UAEPAVItem@@XZ 004ad230 f   item_cmpfunc.obj
 0001:000ac2a0       ?negated_item@Item_func_ge@@UAEPAVItem@@XZ 004ad2a0 f   item_cmpfunc.obj
 0001:000ac310       ?negated_item@Item_func_gt@@UAEPAVItem@@XZ 004ad310 f   item_cmpfunc.obj
 0001:000ac380       ?negated_item@Item_func_le@@UAEPAVItem@@XZ 004ad380 f   item_cmpfunc.obj
 0001:000ac3f0       ?negated_item@Item_bool_rowready_func2@@UAEPAVItem@@XZ 004ad3f0 f   item_cmpfunc.obj
 0001:000ac430       ??0Item_equal@@QAE@PAVItem_field@@0@Z 004ad430 f   item_cmpfunc.obj
 0001:000ac4d0       ??0Item_equal@@QAE@PAVItem@@PAVItem_field@@@Z 004ad4d0 f   item_cmpfunc.obj
 0001:000ac560       ??0Item_equal@@QAE@PAV0@@Z 004ad560 f   item_cmpfunc.obj
 0001:000ac670       ?add@Item_equal@@QAEXPAVItem@@@Z 004ad670 f   item_cmpfunc.obj
 0001:000ac770       ?add@Item_equal@@QAEXPAVItem_field@@@Z 004ad770 f   item_cmpfunc.obj
 0001:000ac7a0       ?members@Item_equal@@QAEIXZ 004ad7a0 f   item_cmpfunc.obj
 0001:000ac7c0       ?contains@Item_equal@@QAEHPAVField@@@Z 004ad7c0 f   item_cmpfunc.obj
 0001:000ac870       ?merge@Item_equal@@QAEXPAV1@@Z 004ad870 f   item_cmpfunc.obj
 0001:000ac8f0       ?sort@Item_equal@@QAEXP6AHPAVItem_field@@0PAX@Z1@Z 004ad8f0 f   item_cmpfunc.obj
 0001:000aca00       ?update_const@Item_equal@@QAEXXZ 004ada00 f   item_cmpfunc.obj
 0001:000acac0       ?fix_fields@Item_equal@@UAEHPAVTHD@@PAPAVItem@@@Z 004adac0 f   item_cmpfunc.obj
 0001:000acc00       ?update_used_tables@Item_equal@@UAEXXZ 004adc00 f   item_cmpfunc.obj
 0001:000acd20       ?val_int@Item_equal@@UAE_JXZ 004add20 f   item_cmpfunc.obj
 0001:000ace90       ?fix_length_and_dec@Item_equal@@UAEXXZ 004ade90 f   item_cmpfunc.obj
 0001:000acef0       ?walk@Item_equal@@UAEHP8Item@@AEHPAE@Z0@Z 004adef0 f   item_cmpfunc.obj
 0001:000acfb0       ?transform@Item_equal@@UAEPAVItem@@P82@AEPAV2@PAE@Z0@Z 004adfb0 f   item_cmpfunc.obj
 0001:000ad0d0       ?print@Item_equal@@UAEXPAVString@@@Z 004ae0d0 f   item_cmpfunc.obj
 0001:000b10d0       ??0Item_func_eq@@QAE@PAVItem@@0@Z 004b20d0 f i item_cmpfunc.obj
 0001:000b1120       ?result_type@Item_int_func@@UBE?AW4Item_result@@XZ 004b2120 f i item_cmpfunc.obj
 0001:000b1140       ?select_optimize@Item_bool_func2@@UBE?AW4optimize_type@Item_func@@XZ 004b2140 f i item_cmpfunc.obj
 0001:000b1160       ?have_rev_func@Item_bool_func2@@UBEHXZ 004b2160 f i item_cmpfunc.obj
 0001:000b11b0       ?print@Item_bool_func2@@UAEXPAVString@@@Z 004b21b0 f i item_cmpfunc.obj
 0001:000b11f0       ?is_null@Item_bool_func2@@UAEHXZ 004b21f0 f i item_cmpfunc.obj
 0001:000b12a0       ?is_bool_func@Item_bool_func2@@UAEHXZ 004b22a0 f i item_cmpfunc.obj
 0001:000b12c0       ?compare_collation@Item_bool_func2@@UAEPAUcharset_info_st@@XZ 004b22c0 f i item_cmpfunc.obj
 0001:000b12f0       ?decimal_precision@Item_bool_func2@@UBEIXZ 004b22f0 f i item_cmpfunc.obj
 0001:000b1310       ?top_level_item@Item_bool_func2@@UAEXXZ 004b2310 f i item_cmpfunc.obj
 0001:000b1340       ??0Item_bool_rowready_func2@@QAE@PAVItem@@0@Z 004b2340 f i item_cmpfunc.obj
 0001:000b13a0       ??0Item_bool_func2@@QAE@PAVItem@@0@Z 004b23a0 f i item_cmpfunc.obj
 0001:000b1440       ??0Item_int_func@@QAE@PAVItem@@0@Z 004b2440 f i item_cmpfunc.obj
 0001:000b14a0       ??0Item_func@@QAE@PAVItem@@0@Z 004b24a0 f i item_cmpfunc.obj
 0001:000b1570       ?fix_length_and_dec@Item_int_func@@UAEXXZ 004b2570 f i item_cmpfunc.obj
 0001:000b1590       ??_EItem_int_func@@UAEPAXI@Z 004b2590 f i item_cmpfunc.obj
 0001:000b1590       ??_GItem_int_func@@UAEPAXI@Z 004b2590 f i item_cmpfunc.obj
 0001:000b15f0       ??1Item_int_func@@UAE@XZ   004b25f0 f i item_cmpfunc.obj
 0001:000b1620       ??0Arg_comparator@@QAE@PAPAVItem@@0@Z 004b2620 f i item_cmpfunc.obj
 0001:000b16a0       ??0DTCollation@@QAE@XZ     004b26a0 f i item_cmpfunc.obj
 0001:000b16e0       ?rev_functype@Item_bool_func2@@UBE?AW4Functype@Item_func@@XZ 004b26e0 f i item_cmpfunc.obj
 0001:000b1700       ??_GItem_bool_func2@@UAEPAXI@Z 004b2700 f i item_cmpfunc.obj
 0001:000b1700       ??_EItem_bool_func2@@UAEPAXI@Z 004b2700 f i item_cmpfunc.obj
 0001:000b1760       ??1Item_bool_func2@@UAE@XZ 004b2760 f i item_cmpfunc.obj
 0001:000b17d0       ??1Arg_comparator@@QAE@XZ  004b27d0 f i item_cmpfunc.obj
 0001:000b1800       ?subst_argument_checker@Item_bool_rowready_func2@@UAEHPAPAE@Z 004b2800 f i item_cmpfunc.obj
 0001:000b1820       ??_GItem_bool_rowready_func2@@UAEPAXI@Z 004b2820 f i item_cmpfunc.obj
 0001:000b1820       ??_EItem_bool_rowready_func2@@UAEPAXI@Z 004b2820 f i item_cmpfunc.obj
 0001:000b1880       ??1Item_bool_rowready_func2@@UAE@XZ 004b2880 f i item_cmpfunc.obj
 0001:000b18b0       ?functype@Item_func_eq@@UBE?AW4Functype@Item_func@@XZ 004b28b0 f i item_cmpfunc.obj
 0001:000b18d0       ?rev_functype@Item_func_eq@@UBE?AW4Functype@Item_func@@XZ 004b28d0 f i item_cmpfunc.obj
 0001:000b18f0       ?eq_cmp_result@Item_func_eq@@UBE?AW4cond_result@Item@@XZ 004b28f0 f i item_cmpfunc.obj
 0001:000b1910       ?func_name@Item_func_eq@@UBEPBDXZ 004b2910 f i item_cmpfunc.obj
 0001:000b1930       ??_EItem_func_eq@@UAEPAXI@Z 004b2930 f i item_cmpfunc.obj
 0001:000b1930       ??_GItem_func_eq@@UAEPAXI@Z 004b2930 f i item_cmpfunc.obj
 0001:000b1990       ??1Item_func_eq@@UAE@XZ    004b2990 f i item_cmpfunc.obj
 0001:000b19c0       ??0Item_func_ne@@QAE@PAVItem@@0@Z 004b29c0 f i item_cmpfunc.obj
 0001:000b1a10       ?functype@Item_func_ne@@UBE?AW4Functype@Item_func@@XZ 004b2a10 f i item_cmpfunc.obj
 0001:000b1a30       ?eq_cmp_result@Item_func_ne@@UBE?AW4cond_result@Item@@XZ 004b2a30 f i item_cmpfunc.obj
 0001:000b1a50       ?select_optimize@Item_func_ne@@UBE?AW4optimize_type@Item_func@@XZ 004b2a50 f i item_cmpfunc.obj
 0001:000b1a70       ?func_name@Item_func_ne@@UBEPBDXZ 004b2a70 f i item_cmpfunc.obj
 0001:000b1a90       ??_GItem_func_ne@@UAEPAXI@Z 004b2a90 f i item_cmpfunc.obj
 0001:000b1a90       ??_EItem_func_ne@@UAEPAXI@Z 004b2a90 f i item_cmpfunc.obj
 0001:000b1af0       ??1Item_func_ne@@UAE@XZ    004b2af0 f i item_cmpfunc.obj
 0001:000b1b20       ??0Item_func_gt@@QAE@PAVItem@@0@Z 004b2b20 f i item_cmpfunc.obj
 0001:000b1b70       ?functype@Item_func_gt@@UBE?AW4Functype@Item_func@@XZ 004b2b70 f i item_cmpfunc.obj
 0001:000b1b90       ?rev_functype@Item_func_gt@@UBE?AW4Functype@Item_func@@XZ 004b2b90 f i item_cmpfunc.obj
 0001:000b1bb0       ?eq_cmp_result@Item_func_gt@@UBE?AW4cond_result@Item@@XZ 004b2bb0 f i item_cmpfunc.obj
 0001:000b1bd0       ?func_name@Item_func_gt@@UBEPBDXZ 004b2bd0 f i item_cmpfunc.obj
 0001:000b1bf0       ??_EItem_func_gt@@UAEPAXI@Z 004b2bf0 f i item_cmpfunc.obj
 0001:000b1bf0       ??_GItem_func_gt@@UAEPAXI@Z 004b2bf0 f i item_cmpfunc.obj
 0001:000b1c50       ??1Item_func_gt@@UAE@XZ    004b2c50 f i item_cmpfunc.obj
 0001:000b1c80       ??0Item_func_lt@@QAE@PAVItem@@0@Z 004b2c80 f i item_cmpfunc.obj
 0001:000b1cd0       ?functype@Item_func_lt@@UBE?AW4Functype@Item_func@@XZ 004b2cd0 f i item_cmpfunc.obj
 0001:000b1cf0       ?rev_functype@Item_func_lt@@UBE?AW4Functype@Item_func@@XZ 004b2cf0 f i item_cmpfunc.obj
 0001:000b1d10       ?eq_cmp_result@Item_func_lt@@UBE?AW4cond_result@Item@@XZ 004b2d10 f i item_cmpfunc.obj
 0001:000b1d30       ?func_name@Item_func_lt@@UBEPBDXZ 004b2d30 f i item_cmpfunc.obj
 0001:000b1d50       ??_GItem_func_lt@@UAEPAXI@Z 004b2d50 f i item_cmpfunc.obj
 0001:000b1d50       ??_EItem_func_lt@@UAEPAXI@Z 004b2d50 f i item_cmpfunc.obj
 0001:000b1db0       ??1Item_func_lt@@UAE@XZ    004b2db0 f i item_cmpfunc.obj
 0001:000b1de0       ??0Item_func_ge@@QAE@PAVItem@@0@Z 004b2de0 f i item_cmpfunc.obj
 0001:000b1e30       ?functype@Item_func_ge@@UBE?AW4Functype@Item_func@@XZ 004b2e30 f i item_cmpfunc.obj
 0001:000b1e50       ?rev_functype@Item_func_ge@@UBE?AW4Functype@Item_func@@XZ 004b2e50 f i item_cmpfunc.obj
 0001:000b1e70       ?eq_cmp_result@Item_func_ge@@UBE?AW4cond_result@Item@@XZ 004b2e70 f i item_cmpfunc.obj
 0001:000b1e90       ?func_name@Item_func_ge@@UBEPBDXZ 004b2e90 f i item_cmpfunc.obj
 0001:000b1eb0       ??_EItem_func_ge@@UAEPAXI@Z 004b2eb0 f i item_cmpfunc.obj
 0001:000b1eb0       ??_GItem_func_ge@@UAEPAXI@Z 004b2eb0 f i item_cmpfunc.obj
 0001:000b1f10       ??1Item_func_ge@@UAE@XZ    004b2f10 f i item_cmpfunc.obj
 0001:000b1f40       ??0Item_func_le@@QAE@PAVItem@@0@Z 004b2f40 f i item_cmpfunc.obj
 0001:000b1f90       ?functype@Item_func_le@@UBE?AW4Functype@Item_func@@XZ 004b2f90 f i item_cmpfunc.obj
 0001:000b1fb0       ?rev_functype@Item_func_le@@UBE?AW4Functype@Item_func@@XZ 004b2fb0 f i item_cmpfunc.obj
 0001:000b1fd0       ?eq_cmp_result@Item_func_le@@UBE?AW4cond_result@Item@@XZ 004b2fd0 f i item_cmpfunc.obj
 0001:000b1ff0       ?func_name@Item_func_le@@UBEPBDXZ 004b2ff0 f i item_cmpfunc.obj
 0001:000b2010       ??_GItem_func_le@@UAEPAXI@Z 004b3010 f i item_cmpfunc.obj
 0001:000b2010       ??_EItem_func_le@@UAEPAXI@Z 004b3010 f i item_cmpfunc.obj
 0001:000b2070       ??1Item_func_le@@UAE@XZ    004b3070 f i item_cmpfunc.obj
 0001:000b20a0       ?any_value@Item_sum_hybrid@@QAEHXZ 004b30a0 f i item_cmpfunc.obj
 0001:000b20d0       ?any_value@Item_maxmin_subselect@@QAEHXZ 004b30d0 f i item_cmpfunc.obj
 0001:000b2100       ?agg_arg_charsets@Item_func@@QAEHAAVDTCollation@@PAPAVItem@@IIH@Z 004b3100 f i item_cmpfunc.obj
 0001:000b2170       ?set_cmp_func@Item_bool_func2@@QAEXXZ 004b3170 f i item_cmpfunc.obj
 0001:000b21c0       ?set_cmp_func@Arg_comparator@@QAEHPAVItem_bool_func2@@PAPAVItem@@1@Z 004b31c0 f i item_cmpfunc.obj
 0001:000b2250       ?is_context_analysis_only@THD@@QAEHXZ 004b3250 f i item_cmpfunc.obj
 0001:000b22c0       ??0Item_int_with_ref@@QAE@_JPAVItem@@D@Z 004b32c0 f i item_cmpfunc.obj
 0001:000b2330       ??0Item_int@@QAE@_JI@Z     004b3330 f i item_cmpfunc.obj
 0001:000b23a0       ?save_in_field@Item_int_with_ref@@UAEHPAVField@@H@Z 004b33a0 f i item_cmpfunc.obj
 0001:000b2400       ?real_item@Item_int_with_ref@@UAEPAVItem@@XZ 004b3400 f i item_cmpfunc.obj
 0001:000b2420       ??_EItem_int_with_ref@@UAEPAXI@Z 004b3420 f i item_cmpfunc.obj
 0001:000b2420       ??_GItem_int_with_ref@@UAEPAXI@Z 004b3420 f i item_cmpfunc.obj
 0001:000b2470       ??1Item_int_with_ref@@UAE@XZ 004b3470 f i item_cmpfunc.obj
 0001:000b24a0       ??_USql_alloc@@SAPAXI@Z    004b34a0 f i item_cmpfunc.obj
 0001:000b24c0       ?set@DTCollation@@QAEHAAV1@0I@Z 004b34c0 f i item_cmpfunc.obj
 0001:000b2510       ??0Arg_comparator@@QAE@XZ  004b3510 f i item_cmpfunc.obj
 0001:000b2580       ??_EArg_comparator@@QAEPAXI@Z 004b3580 f i item_cmpfunc.obj
 0001:000b2620       ??_VSql_alloc@@SAXPAXI@Z   004b3620 f i item_cmpfunc.obj
 0001:000b2650       ?set_used_tables@Item_cache@@QAEX_K@Z 004b3650 f i item_cmpfunc.obj
 0001:000b2680       ?compare@Arg_comparator@@QAEHXZ 004b3680 f i item_cmpfunc.obj
 0001:000b26c0       ?set_cond_guard_var@Item_in_subselect@@QAEXHH@Z 004b36c0 f i item_cmpfunc.obj
 0001:000b2700       ?is_top_level_item@Item_in_subselect@@QAEHXZ 004b3700 f i item_cmpfunc.obj
 0001:000b2730       ?arguments@Item_func@@QBEPAPAVItem@@XZ 004b3730 f i item_cmpfunc.obj
 0001:000b2750       ??0in_vector@@QAE@IIP6AHPBX00@ZPAUcharset_info_st@@@Z 004b3750 f i item_cmpfunc.obj
 0001:000b27f0       ?create_item@in_vector@@UAEPAVItem@@XZ 004b37f0 f i item_cmpfunc.obj
 0001:000b2810       ?value_to_item@in_vector@@UAEXIPAVItem@@@Z 004b3810 f i item_cmpfunc.obj
 0001:000b2830       ??_Ein_vector@@UAEPAXI@Z   004b3830 f i item_cmpfunc.obj
 0001:000b2830       ??_Gin_vector@@UAEPAXI@Z   004b3830 f i item_cmpfunc.obj
 0001:000b2880       ??1in_vector@@UAE@XZ       004b3880 f i item_cmpfunc.obj
 0001:000b28f0       ?create_item@in_string@@UAEPAVItem@@XZ 004b38f0 f i item_cmpfunc.obj
 0001:000b2970       ??0Item_string@@QAE@PAUcharset_info_st@@W4Derivation@@@Z 004b3970 f i item_cmpfunc.obj
 0001:000b2a00       ?value_to_item@in_string@@UAEXIPAVItem@@@Z 004b3a00 f i item_cmpfunc.obj
 0001:000b2a70       ??4String@@QAEAAV0@ABV0@@Z 004b3a70 f i item_cmpfunc.obj
 0001:000b2b20       ?uses_buffer_owned_by@String@@QBEHPBV1@@Z 004b3b20 f i item_cmpfunc.obj
 0001:000b2b90       ??_Ein_string@@UAEPAXI@Z   004b3b90 f i item_cmpfunc.obj
 0001:000b2b90       ??_Gin_string@@UAEPAXI@Z   004b3b90 f i item_cmpfunc.obj
 0001:000b2bf0       ??0in_vector@@QAE@XZ       004b3bf0 f i item_cmpfunc.obj
 0001:000b2c30       ??0cmp_item_row@@QAE@XZ    004b3c30 f i item_cmpfunc.obj
 0001:000b2c90       ??0cmp_item@@QAE@XZ        004b3c90 f i item_cmpfunc.obj
 0001:000b2ce0       ?store_value_by_template@cmp_item@@UAEXPAV1@PAVItem@@@Z 004b3ce0 f i item_cmpfunc.obj
 0001:000b2d30       ??_Ecmp_item@@UAEPAXI@Z    004b3d30 f i item_cmpfunc.obj
 0001:000b2d30       ??_Gcmp_item@@UAEPAXI@Z    004b3d30 f i item_cmpfunc.obj
 0001:000b2d80       ??1cmp_item@@UAE@XZ        004b3d80 f i item_cmpfunc.obj
 0001:000b2df0       ??_Ein_row@@UAEPAXI@Z      004b3df0 f i item_cmpfunc.obj
 0001:000b2df0       ??_Gin_row@@UAEPAXI@Z      004b3df0 f i item_cmpfunc.obj
 0001:000b2e40       ??_Ecmp_item_row@@UAEPAXI@Z 004b3e40 f i item_cmpfunc.obj
 0001:000b2ee0       ?create_item@in_longlong@@UAEPAVItem@@XZ 004b3ee0 f i item_cmpfunc.obj
 0001:000b2f60       ?value_to_item@in_longlong@@UAEXIPAVItem@@@Z 004b3f60 f i item_cmpfunc.obj
 0001:000b2fc0       ??_Gin_longlong@@UAEPAXI@Z 004b3fc0 f i item_cmpfunc.obj
 0001:000b2fc0       ??_Ein_longlong@@UAEPAXI@Z 004b3fc0 f i item_cmpfunc.obj
 0001:000b3010       ??1in_longlong@@UAE@XZ     004b4010 f i item_cmpfunc.obj
 0001:000b3040       ?create_item@in_double@@UAEPAVItem@@XZ 004b4040 f i item_cmpfunc.obj
 0001:000b30c0       ??0Item_float@@QAE@N@Z     004b40c0 f i item_cmpfunc.obj
 0001:000b3120       ?value_to_item@in_double@@UAEXIPAVItem@@@Z 004b4120 f i item_cmpfunc.obj
 0001:000b3150       ??_Ein_double@@UAEPAXI@Z   004b4150 f i item_cmpfunc.obj
 0001:000b3150       ??_Gin_double@@UAEPAXI@Z   004b4150 f i item_cmpfunc.obj
 0001:000b31a0       ??1in_double@@UAE@XZ       004b41a0 f i item_cmpfunc.obj
 0001:000b31d0       ?create_item@in_decimal@@UAEPAVItem@@XZ 004b41d0 f i item_cmpfunc.obj
 0001:000b3250       ?value_to_item@in_decimal@@UAEXIPAVItem@@@Z 004b4250 f i item_cmpfunc.obj
 0001:000b32c0       ??_Ein_decimal@@UAEPAXI@Z  004b42c0 f i item_cmpfunc.obj
 0001:000b32c0       ??_Gin_decimal@@UAEPAXI@Z  004b42c0 f i item_cmpfunc.obj
 0001:000b3310       ??1in_decimal@@UAE@XZ      004b4310 f i item_cmpfunc.obj
 0001:000b3340       ??0cmp_item_sort_string@@QAE@PAUcharset_info_st@@@Z 004b4340 f i item_cmpfunc.obj
 0001:000b33b0       ??0cmp_item_string@@QAE@PAUcharset_info_st@@@Z 004b43b0 f i item_cmpfunc.obj
 0001:000b3400       ??_Gcmp_item_string@@UAEPAXI@Z 004b4400 f i item_cmpfunc.obj
 0001:000b3400       ??_Ecmp_item_string@@UAEPAXI@Z 004b4400 f i item_cmpfunc.obj
 0001:000b3450       ??1cmp_item_string@@UAE@XZ 004b4450 f i item_cmpfunc.obj
 0001:000b3480       ?store_value@cmp_item_sort_string@@UAEXPAVItem@@@Z 004b4480 f i item_cmpfunc.obj
 0001:000b34e0       ?cmp@cmp_item_sort_string@@UAEHPAVItem@@@Z 004b44e0 f i item_cmpfunc.obj
 0001:000b3650       ?compare@cmp_item_sort_string@@UAEHPAVcmp_item@@@Z 004b4650 f i item_cmpfunc.obj
 0001:000b36b0       ??_Ecmp_item_sort_string@@UAEPAXI@Z 004b46b0 f i item_cmpfunc.obj
 0001:000b36b0       ??_Gcmp_item_sort_string@@UAEPAXI@Z 004b46b0 f i item_cmpfunc.obj
 0001:000b3700       ??1cmp_item_sort_string@@UAE@XZ 004b4700 f i item_cmpfunc.obj
 0001:000b3740       ??0cmp_item_int@@QAE@XZ    004b4740 f i item_cmpfunc.obj
 0001:000b3780       ?store_value@cmp_item_int@@UAEXPAVItem@@@Z 004b4780 f i item_cmpfunc.obj
 0001:000b37d0       ?cmp@cmp_item_int@@UAEHPAVItem@@@Z 004b47d0 f i item_cmpfunc.obj
 0001:000b3870       ?compare@cmp_item_int@@UAEHPAVcmp_item@@@Z 004b4870 f i item_cmpfunc.obj
 0001:000b3940       ??_Gcmp_item_int@@UAEPAXI@Z 004b4940 f i item_cmpfunc.obj
 0001:000b3940       ??_Ecmp_item_int@@UAEPAXI@Z 004b4940 f i item_cmpfunc.obj
 0001:000b3990       ??1cmp_item_int@@UAE@XZ    004b4990 f i item_cmpfunc.obj
 0001:000b39c0       ??0cmp_item_real@@QAE@XZ   004b49c0 f i item_cmpfunc.obj
 0001:000b3a00       ?store_value@cmp_item_real@@UAEXPAVItem@@@Z 004b4a00 f i item_cmpfunc.obj
 0001:000b3a50       ?cmp@cmp_item_real@@UAEHPAVItem@@@Z 004b4a50 f i item_cmpfunc.obj
 0001:000b3ad0       ?compare@cmp_item_real@@UAEHPAVcmp_item@@@Z 004b4ad0 f i item_cmpfunc.obj
 0001:000b3b60       ??_Gcmp_item_real@@UAEPAXI@Z 004b4b60 f i item_cmpfunc.obj
 0001:000b3b60       ??_Ecmp_item_real@@UAEPAXI@Z 004b4b60 f i item_cmpfunc.obj
 0001:000b3bb0       ??1cmp_item_real@@UAE@XZ   004b4bb0 f i item_cmpfunc.obj
 0001:000b3be0       ??0cmp_item_decimal@@QAE@XZ 004b4be0 f i item_cmpfunc.obj
 0001:000b3c30       ??_Ecmp_item_decimal@@UAEPAXI@Z 004b4c30 f i item_cmpfunc.obj
 0001:000b3c30       ??_Gcmp_item_decimal@@UAEPAXI@Z 004b4c30 f i item_cmpfunc.obj
 0001:000b3c80       ??1cmp_item_decimal@@UAE@XZ 004b4c80 f i item_cmpfunc.obj
 0001:000b3cb0       ??0cmp_item_sort_string_in_static@@QAE@PAUcharset_info_st@@@Z 004b4cb0 f i item_cmpfunc.obj
 0001:000b3d10       ?store_value@cmp_item_sort_string_in_static@@UAEXPAVItem@@@Z 004b4d10 f i item_cmpfunc.obj
 0001:000b3d70       ?cmp@cmp_item_sort_string_in_static@@UAEHPAVItem@@@Z 004b4d70 f i item_cmpfunc.obj
 0001:000b3dc0       ?compare@cmp_item_sort_string_in_static@@UAEHPAVcmp_item@@@Z 004b4dc0 f i item_cmpfunc.obj
 0001:000b3e20       ?make_same@cmp_item_sort_string_in_static@@UAEPAVcmp_item@@XZ 004b4e20 f i item_cmpfunc.obj
 0001:000b3ea0       ??_Ecmp_item_sort_string_in_static@@UAEPAXI@Z 004b4ea0 f i item_cmpfunc.obj
 0001:000b3ea0       ??_Gcmp_item_sort_string_in_static@@UAEPAXI@Z 004b4ea0 f i item_cmpfunc.obj
 0001:000b3ef0       ??1cmp_item_sort_string_in_static@@UAE@XZ 004b4ef0 f i item_cmpfunc.obj
 0001:000b3f30       ?alloc_comparators@cmp_item_row@@QAEXXZ 004b4f30 f i item_cmpfunc.obj
 0001:000b3f90       ??0cmp_item_datetime@@QAE@PAVItem@@@Z 004b4f90 f i item_cmpfunc.obj
 0001:000b4000       ??_Gcmp_item_datetime@@UAEPAXI@Z 004b5000 f i item_cmpfunc.obj
 0001:000b4000       ??_Ecmp_item_datetime@@UAEPAXI@Z 004b5000 f i item_cmpfunc.obj
 0001:000b4050       ??1cmp_item_datetime@@UAE@XZ 004b5050 f i item_cmpfunc.obj
 0001:000b4080       ?sort@in_vector@@QAEXXZ    004b5080 f i item_cmpfunc.obj
 0001:000b40e0       ??0in_datetime@@QAE@PAVItem@@I@Z 004b50e0 f i item_cmpfunc.obj
 0001:000b4150       ??_Ein_datetime@@UAEPAXI@Z 004b5150 f i item_cmpfunc.obj
 0001:000b4150       ??_Gin_datetime@@UAEPAXI@Z 004b5150 f i item_cmpfunc.obj
 0001:000b41a0       ??1in_datetime@@UAE@XZ     004b51a0 f i item_cmpfunc.obj
 0001:000b41d0       ??0Item_bool_func@@QAE@PAVTHD@@PAV0@@Z 004b51d0 f i item_cmpfunc.obj
 0001:000b4220       ??0Item_int_func@@QAE@PAVTHD@@PAV0@@Z 004b5220 f i item_cmpfunc.obj
 0001:000b4270       ?is_bool_func@Item_bool_func@@UAEHXZ 004b5270 f i item_cmpfunc.obj
 0001:000b4290       ?fix_length_and_dec@Item_bool_func@@UAEXXZ 004b5290 f i item_cmpfunc.obj
 0001:000b42c0       ?decimal_precision@Item_bool_func@@UBEIXZ 004b52c0 f i item_cmpfunc.obj
 0001:000b42e0       ??_GItem_bool_func@@UAEPAXI@Z 004b52e0 f i item_cmpfunc.obj
 0001:000b42e0       ??_EItem_bool_func@@UAEPAXI@Z 004b52e0 f i item_cmpfunc.obj
 0001:000b4340       ??1Item_bool_func@@UAE@XZ  004b5340 f i item_cmpfunc.obj
 0001:000b4370       ?type@Item_cond@@UBE?AW4Type@Item@@XZ 004b5370 f i item_cmpfunc.obj
 0001:000b4390       ?top_level_item@Item_cond@@UAEXXZ 004b5390 f i item_cmpfunc.obj
 0001:000b43c0       ?subst_argument_checker@Item_cond@@UAEHPAPAE@Z 004b53c0 f i item_cmpfunc.obj
 0001:000b43e0       ??_EItem_cond@@UAEPAXI@Z   004b53e0 f i item_cmpfunc.obj
 0001:000b43e0       ??_GItem_cond@@UAEPAXI@Z   004b53e0 f i item_cmpfunc.obj
 0001:000b4440       ??1Item_cond@@UAE@XZ       004b5440 f i item_cmpfunc.obj
 0001:000b4480       ?is_empty@base_list@@QAEHXZ 004b5480 f i item_cmpfunc.obj
 0001:000b44b0       ??0Item_func_not@@QAE@PAVItem@@@Z 004b54b0 f i item_cmpfunc.obj
 0001:000b4500       ??0Item_bool_func@@QAE@PAVItem@@@Z 004b5500 f i item_cmpfunc.obj
 0001:000b4550       ??0Item_int_func@@QAE@PAVItem@@@Z 004b5550 f i item_cmpfunc.obj
 0001:000b45a0       ?functype@Item_func_not@@UBE?AW4Functype@Item_func@@XZ 004b55a0 f i item_cmpfunc.obj
 0001:000b45c0       ?func_name@Item_func_not@@UBEPBDXZ 004b55c0 f i item_cmpfunc.obj
 0001:000b45e0       ??_EItem_func_not@@UAEPAXI@Z 004b55e0 f i item_cmpfunc.obj
 0001:000b45e0       ??_GItem_func_not@@UAEPAXI@Z 004b55e0 f i item_cmpfunc.obj
 0001:000b4640       ??1Item_func_not@@UAE@XZ   004b5640 f i item_cmpfunc.obj
 0001:000b4670       ?add@Item_cond@@QAEHPAVItem@@@Z 004b5670 f i item_cmpfunc.obj
 0001:000b46b0       ??0Item_cond_and@@QAE@PAVItem@@0@Z 004b56b0 f i item_cmpfunc.obj
 0001:000b4710       ??0Item_cond@@QAE@PAVItem@@0@Z 004b5710 f i item_cmpfunc.obj
 0001:000b47a0       ??0Item_bool_func@@QAE@XZ  004b57a0 f i item_cmpfunc.obj
 0001:000b47e0       ??0Item_int_func@@QAE@XZ   004b57e0 f i item_cmpfunc.obj
 0001:000b4830       ??0Item_func@@QAE@XZ       004b5830 f i item_cmpfunc.obj
 0001:000b4890       ??0COND_EQUAL@@QAE@XZ      004b5890 f i item_cmpfunc.obj
 0001:000b48e0       ?functype@Item_cond_and@@UBE?AW4Functype@Item_func@@XZ 004b58e0 f i item_cmpfunc.obj
 0001:000b4900       ?func_name@Item_cond_and@@UBEPBDXZ 004b5900 f i item_cmpfunc.obj
 0001:000b4920       ?not_null_tables@Item_cond_and@@UBE_KXZ 004b5920 f i item_cmpfunc.obj
 0001:000b4990       ?copy_andor_structure@Item_cond_and@@UAEPAVItem@@PAVTHD@@@Z 004b5990 f i item_cmpfunc.obj
 0001:000b4a30       ??0Item_cond_and@@QAE@PAVTHD@@PAV0@@Z 004b5a30 f i item_cmpfunc.obj
 0001:000b4a90       ??_EItem_cond_and@@UAEPAXI@Z 004b5a90 f i item_cmpfunc.obj
 0001:000b4a90       ??_GItem_cond_and@@UAEPAXI@Z 004b5a90 f i item_cmpfunc.obj
 0001:000b4af0       ??1Item_cond_and@@UAE@XZ   004b5af0 f i item_cmpfunc.obj
 0001:000b4b30       ??1COND_EQUAL@@QAE@XZ      004b5b30 f i item_cmpfunc.obj
 0001:000b4b70       ??1?$List@VItem_equal@@@@QAE@XZ 004b5b70 f i item_cmpfunc.obj
 0001:000b4ba0       ??0Item_func_isnotnull@@QAE@PAVItem@@@Z 004b5ba0 f i item_cmpfunc.obj
 0001:000b4c00       ?functype@Item_func_isnotnull@@UBE?AW4Functype@Item_func@@XZ 004b5c00 f i item_cmpfunc.obj
 0001:000b4c20       ?fix_length_and_dec@Item_func_isnotnull@@UAEXXZ 004b5c20 f i item_cmpfunc.obj
 0001:000b4c60       ?func_name@Item_func_isnotnull@@UBEPBDXZ 004b5c60 f i item_cmpfunc.obj
 0001:000b4c80       ?select_optimize@Item_func_isnotnull@@UBE?AW4optimize_type@Item_func@@XZ 004b5c80 f i item_cmpfunc.obj
 0001:000b4ca0       ?not_null_tables@Item_func_isnotnull@@UBE_KXZ 004b5ca0 f i item_cmpfunc.obj
 0001:000b4d10       ?compare_collation@Item_func_isnotnull@@UAEPAUcharset_info_st@@XZ 004b5d10 f i item_cmpfunc.obj
 0001:000b4d40       ?top_level_item@Item_func_isnotnull@@UAEXXZ 004b5d40 f i item_cmpfunc.obj
 0001:000b4d70       ??_GItem_func_isnotnull@@UAEPAXI@Z 004b5d70 f i item_cmpfunc.obj
 0001:000b4d70       ??_EItem_func_isnotnull@@UAEPAXI@Z 004b5d70 f i item_cmpfunc.obj
 0001:000b4dd0       ??1Item_func_isnotnull@@UAE@XZ 004b5dd0 f i item_cmpfunc.obj
 0001:000b4e00       ??0Item_func_isnull@@QAE@PAVItem@@@Z 004b5e00 f i item_cmpfunc.obj
 0001:000b4e50       ?functype@Item_func_isnull@@UBE?AW4Functype@Item_func@@XZ 004b5e50 f i item_cmpfunc.obj
 0001:000b4e70       ?fix_length_and_dec@Item_func_isnull@@UAEXXZ 004b5e70 f i item_cmpfunc.obj
 0001:000b4ed0       ?func_name@Item_func_isnull@@UBEPBDXZ 004b5ed0 f i item_cmpfunc.obj
 0001:000b4ef0       ?update_used_tables@Item_func_isnull@@UAEXXZ 004b5ef0 f i item_cmpfunc.obj
 0001:000b5070       ?not_null_tables@Item_func_isnull@@UBE_KXZ 004b6070 f i item_cmpfunc.obj
 0001:000b5090       ?select_optimize@Item_func_isnull@@UBE?AW4optimize_type@Item_func@@XZ 004b6090 f i item_cmpfunc.obj
 0001:000b50b0       ?compare_collation@Item_func_isnull@@UAEPAUcharset_info_st@@XZ 004b60b0 f i item_cmpfunc.obj
 0001:000b50e0       ??_GItem_func_isnull@@UAEPAXI@Z 004b60e0 f i item_cmpfunc.obj
 0001:000b50e0       ??_EItem_func_isnull@@UAEPAXI@Z 004b60e0 f i item_cmpfunc.obj
 0001:000b5140       ??1Item_func_isnull@@UAE@XZ 004b6140 f i item_cmpfunc.obj
 0001:000b5170       ??0Item_cond_or@@QAE@AAV?$List@VItem@@@@@Z 004b6170 f i item_cmpfunc.obj
 0001:000b51c0       ??0Item_cond@@QAE@AAV?$List@VItem@@@@@Z 004b61c0 f i item_cmpfunc.obj
 0001:000b5230       ?functype@Item_cond_or@@UBE?AW4Functype@Item_func@@XZ 004b6230 f i item_cmpfunc.obj
 0001:000b5250       ?func_name@Item_cond_or@@UBEPBDXZ 004b6250 f i item_cmpfunc.obj
 0001:000b5270       ?not_null_tables@Item_cond_or@@UBE_KXZ 004b6270 f i item_cmpfunc.obj
 0001:000b52a0       ?copy_andor_structure@Item_cond_or@@UAEPAVItem@@PAVTHD@@@Z 004b62a0 f i item_cmpfunc.obj
 0001:000b5340       ??0Item_cond_or@@QAE@PAVTHD@@PAV0@@Z 004b6340 f i item_cmpfunc.obj
 0001:000b5390       ??_GItem_cond_or@@UAEPAXI@Z 004b6390 f i item_cmpfunc.obj
 0001:000b5390       ??_EItem_cond_or@@UAEPAXI@Z 004b6390 f i item_cmpfunc.obj
 0001:000b53f0       ??1Item_cond_or@@UAE@XZ    004b63f0 f i item_cmpfunc.obj
 0001:000b5420       ??0Item_cond_and@@QAE@AAV?$List@VItem@@@@@Z 004b6420 f i item_cmpfunc.obj
 0001:000b5480       ??0Item_func_not_all@@QAE@PAVItem@@@Z 004b6480 f i item_cmpfunc.obj
 0001:000b5510       ?top_level_item@Item_func_not_all@@UAEXXZ 004b6510 f i item_cmpfunc.obj
 0001:000b5540       ?functype@Item_func_not_all@@UBE?AW4Functype@Item_func@@XZ 004b6540 f i item_cmpfunc.obj
 0001:000b5560       ?func_name@Item_func_not_all@@UBEPBDXZ 004b6560 f i item_cmpfunc.obj
 0001:000b5580       ??_GItem_func_not_all@@UAEPAXI@Z 004b6580 f i item_cmpfunc.obj
 0001:000b5580       ??_EItem_func_not_all@@UAEPAXI@Z 004b6580 f i item_cmpfunc.obj
 0001:000b55e0       ??1Item_func_not_all@@UAE@XZ 004b65e0 f i item_cmpfunc.obj
 0001:000b5610       ??0Item_func_nop_all@@QAE@PAVItem@@@Z 004b6610 f i item_cmpfunc.obj
 0001:000b5660       ?func_name@Item_func_nop_all@@UBEPBDXZ 004b6660 f i item_cmpfunc.obj
 0001:000b5680       ??_EItem_func_nop_all@@UAEPAXI@Z 004b6680 f i item_cmpfunc.obj
 0001:000b5680       ??_GItem_func_nop_all@@UAEPAXI@Z 004b6680 f i item_cmpfunc.obj
 0001:000b56e0       ??1Item_func_nop_all@@UAE@XZ 004b66e0 f i item_cmpfunc.obj
 0001:000b5710       ?functype@Item_equal@@UBE?AW4Functype@Item_func@@XZ 004b6710 f i item_cmpfunc.obj
 0001:000b5730       ?func_name@Item_equal@@UBEPBDXZ 004b6730 f i item_cmpfunc.obj
 0001:000b5750       ?select_optimize@Item_equal@@UBE?AW4optimize_type@Item_func@@XZ 004b6750 f i item_cmpfunc.obj
 0001:000b5770       ?compare_collation@Item_equal@@UAEPAUcharset_info_st@@XZ 004b6770 f i item_cmpfunc.obj
 0001:000b57b0       ??_GItem_equal@@UAEPAXI@Z  004b67b0 f i item_cmpfunc.obj
 0001:000b57b0       ??_EItem_equal@@UAEPAXI@Z  004b67b0 f i item_cmpfunc.obj
 0001:000b5810       ??1Item_equal@@UAE@XZ      004b6810 f i item_cmpfunc.obj
 0001:000b5850       ??1?$List@VItem_field@@@@QAE@XZ 004b6850 f i item_cmpfunc.obj
 0001:000b5880       ?quick_fix_field@Item@@QAEXXZ 004b6880 f i item_cmpfunc.obj
 0001:000b58a0       ??0?$List@VItem@@@@QAE@ABV0@@Z 004b68a0 f i item_cmpfunc.obj
 0001:000b58e0       ??0base_list@@QAE@ABV0@@Z  004b68e0 f i item_cmpfunc.obj
 0001:000b5970       ??0?$List@VItem_field@@@@QAE@XZ 004b6970 f i item_cmpfunc.obj
 0001:000b59a0       ?concat@?$List@VItem_field@@@@QAEXPAV1@@Z 004b69a0 f i item_cmpfunc.obj
 0001:000b59e0       ?concat@base_list@@QAEXPAV1@@Z 004b69e0 f i item_cmpfunc.obj
 0001:000b5a50       ??0?$List@VItem_equal@@@@QAE@XZ 004b6a50 f i item_cmpfunc.obj
 0001:000b5a80       ??0?$List_iterator_fast@VItem_field@@@@QAE@AAV?$List@VItem_field@@@@@Z 004b6a80 f i item_cmpfunc.obj
 0001:000b5ac0       ??E?$List_iterator_fast@VItem_field@@@@QAEPAVItem_field@@H@Z 004b6ac0 f i item_cmpfunc.obj
 0001:000b5af0       ??0?$List_iterator_fast@VItem@@@@QAE@AAV?$List@VItem@@@@@Z 004b6af0 f i item_cmpfunc.obj
 0001:000b5b30       ??E?$List_iterator_fast@VItem@@@@QAEPAVItem@@H@Z 004b6b30 f i item_cmpfunc.obj
 0001:000b5b60       ??0?$List_iterator@VItem@@@@QAE@AAV?$List@VItem@@@@@Z 004b6b60 f i item_cmpfunc.obj
 0001:000b5ba0       ??E?$List_iterator@VItem@@@@QAEPAVItem@@H@Z 004b6ba0 f i item_cmpfunc.obj
 0001:000b5bd0       ?replace@?$List_iterator@VItem@@@@QAEPAVItem@@PAV2@@Z 004b6bd0 f i item_cmpfunc.obj
 0001:000b5c10       ?replace@base_list_iterator@@QAEPAXPAX@Z 004b6c10 f i item_cmpfunc.obj
 0001:000b5c90       ?replace@?$List_iterator@VItem@@@@QAEPAVItem@@AAV?$List@VItem@@@@@Z 004b6c90 f i item_cmpfunc.obj
 0001:000b5cd0       ?replace@base_list_iterator@@QAEPAXAAVbase_list@@@Z 004b6cd0 f i item_cmpfunc.obj
 0001:000b5db0       ?ref@?$List_iterator@VItem@@@@QAEPAPAVItem@@XZ 004b6db0 f i item_cmpfunc.obj
 0001:000b5de0       ?ref@base_list_iterator@@QAEPAPAXXZ 004b6de0 f i item_cmpfunc.obj
 0001:000b5e10       ?rewind@?$List_iterator@VItem_field@@@@QAEXXZ 004b6e10 f i item_cmpfunc.obj
 0001:000b5e40       ?remove@?$List_iterator@VItem_field@@@@QAEXXZ 004b6e40 f i item_cmpfunc.obj
 0001:000b5e70       ?remove@base_list_iterator@@QAEXXZ 004b6e70 f i item_cmpfunc.obj
 0001:000b5ed0       ?remove@base_list@@QAEXPAPAUlist_node@@@Z 004b6ed0 f i item_cmpfunc.obj
 0001:000b5fa0       ??_Glist_node@@QAEPAXI@Z   004b6fa0 f i item_cmpfunc.obj
 0001:000b5ff0       ??1list_node@@QAE@XZ       004b6ff0 f i item_cmpfunc.obj
 0001:000b6020       ?ref@?$List_iterator@VItem_field@@@@QAEPAPAVItem_field@@XZ 004b7020 f i item_cmpfunc.obj
 0001:000b6050       ??_9@$BBAM@AE              004b7050 f i item_cmpfunc.obj
 0001:000b6060       ?create_func_abs@@YAPAVItem@@PAV1@@Z 004b7060 f   item_create.obj
 0001:000b60c0       ?create_func_acos@@YAPAVItem@@PAV1@@Z 004b70c0 f   item_create.obj
 0001:000b6120       ?create_func_aes_encrypt@@YAPAVItem@@PAV1@0@Z 004b7120 f   item_create.obj
 0001:000b6180       ?create_func_aes_decrypt@@YAPAVItem@@PAV1@0@Z 004b7180 f   item_create.obj
 0001:000b61e0       ?create_func_ascii@@YAPAVItem@@PAV1@@Z 004b71e0 f   item_create.obj
 0001:000b6240       ?create_func_ord@@YAPAVItem@@PAV1@@Z 004b7240 f   item_create.obj
 0001:000b62a0       ?create_func_asin@@YAPAVItem@@PAV1@@Z 004b72a0 f   item_create.obj
 0001:000b6300       ?create_func_bin@@YAPAVItem@@PAV1@@Z 004b7300 f   item_create.obj
 0001:000b63c0       ?create_func_bit_count@@YAPAVItem@@PAV1@@Z 004b73c0 f   item_create.obj
 0001:000b6420       ?create_func_ceiling@@YAPAVItem@@PAV1@@Z 004b7420 f   item_create.obj
 0001:000b6480       ?create_func_connection_id@@YAPAVItem@@XZ 004b7480 f   item_create.obj
 0001:000b64f0       ?create_func_conv@@YAPAVItem@@PAV1@00@Z 004b74f0 f   item_create.obj
 0001:000b6550       ?create_func_cos@@YAPAVItem@@PAV1@@Z 004b7550 f   item_create.obj
 0001:000b65b0       ?create_func_cot@@YAPAVItem@@PAV1@@Z 004b75b0 f   item_create.obj
 0001:000b6670       ?create_func_date_format@@YAPAVItem@@PAV1@0@Z 004b7670 f   item_create.obj
 0001:000b66d0       ?create_func_dayofmonth@@YAPAVItem@@PAV1@@Z 004b76d0 f   item_create.obj
 0001:000b6730       ?create_func_dayofweek@@YAPAVItem@@PAV1@@Z 004b7730 f   item_create.obj
 0001:000b6790       ?create_func_dayofyear@@YAPAVItem@@PAV1@@Z 004b7790 f   item_create.obj
 0001:000b67f0       ?create_func_dayname@@YAPAVItem@@PAV1@@Z 004b77f0 f   item_create.obj
 0001:000b6850       ?create_func_degrees@@YAPAVItem@@PAV1@@Z 004b7850 f   item_create.obj
 0001:000b68c0       ?create_func_exp@@YAPAVItem@@PAV1@@Z 004b78c0 f   item_create.obj
 0001:000b6920       ?create_func_find_in_set@@YAPAVItem@@PAV1@0@Z 004b7920 f   item_create.obj
 0001:000b6980       ?create_func_floor@@YAPAVItem@@PAV1@@Z 004b7980 f   item_create.obj
 0001:000b69e0       ?create_func_found_rows@@YAPAVItem@@XZ 004b79e0 f   item_create.obj
 0001:000b6a50       ?create_func_from_days@@YAPAVItem@@PAV1@@Z 004b7a50 f   item_create.obj
 0001:000b6ab0       ?create_func_get_lock@@YAPAVItem@@PAV1@0@Z 004b7ab0 f   item_create.obj
 0001:000b6b20       ?create_func_hex@@YAPAVItem@@PAV1@@Z 004b7b20 f   item_create.obj
 0001:000b6b80       ?create_func_inet_ntoa@@YAPAVItem@@PAV1@@Z 004b7b80 f   item_create.obj
 0001:000b6be0       ?create_func_inet_aton@@YAPAVItem@@PAV1@@Z 004b7be0 f   item_create.obj
 0001:000b6c40       ?create_func_ifnull@@YAPAVItem@@PAV1@0@Z 004b7c40 f   item_create.obj
 0001:000b6ca0       ?create_func_nullif@@YAPAVItem@@PAV1@0@Z 004b7ca0 f   item_create.obj
 0001:000b6d00       ?create_func_locate@@YAPAVItem@@PAV1@0@Z 004b7d00 f   item_create.obj
 0001:000b6d60       ?create_func_instr@@YAPAVItem@@PAV1@0@Z 004b7d60 f   item_create.obj
 0001:000b6dc0       ?create_func_isnull@@YAPAVItem@@PAV1@@Z 004b7dc0 f   item_create.obj
 0001:000b6e20       ?create_func_lcase@@YAPAVItem@@PAV1@@Z 004b7e20 f   item_create.obj
 0001:000b6e80       ?create_func_length@@YAPAVItem@@PAV1@@Z 004b7e80 f   item_create.obj
 0001:000b6ee0       ?create_func_bit_length@@YAPAVItem@@PAV1@@Z 004b7ee0 f   item_create.obj
 0001:000b6f40       ?create_func_coercibility@@YAPAVItem@@PAV1@@Z 004b7f40 f   item_create.obj
 0001:000b6fa0       ?create_func_char_length@@YAPAVItem@@PAV1@@Z 004b7fa0 f   item_create.obj
 0001:000b7000       ?create_func_ln@@YAPAVItem@@PAV1@@Z 004b8000 f   item_create.obj
 0001:000b7060       ?create_func_log2@@YAPAVItem@@PAV1@@Z 004b8060 f   item_create.obj
 0001:000b70c0       ?create_func_log10@@YAPAVItem@@PAV1@@Z 004b80c0 f   item_create.obj
 0001:000b7120       ?create_func_lpad@@YAPAVItem@@PAV1@00@Z 004b8120 f   item_create.obj
 0001:000b7180       ?create_func_ltrim@@YAPAVItem@@PAV1@@Z 004b8180 f   item_create.obj
 0001:000b71e0       ?create_func_md5@@YAPAVItem@@PAV1@@Z 004b81e0 f   item_create.obj
 0001:000b7240       ?create_func_mod@@YAPAVItem@@PAV1@0@Z 004b8240 f   item_create.obj
 0001:000b72a0       ?create_func_name_const@@YAPAVItem@@PAV1@0@Z 004b82a0 f   item_create.obj
 0001:000b7300       ?create_func_monthname@@YAPAVItem@@PAV1@@Z 004b8300 f   item_create.obj
 0001:000b7360       ?create_func_month@@YAPAVItem@@PAV1@@Z 004b8360 f   item_create.obj
 0001:000b73c0       ?create_func_oct@@YAPAVItem@@PAV1@@Z 004b83c0 f   item_create.obj
 0001:000b7480       ?create_func_period_add@@YAPAVItem@@PAV1@0@Z 004b8480 f   item_create.obj
 0001:000b74e0       ?create_func_period_diff@@YAPAVItem@@PAV1@0@Z 004b84e0 f   item_create.obj
 0001:000b7540       ?create_func_pi@@YAPAVItem@@XZ 004b8540 f   item_create.obj
 0001:000b75b0       ?create_func_pow@@YAPAVItem@@PAV1@0@Z 004b85b0 f   item_create.obj
 0001:000b7610       ?create_func_radians@@YAPAVItem@@PAV1@@Z 004b8610 f   item_create.obj
 0001:000b7680       ?create_func_release_lock@@YAPAVItem@@PAV1@@Z 004b8680 f   item_create.obj
 0001:000b76f0       ?create_func_repeat@@YAPAVItem@@PAV1@0@Z 004b86f0 f   item_create.obj
 0001:000b7750       ?create_func_reverse@@YAPAVItem@@PAV1@@Z 004b8750 f   item_create.obj
 0001:000b77b0       ?create_func_rpad@@YAPAVItem@@PAV1@00@Z 004b87b0 f   item_create.obj
 0001:000b7810       ?create_func_rtrim@@YAPAVItem@@PAV1@@Z 004b8810 f   item_create.obj
 0001:000b7870       ?create_func_sec_to_time@@YAPAVItem@@PAV1@@Z 004b8870 f   item_create.obj
 0001:000b78d0       ?create_func_sign@@YAPAVItem@@PAV1@@Z 004b88d0 f   item_create.obj
 0001:000b7930       ?create_func_sin@@YAPAVItem@@PAV1@@Z 004b8930 f   item_create.obj
 0001:000b7990       ?create_func_sha@@YAPAVItem@@PAV1@@Z 004b8990 f   item_create.obj
 0001:000b79f0       ?create_func_sleep@@YAPAVItem@@PAV1@@Z 004b89f0 f   item_create.obj
 0001:000b7a60       ?create_func_space@@YAPAVItem@@PAV1@@Z 004b8a60 f   item_create.obj
 0001:000b7bc0       ?create_func_soundex@@YAPAVItem@@PAV1@@Z 004b8bc0 f   item_create.obj
 0001:000b7c20       ?create_func_sqrt@@YAPAVItem@@PAV1@@Z 004b8c20 f   item_create.obj
 0001:000b7c80       ?create_func_strcmp@@YAPAVItem@@PAV1@0@Z 004b8c80 f   item_create.obj
 0001:000b7ce0       ?create_func_tan@@YAPAVItem@@PAV1@@Z 004b8ce0 f   item_create.obj
 0001:000b7d40       ?create_func_time_format@@YAPAVItem@@PAV1@0@Z 004b8d40 f   item_create.obj
 0001:000b7da0       ?create_func_time_to_sec@@YAPAVItem@@PAV1@@Z 004b8da0 f   item_create.obj
 0001:000b7e00       ?create_func_to_days@@YAPAVItem@@PAV1@@Z 004b8e00 f   item_create.obj
 0001:000b7e60       ?create_func_ucase@@YAPAVItem@@PAV1@@Z 004b8e60 f   item_create.obj
 0001:000b7ec0       ?create_func_unhex@@YAPAVItem@@PAV1@@Z 004b8ec0 f   item_create.obj
 0001:000b7f20       ?create_func_uuid@@YAPAVItem@@XZ 004b8f20 f   item_create.obj
 0001:000b7f90       ?create_func_version@@YAPAVItem@@XZ 004b8f90 f   item_create.obj
 0001:000b8000       ?create_func_weekday@@YAPAVItem@@PAV1@@Z 004b9000 f   item_create.obj
 0001:000b8060       ?create_func_year@@YAPAVItem@@PAV1@@Z 004b9060 f   item_create.obj
 0001:000b80c0       ?create_load_file@@YAPAVItem@@PAV1@@Z 004b90c0 f   item_create.obj
 0001:000b8130       ?create_func_cast@@YAPAVItem@@PAV1@W4Cast_target@@PBD2PAUcharset_info_st@@@Z 004b9130 f   item_create.obj
 0001:000b84b0       ?create_func_is_free_lock@@YAPAVItem@@PAV1@@Z 004b94b0 f   item_create.obj
 0001:000b8520       ?create_func_is_used_lock@@YAPAVItem@@PAV1@@Z 004b9520 f   item_create.obj
 0001:000b8590       ?create_func_quote@@YAPAVItem@@PAV1@@Z 004b9590 f   item_create.obj
 0001:000b85f0       ?create_func_as_wkt@@YAPAVItem@@PAV1@@Z 004b95f0 f   item_create.obj
 0001:000b8650       ?create_func_as_wkb@@YAPAVItem@@PAV1@@Z 004b9650 f   item_create.obj
 0001:000b86b0       ?create_func_srid@@YAPAVItem@@PAV1@@Z 004b96b0 f   item_create.obj
 0001:000b8710       ?create_func_startpoint@@YAPAVItem@@PAV1@@Z 004b9710 f   item_create.obj
 0001:000b8770       ?create_func_endpoint@@YAPAVItem@@PAV1@@Z 004b9770 f   item_create.obj
 0001:000b87d0       ?create_func_exteriorring@@YAPAVItem@@PAV1@@Z 004b97d0 f   item_create.obj
 0001:000b8830       ?create_func_pointn@@YAPAVItem@@PAV1@0@Z 004b9830 f   item_create.obj
 0001:000b8890       ?create_func_interiorringn@@YAPAVItem@@PAV1@0@Z 004b9890 f   item_create.obj
 0001:000b88f0       ?create_func_geometryn@@YAPAVItem@@PAV1@0@Z 004b98f0 f   item_create.obj
 0001:000b8950       ?create_func_centroid@@YAPAVItem@@PAV1@@Z 004b9950 f   item_create.obj
 0001:000b89b0       ?create_func_envelope@@YAPAVItem@@PAV1@@Z 004b99b0 f   item_create.obj
 0001:000b8a10       ?create_func_equals@@YAPAVItem@@PAV1@0@Z 004b9a10 f   item_create.obj
 0001:000b8a70       ?create_func_disjoint@@YAPAVItem@@PAV1@0@Z 004b9a70 f   item_create.obj
 0001:000b8ad0       ?create_func_intersects@@YAPAVItem@@PAV1@0@Z 004b9ad0 f   item_create.obj
 0001:000b8b30       ?create_func_touches@@YAPAVItem@@PAV1@0@Z 004b9b30 f   item_create.obj
 0001:000b8b90       ?create_func_crosses@@YAPAVItem@@PAV1@0@Z 004b9b90 f   item_create.obj
 0001:000b8bf0       ?create_func_within@@YAPAVItem@@PAV1@0@Z 004b9bf0 f   item_create.obj
 0001:000b8c50       ?create_func_contains@@YAPAVItem@@PAV1@0@Z 004b9c50 f   item_create.obj
 0001:000b8cb0       ?create_func_overlaps@@YAPAVItem@@PAV1@0@Z 004b9cb0 f   item_create.obj
 0001:000b8d10       ?create_func_isempty@@YAPAVItem@@PAV1@@Z 004b9d10 f   item_create.obj
 0001:000b8d70       ?create_func_issimple@@YAPAVItem@@PAV1@@Z 004b9d70 f   item_create.obj
 0001:000b8dd0       ?create_func_isclosed@@YAPAVItem@@PAV1@@Z 004b9dd0 f   item_create.obj
 0001:000b8e30       ?create_func_geometry_type@@YAPAVItem@@PAV1@@Z 004b9e30 f   item_create.obj
 0001:000b8e90       ?create_func_dimension@@YAPAVItem@@PAV1@@Z 004b9e90 f   item_create.obj
 0001:000b8ef0       ?create_func_x@@YAPAVItem@@PAV1@@Z 004b9ef0 f   item_create.obj
 0001:000b8f50       ?create_func_y@@YAPAVItem@@PAV1@@Z 004b9f50 f   item_create.obj
 0001:000b8fb0       ?create_func_numpoints@@YAPAVItem@@PAV1@@Z 004b9fb0 f   item_create.obj
 0001:000b9010       ?create_func_numinteriorring@@YAPAVItem@@PAV1@@Z 004ba010 f   item_create.obj
 0001:000b9070       ?create_func_numgeometries@@YAPAVItem@@PAV1@@Z 004ba070 f   item_create.obj
 0001:000b90d0       ?create_func_area@@YAPAVItem@@PAV1@@Z 004ba0d0 f   item_create.obj
 0001:000b9130       ?create_func_glength@@YAPAVItem@@PAV1@@Z 004ba130 f   item_create.obj
 0001:000b9190       ?create_func_point@@YAPAVItem@@PAV1@0@Z 004ba190 f   item_create.obj
 0001:000b91f0       ?create_func_crc32@@YAPAVItem@@PAV1@@Z 004ba1f0 f   item_create.obj
 0001:000b9250       ?create_func_compress@@YAPAVItem@@PAV1@@Z 004ba250 f   item_create.obj
 0001:000b92b0       ?create_func_uncompress@@YAPAVItem@@PAV1@@Z 004ba2b0 f   item_create.obj
 0001:000b9310       ?create_func_uncompressed_length@@YAPAVItem@@PAV1@@Z 004ba310 f   item_create.obj
 0001:000b9370       ?create_func_datediff@@YAPAVItem@@PAV1@0@Z 004ba370 f   item_create.obj
 0001:000b9430       ?create_func_weekofyear@@YAPAVItem@@PAV1@@Z 004ba430 f   item_create.obj
 0001:000b94c0       ?create_func_makedate@@YAPAVItem@@PAV1@0@Z 004ba4c0 f   item_create.obj
 0001:000b9520       ?create_func_addtime@@YAPAVItem@@PAV1@0@Z 004ba520 f   item_create.obj
 0001:000b9580       ?create_func_subtime@@YAPAVItem@@PAV1@0@Z 004ba580 f   item_create.obj
 0001:000b95e0       ?create_func_timediff@@YAPAVItem@@PAV1@0@Z 004ba5e0 f   item_create.obj
 0001:000b9640       ?create_func_maketime@@YAPAVItem@@PAV1@00@Z 004ba640 f   item_create.obj
 0001:000b96a0       ?create_func_str_to_date@@YAPAVItem@@PAV1@0@Z 004ba6a0 f   item_create.obj
 0001:000b9700       ?create_func_last_day@@YAPAVItem@@PAV1@@Z 004ba700 f   item_create.obj
 0001:000ba510       ??0Item_func_abs@@QAE@PAVItem@@@Z 004bb510 f i item_create.obj
 0001:000ba560       ?result_type@Item_func_numhybrid@@UBE?AW4Item_result@@XZ 004bb560 f i item_create.obj
 0001:000ba590       ?is_null@Item_func_numhybrid@@UAEHXZ 004bb590 f i item_create.obj
 0001:000ba5e0       ??0Item_func_num1@@QAE@PAVItem@@@Z 004bb5e0 f i item_create.obj
 0001:000ba630       ??0Item_func_numhybrid@@QAE@PAVItem@@@Z 004bb630 f i item_create.obj
 0001:000ba690       ??_GItem_func_numhybrid@@UAEPAXI@Z 004bb690 f i item_create.obj
 0001:000ba690       ??_EItem_func_numhybrid@@UAEPAXI@Z 004bb690 f i item_create.obj
 0001:000ba6f0       ??1Item_func_numhybrid@@UAE@XZ 004bb6f0 f i item_create.obj
 0001:000ba720       ?str_op@Item_func_num1@@UAEPAVString@@PAV2@@Z 004bb720 f i item_create.obj
 0001:000ba770       ??_EItem_func_num1@@UAEPAXI@Z 004bb770 f i item_create.obj
 0001:000ba770       ??_GItem_func_num1@@UAEPAXI@Z 004bb770 f i item_create.obj
 0001:000ba7d0       ??1Item_func_num1@@UAE@XZ  004bb7d0 f i item_create.obj
 0001:000ba800       ?func_name@Item_func_abs@@UBEPBDXZ 004bb800 f i item_create.obj
 0001:000ba820       ??_EItem_func_abs@@UAEPAXI@Z 004bb820 f i item_create.obj
 0001:000ba820       ??_GItem_func_abs@@UAEPAXI@Z 004bb820 f i item_create.obj
 0001:000ba880       ??1Item_func_abs@@UAE@XZ   004bb880 f i item_create.obj
 0001:000ba8b0       ??0Item_func_acos@@QAE@PAVItem@@@Z 004bb8b0 f i item_create.obj
 0001:000ba900       ?val_int@Item_real_func@@UAE_JXZ 004bb900 f i item_create.obj
 0001:000ba990       ?result_type@Item_real_func@@UBE?AW4Item_result@@XZ 004bb990 f i item_create.obj
 0001:000ba9b0       ??0Item_dec_func@@QAE@PAVItem@@@Z 004bb9b0 f i item_create.obj
 0001:000baa00       ??0Item_real_func@@QAE@PAVItem@@@Z 004bba00 f i item_create.obj
 0001:000baa50       ?fix_length_and_dec@Item_real_func@@UAEXXZ 004bba50 f i item_create.obj
 0001:000baaa0       ??_GItem_real_func@@UAEPAXI@Z 004bbaa0 f i item_create.obj
 0001:000baaa0       ??_EItem_real_func@@UAEPAXI@Z 004bbaa0 f i item_create.obj
 0001:000bab00       ??1Item_real_func@@UAE@XZ  004bbb00 f i item_create.obj
 0001:000bab30       ?fix_length_and_dec@Item_dec_func@@UAEXXZ 004bbb30 f i item_create.obj
 0001:000bab80       ??_EItem_dec_func@@UAEPAXI@Z 004bbb80 f i item_create.obj
 0001:000bab80       ??_GItem_dec_func@@UAEPAXI@Z 004bbb80 f i item_create.obj
 0001:000babe0       ??1Item_dec_func@@UAE@XZ   004bbbe0 f i item_create.obj
 0001:000bac10       ?func_name@Item_func_acos@@UBEPBDXZ 004bbc10 f i item_create.obj
 0001:000bac30       ??_EItem_func_acos@@UAEPAXI@Z 004bbc30 f i item_create.obj
 0001:000bac30       ??_GItem_func_acos@@UAEPAXI@Z 004bbc30 f i item_create.obj
 0001:000bac90       ??1Item_func_acos@@UAE@XZ  004bbc90 f i item_create.obj
 0001:000bacc0       ??0Item_func_aes_encrypt@@QAE@PAVItem@@0@Z 004bbcc0 f i item_create.obj
 0001:000bad10       ??0Item_str_func@@QAE@PAVItem@@0@Z 004bbd10 f i item_create.obj
 0001:000bad70       ?func_name@Item_func_aes_encrypt@@UBEPBDXZ 004bbd70 f i item_create.obj
 0001:000bad90       ??_EItem_func_aes_encrypt@@UAEPAXI@Z 004bbd90 f i item_create.obj
 0001:000bad90       ??_GItem_func_aes_encrypt@@UAEPAXI@Z 004bbd90 f i item_create.obj
 0001:000badf0       ??1Item_func_aes_encrypt@@UAE@XZ 004bbdf0 f i item_create.obj
 0001:000bae20       ??0Item_func_aes_decrypt@@QAE@PAVItem@@0@Z 004bbe20 f i item_create.obj
 0001:000bae70       ?func_name@Item_func_aes_decrypt@@UBEPBDXZ 004bbe70 f i item_create.obj
 0001:000bae90       ??_GItem_func_aes_decrypt@@UAEPAXI@Z 004bbe90 f i item_create.obj
 0001:000bae90       ??_EItem_func_aes_decrypt@@UAEPAXI@Z 004bbe90 f i item_create.obj
 0001:000baef0       ??1Item_func_aes_decrypt@@UAE@XZ 004bbef0 f i item_create.obj
 0001:000baf20       ??0Item_func_ascii@@QAE@PAVItem@@@Z 004bbf20 f i item_create.obj
 0001:000baf80       ?func_name@Item_func_ascii@@UBEPBDXZ 004bbf80 f i item_create.obj
 0001:000bafa0       ?fix_length_and_dec@Item_func_ascii@@UAEXXZ 004bbfa0 f i item_create.obj
 0001:000bafd0       ??_GItem_func_ascii@@UAEPAXI@Z 004bbfd0 f i item_create.obj
 0001:000bafd0       ??_EItem_func_ascii@@UAEPAXI@Z 004bbfd0 f i item_create.obj
 0001:000bb030       ??1Item_func_ascii@@UAE@XZ 004bc030 f i item_create.obj
 0001:000bb070       ??0Item_func_ord@@QAE@PAVItem@@@Z 004bc070 f i item_create.obj
 0001:000bb0d0       ?func_name@Item_func_ord@@UBEPBDXZ 004bc0d0 f i item_create.obj
 0001:000bb0f0       ??_EItem_func_ord@@UAEPAXI@Z 004bc0f0 f i item_create.obj
 0001:000bb0f0       ??_GItem_func_ord@@UAEPAXI@Z 004bc0f0 f i item_create.obj
 0001:000bb150       ??1Item_func_ord@@UAE@XZ   004bc150 f i item_create.obj
 0001:000bb190       ??0Item_func_asin@@QAE@PAVItem@@@Z 004bc190 f i item_create.obj
 0001:000bb1e0       ?func_name@Item_func_asin@@UBEPBDXZ 004bc1e0 f i item_create.obj
 0001:000bb200       ??_GItem_func_asin@@UAEPAXI@Z 004bc200 f i item_create.obj
 0001:000bb200       ??_EItem_func_asin@@UAEPAXI@Z 004bc200 f i item_create.obj
 0001:000bb260       ??1Item_func_asin@@UAE@XZ  004bc260 f i item_create.obj
 0001:000bb290       ??0Item_int@@QAE@JI@Z      004bc290 f i item_create.obj
 0001:000bb300       ??0Item_func_conv@@QAE@PAVItem@@00@Z 004bc300 f i item_create.obj
 0001:000bb350       ??0Item_str_func@@QAE@PAVItem@@00@Z 004bc350 f i item_create.obj
 0001:000bb3b0       ??0Item_func@@QAE@PAVItem@@00@Z 004bc3b0 f i item_create.obj
 0001:000bb4b0       ?func_name@Item_func_conv@@UBEPBDXZ 004bc4b0 f i item_create.obj
 0001:000bb4d0       ?fix_length_and_dec@Item_func_conv@@UAEXXZ 004bc4d0 f i item_create.obj
 0001:000bb520       ??_GItem_func_conv@@UAEPAXI@Z 004bc520 f i item_create.obj
 0001:000bb520       ??_EItem_func_conv@@UAEPAXI@Z 004bc520 f i item_create.obj
 0001:000bb580       ??1Item_func_conv@@UAE@XZ  004bc580 f i item_create.obj
 0001:000bb5b0       ??0Item_func_bit_count@@QAE@PAVItem@@@Z 004bc5b0 f i item_create.obj
 0001:000bb600       ?func_name@Item_func_bit_count@@UBEPBDXZ 004bc600 f i item_create.obj
 0001:000bb620       ?fix_length_and_dec@Item_func_bit_count@@UAEXXZ 004bc620 f i item_create.obj
 0001:000bb650       ??_EItem_func_bit_count@@UAEPAXI@Z 004bc650 f i item_create.obj
 0001:000bb650       ??_GItem_func_bit_count@@UAEPAXI@Z 004bc650 f i item_create.obj
 0001:000bb6b0       ??1Item_func_bit_count@@UAE@XZ 004bc6b0 f i item_create.obj
 0001:000bb6e0       ??0Item_func_ceiling@@QAE@PAVItem@@@Z 004bc6e0 f i item_create.obj
 0001:000bb730       ??0Item_func_int_val@@QAE@PAVItem@@@Z 004bc730 f i item_create.obj
 0001:000bb780       ??_EItem_func_int_val@@UAEPAXI@Z 004bc780 f i item_create.obj
 0001:000bb780       ??_GItem_func_int_val@@UAEPAXI@Z 004bc780 f i item_create.obj
 0001:000bb7e0       ??1Item_func_int_val@@UAE@XZ 004bc7e0 f i item_create.obj
 0001:000bb810       ?func_name@Item_func_ceiling@@UBEPBDXZ 004bc810 f i item_create.obj
 0001:000bb830       ??_GItem_func_ceiling@@UAEPAXI@Z 004bc830 f i item_create.obj
 0001:000bb830       ??_EItem_func_ceiling@@UAEPAXI@Z 004bc830 f i item_create.obj
 0001:000bb890       ??1Item_func_ceiling@@UAE@XZ 004bc890 f i item_create.obj
 0001:000bb8c0       ??0Item_func_connection_id@@QAE@XZ 004bc8c0 f i item_create.obj
 0001:000bb900       ?func_name@Item_func_connection_id@@UBEPBDXZ 004bc900 f i item_create.obj
 0001:000bb920       ?val_int@Item_func_connection_id@@UAE_JXZ 004bc920 f i item_create.obj
 0001:000bb990       ??_EItem_func_connection_id@@UAEPAXI@Z 004bc990 f i item_create.obj
 0001:000bb990       ??_GItem_func_connection_id@@UAEPAXI@Z 004bc990 f i item_create.obj
 0001:000bb9f0       ??1Item_func_connection_id@@UAE@XZ 004bc9f0 f i item_create.obj
 0001:000bba20       ??0Item_func_cos@@QAE@PAVItem@@@Z 004bca20 f i item_create.obj
 0001:000bba70       ?func_name@Item_func_cos@@UBEPBDXZ 004bca70 f i item_create.obj
 0001:000bba90       ??_EItem_func_cos@@UAEPAXI@Z 004bca90 f i item_create.obj
 0001:000bba90       ??_GItem_func_cos@@UAEPAXI@Z 004bca90 f i item_create.obj
 0001:000bbaf0       ??1Item_func_cos@@UAE@XZ   004bcaf0 f i item_create.obj
 0001:000bbb20       ??0Item_func_div@@QAE@PAVItem@@0@Z 004bcb20 f i item_create.obj
 0001:000bbb70       ??0Item_num_op@@QAE@PAVItem@@0@Z 004bcb70 f i item_create.obj
 0001:000bbbc0       ??0Item_func_numhybrid@@QAE@PAVItem@@0@Z 004bcbc0 f i item_create.obj
 0001:000bbc20       ?print@Item_num_op@@UAEXPAVString@@@Z 004bcc20 f i item_create.obj
 0001:000bbc60       ?str_op@Item_num_op@@UAEPAVString@@PAV2@@Z 004bcc60 f i item_create.obj
 0001:000bbcb0       ??_GItem_num_op@@UAEPAXI@Z 004bccb0 f i item_create.obj
 0001:000bbcb0       ??_EItem_num_op@@UAEPAXI@Z 004bccb0 f i item_create.obj
 0001:000bbd10       ??1Item_num_op@@UAE@XZ     004bcd10 f i item_create.obj
 0001:000bbd40       ?int_op@Item_func_div@@UAE_JXZ 004bcd40 f i item_create.obj
 0001:000bbd90       ?func_name@Item_func_div@@UBEPBDXZ 004bcd90 f i item_create.obj
 0001:000bbdb0       ??_GItem_func_div@@UAEPAXI@Z 004bcdb0 f i item_create.obj
 0001:000bbdb0       ??_EItem_func_div@@UAEPAXI@Z 004bcdb0 f i item_create.obj
 0001:000bbe10       ??1Item_func_div@@UAE@XZ   004bce10 f i item_create.obj
 0001:000bbe40       ??0Item_func_tan@@QAE@PAVItem@@@Z 004bce40 f i item_create.obj
 0001:000bbe90       ?func_name@Item_func_tan@@UBEPBDXZ 004bce90 f i item_create.obj
 0001:000bbeb0       ??_GItem_func_tan@@UAEPAXI@Z 004bceb0 f i item_create.obj
 0001:000bbeb0       ??_EItem_func_tan@@UAEPAXI@Z 004bceb0 f i item_create.obj
 0001:000bbf10       ??1Item_func_tan@@UAE@XZ   004bcf10 f i item_create.obj
 0001:000bbf40       ??0Item_func_date_format@@QAE@PAVItem@@0H@Z 004bcf40 f i item_create.obj
 0001:000bbfb0       ?func_name@Item_func_date_format@@UBEPBDXZ 004bcfb0 f i item_create.obj
 0001:000bc000       ??_EItem_func_date_format@@UAEPAXI@Z 004bd000 f i item_create.obj
 0001:000bc000       ??_GItem_func_date_format@@UAEPAXI@Z 004bd000 f i item_create.obj
 0001:000bc060       ??1Item_func_date_format@@UAE@XZ 004bd060 f i item_create.obj
 0001:000bc0a0       ??0Item_func_dayofmonth@@QAE@PAVItem@@@Z 004bd0a0 f i item_create.obj
 0001:000bc0f0       ?func_name@Item_func_dayofmonth@@UBEPBDXZ 004bd0f0 f i item_create.obj
 0001:000bc110       ?fix_length_and_dec@Item_func_dayofmonth@@UAEXXZ 004bd110 f i item_create.obj
 0001:000bc150       ??_EItem_func_dayofmonth@@UAEPAXI@Z 004bd150 f i item_create.obj
 0001:000bc150       ??_GItem_func_dayofmonth@@UAEPAXI@Z 004bd150 f i item_create.obj
 0001:000bc1b0       ??1Item_func_dayofmonth@@UAE@XZ 004bd1b0 f i item_create.obj
 0001:000bc1e0       ??0Item_func_weekday@@QAE@PAVItem@@H@Z 004bd1e0 f i item_create.obj
 0001:000bc240       ?val_real@Item_func_weekday@@UAENXZ 004bd240 f i item_create.obj
 0001:000bc2d0       ?val_str@Item_func_weekday@@UAEPAVString@@PAV2@@Z 004bd2d0 f i item_create.obj
 0001:000bc370       ?func_name@Item_func_weekday@@UBEPBDXZ 004bd370 f i item_create.obj
 0001:000bc3c0       ?result_type@Item_func_weekday@@UBE?AW4Item_result@@XZ 004bd3c0 f i item_create.obj
 0001:000bc3e0       ?fix_length_and_dec@Item_func_weekday@@UAEXXZ 004bd3e0 f i item_create.obj
 0001:000bc440       ??_GItem_func_weekday@@UAEPAXI@Z 004bd440 f i item_create.obj
 0001:000bc440       ??_EItem_func_weekday@@UAEPAXI@Z 004bd440 f i item_create.obj
 0001:000bc4a0       ??1Item_func_weekday@@UAE@XZ 004bd4a0 f i item_create.obj
 0001:000bc4d0       ??0Item_func_dayofyear@@QAE@PAVItem@@@Z 004bd4d0 f i item_create.obj
 0001:000bc520       ?func_name@Item_func_dayofyear@@UBEPBDXZ 004bd520 f i item_create.obj
 0001:000bc540       ?fix_length_and_dec@Item_func_dayofyear@@UAEXXZ 004bd540 f i item_create.obj
 0001:000bc580       ??_GItem_func_dayofyear@@UAEPAXI@Z 004bd580 f i item_create.obj
 0001:000bc580       ??_EItem_func_dayofyear@@UAEPAXI@Z 004bd580 f i item_create.obj
 0001:000bc5e0       ??1Item_func_dayofyear@@UAE@XZ 004bd5e0 f i item_create.obj
 0001:000bc610       ??0Item_func_dayname@@QAE@PAVItem@@@Z 004bd610 f i item_create.obj
 0001:000bc660       ?func_name@Item_func_dayname@@UBEPBDXZ 004bd660 f i item_create.obj
 0001:000bc680       ?result_type@Item_func_dayname@@UBE?AW4Item_result@@XZ 004bd680 f i item_create.obj
 0001:000bc6a0       ?fix_length_and_dec@Item_func_dayname@@UAEXXZ 004bd6a0 f i item_create.obj
 0001:000bc700       ??_EItem_func_dayname@@UAEPAXI@Z 004bd700 f i item_create.obj
 0001:000bc700       ??_GItem_func_dayname@@UAEPAXI@Z 004bd700 f i item_create.obj
 0001:000bc760       ??1Item_func_dayname@@UAE@XZ 004bd760 f i item_create.obj
 0001:000bc790       ??0Item_func_units@@QAE@PADPAVItem@@NN@Z 004bd790 f i item_create.obj
 0001:000bc800       ?func_name@Item_func_units@@UBEPBDXZ 004bd800 f i item_create.obj
 0001:000bc830       ?fix_length_and_dec@Item_func_units@@UAEXXZ 004bd830 f i item_create.obj
 0001:000bc880       ??_EItem_func_units@@UAEPAXI@Z 004bd880 f i item_create.obj
 0001:000bc880       ??_GItem_func_units@@UAEPAXI@Z 004bd880 f i item_create.obj
 0001:000bc8e0       ??1Item_func_units@@UAE@XZ 004bd8e0 f i item_create.obj
 0001:000bc910       ??0Item_func_exp@@QAE@PAVItem@@@Z 004bd910 f i item_create.obj
 0001:000bc960       ?func_name@Item_func_exp@@UBEPBDXZ 004bd960 f i item_create.obj
 0001:000bc980       ??_EItem_func_exp@@UAEPAXI@Z 004bd980 f i item_create.obj
 0001:000bc980       ??_GItem_func_exp@@UAEPAXI@Z 004bd980 f i item_create.obj
 0001:000bc9e0       ??1Item_func_exp@@UAE@XZ   004bd9e0 f i item_create.obj
 0001:000bca10       ??0Item_func_find_in_set@@QAE@PAVItem@@0@Z 004bda10 f i item_create.obj
 0001:000bcaa0       ?func_name@Item_func_find_in_set@@UBEPBDXZ 004bdaa0 f i item_create.obj
 0001:000bcac0       ??_GItem_func_find_in_set@@UAEPAXI@Z 004bdac0 f i item_create.obj
 0001:000bcac0       ??_EItem_func_find_in_set@@UAEPAXI@Z 004bdac0 f i item_create.obj
 0001:000bcb20       ??1Item_func_find_in_set@@UAE@XZ 004bdb20 f i item_create.obj
 0001:000bcb70       ??0Item_func_floor@@QAE@PAVItem@@@Z 004bdb70 f i item_create.obj
 0001:000bcbc0       ?func_name@Item_func_floor@@UBEPBDXZ 004bdbc0 f i item_create.obj
 0001:000bcbe0       ??_GItem_func_floor@@UAEPAXI@Z 004bdbe0 f i item_create.obj
 0001:000bcbe0       ??_EItem_func_floor@@UAEPAXI@Z 004bdbe0 f i item_create.obj
 0001:000bcc40       ??1Item_func_floor@@UAE@XZ 004bdc40 f i item_create.obj
 0001:000bcc70       ??0Item_func_found_rows@@QAE@XZ 004bdc70 f i item_create.obj
 0001:000bccb0       ?func_name@Item_func_found_rows@@UBEPBDXZ 004bdcb0 f i item_create.obj
 0001:000bccd0       ?fix_length_and_dec@Item_func_found_rows@@UAEXXZ 004bdcd0 f i item_create.obj
 0001:000bcd00       ??_EItem_func_found_rows@@UAEPAXI@Z 004bdd00 f i item_create.obj
 0001:000bcd00       ??_GItem_func_found_rows@@UAEPAXI@Z 004bdd00 f i item_create.obj
 0001:000bcd60       ??1Item_func_found_rows@@UAE@XZ 004bdd60 f i item_create.obj
 0001:000bcd90       ??0Item_func_from_days@@QAE@PAVItem@@@Z 004bdd90 f i item_create.obj
 0001:000bcde0       ??0Item_date@@QAE@PAVItem@@@Z 004bdde0 f i item_create.obj
 0001:000bce30       ?result_type@Item_date@@UBE?AW4Item_result@@XZ 004bde30 f i item_create.obj
 0001:000bce50       ?field_type@Item_date@@UBE?AW4enum_field_types@@XZ 004bde50 f i item_create.obj
 0001:000bce70       ?val_real@Item_date@@UAENXZ 004bde70 f i item_create.obj
 0001:000bcea0       ?func_name@Item_date@@UBEPBDXZ 004bdea0 f i item_create.obj
 0001:000bcec0       ?fix_length_and_dec@Item_date@@UAEXXZ 004bdec0 f i item_create.obj
 0001:000bcf10       ?tmp_table_field@Item_date@@UAEPAVField@@PAUst_table@@@Z 004bdf10 f i item_create.obj
 0001:000bcfa0       ?result_as_longlong@Item_date@@UAEHXZ 004bdfa0 f i item_create.obj
 0001:000bcfc0       ?val_decimal@Item_date@@UAEPAVmy_decimal@@PAV2@@Z 004bdfc0 f i item_create.obj
 0001:000bd020       ?save_in_field@Item_date@@UAEHPAVField@@H@Z 004be020 f i item_create.obj
 0001:000bd060       ??_EItem_date@@UAEPAXI@Z   004be060 f i item_create.obj
 0001:000bd060       ??_GItem_date@@UAEPAXI@Z   004be060 f i item_create.obj
 0001:000bd0c0       ??1Item_date@@UAE@XZ       004be0c0 f i item_create.obj
 0001:000bd0f0       ?func_name@Item_func_from_days@@UBEPBDXZ 004be0f0 f i item_create.obj
 0001:000bd110       ??_GItem_func_from_days@@UAEPAXI@Z 004be110 f i item_create.obj
 0001:000bd110       ??_EItem_func_from_days@@UAEPAXI@Z 004be110 f i item_create.obj
 0001:000bd170       ??1Item_func_from_days@@UAE@XZ 004be170 f i item_create.obj
 0001:000bd1a0       ??0Item_func_get_lock@@QAE@PAVItem@@0@Z 004be1a0 f i item_create.obj
 0001:000bd200       ?func_name@Item_func_get_lock@@UBEPBDXZ 004be200 f i item_create.obj
 0001:000bd220       ?fix_length_and_dec@Item_func_get_lock@@UAEXXZ 004be220 f i item_create.obj
 0001:000bd250       ??_EItem_func_get_lock@@UAEPAXI@Z 004be250 f i item_create.obj
 0001:000bd250       ??_GItem_func_get_lock@@UAEPAXI@Z 004be250 f i item_create.obj
 0001:000bd2b0       ??1Item_func_get_lock@@UAE@XZ 004be2b0 f i item_create.obj
 0001:000bd2f0       ?uncacheable@st_lex@@QAEXE@Z 004be2f0 f i item_create.obj
 0001:000bd3f0       ??0Item_func_hex@@QAE@PAVItem@@@Z 004be3f0 f i item_create.obj
 0001:000bd450       ?func_name@Item_func_hex@@UBEPBDXZ 004be450 f i item_create.obj
 0001:000bd470       ?fix_length_and_dec@Item_func_hex@@UAEXXZ 004be470 f i item_create.obj
 0001:000bd4e0       ??_GItem_func_hex@@UAEPAXI@Z 004be4e0 f i item_create.obj
 0001:000bd4e0       ??_EItem_func_hex@@UAEPAXI@Z 004be4e0 f i item_create.obj
 0001:000bd540       ??1Item_func_hex@@UAE@XZ   004be540 f i item_create.obj
 0001:000bd580       ??0Item_func_inet_ntoa@@QAE@PAVItem@@@Z 004be580 f i item_create.obj
 0001:000bd5d0       ?func_name@Item_func_inet_ntoa@@UBEPBDXZ 004be5d0 f i item_create.obj
 0001:000bd5f0       ?fix_length_and_dec@Item_func_inet_ntoa@@UAEXXZ 004be5f0 f i item_create.obj
 0001:000bd620       ??_GItem_func_inet_ntoa@@UAEPAXI@Z 004be620 f i item_create.obj
 0001:000bd620       ??_EItem_func_inet_ntoa@@UAEPAXI@Z 004be620 f i item_create.obj
 0001:000bd680       ??1Item_func_inet_ntoa@@UAE@XZ 004be680 f i item_create.obj
 0001:000bd6b0       ??0Item_func_inet_aton@@QAE@PAVItem@@@Z 004be6b0 f i item_create.obj
 0001:000bd700       ?func_name@Item_func_inet_aton@@UBEPBDXZ 004be700 f i item_create.obj
 0001:000bd720       ?fix_length_and_dec@Item_func_inet_aton@@UAEXXZ 004be720 f i item_create.obj
 0001:000bd760       ??_EItem_func_inet_aton@@UAEPAXI@Z 004be760 f i item_create.obj
 0001:000bd760       ??_GItem_func_inet_aton@@UAEPAXI@Z 004be760 f i item_create.obj
 0001:000bd7c0       ??1Item_func_inet_aton@@UAE@XZ 004be7c0 f i item_create.obj
 0001:000bd7f0       ??0Item_func_ifnull@@QAE@PAVItem@@0@Z 004be7f0 f i item_create.obj
 0001:000bd840       ??0Item_func_coalesce@@IAE@PAVItem@@0@Z 004be840 f i item_create.obj
 0001:000bd890       ?find_num_type@Item_func_coalesce@@UAEXXZ 004be890 f i item_create.obj
 0001:000bd8b0       ?result_type@Item_func_coalesce@@UBE?AW4Item_result@@XZ 004be8b0 f i item_create.obj
 0001:000bd8e0       ?func_name@Item_func_coalesce@@UBEPBDXZ 004be8e0 f i item_create.obj
 0001:000bd900       ?not_null_tables@Item_func_coalesce@@UBE_KXZ 004be900 f i item_create.obj
 0001:000bd920       ??_EItem_func_coalesce@@UAEPAXI@Z 004be920 f i item_create.obj
 0001:000bd920       ??_GItem_func_coalesce@@UAEPAXI@Z 004be920 f i item_create.obj
 0001:000bd980       ??1Item_func_coalesce@@UAE@XZ 004be980 f i item_create.obj
 0001:000bd9b0       ?func_name@Item_func_ifnull@@UBEPBDXZ 004be9b0 f i item_create.obj
 0001:000bd9d0       ??_EItem_func_ifnull@@UAEPAXI@Z 004be9d0 f i item_create.obj
 0001:000bd9d0       ??_GItem_func_ifnull@@UAEPAXI@Z 004be9d0 f i item_create.obj
 0001:000bda30       ??1Item_func_ifnull@@UAE@XZ 004bea30 f i item_create.obj
 0001:000bda60       ??0Item_func_nullif@@QAE@PAVItem@@0@Z 004bea60 f i item_create.obj
 0001:000bdac0       ?result_type@Item_func_nullif@@UBE?AW4Item_result@@XZ 004beac0 f i item_create.obj
 0001:000bdaf0       ?decimal_precision@Item_func_nullif@@UBEIXZ 004beaf0 f i item_create.obj
 0001:000bdb40       ?func_name@Item_func_nullif@@UBEPBDXZ 004beb40 f i item_create.obj
 0001:000bdb60       ?print@Item_func_nullif@@UAEXPAVString@@@Z 004beb60 f i item_create.obj
 0001:000bdba0       ?not_null_tables@Item_func_nullif@@UBE_KXZ 004beba0 f i item_create.obj
 0001:000bdbc0       ??_GItem_func_nullif@@UAEPAXI@Z 004bebc0 f i item_create.obj
 0001:000bdbc0       ??_EItem_func_nullif@@UAEPAXI@Z 004bebc0 f i item_create.obj
 0001:000bdc20       ??1Item_func_nullif@@UAE@XZ 004bec20 f i item_create.obj
 0001:000bdc50       ??0Item_func_locate@@QAE@PAVItem@@0@Z 004bec50 f i item_create.obj
 0001:000bdcd0       ?func_name@Item_func_locate@@UBEPBDXZ 004becd0 f i item_create.obj
 0001:000bdcf0       ??_GItem_func_locate@@UAEPAXI@Z 004becf0 f i item_create.obj
 0001:000bdcf0       ??_EItem_func_locate@@UAEPAXI@Z 004becf0 f i item_create.obj
 0001:000bdd50       ??1Item_func_locate@@UAE@XZ 004bed50 f i item_create.obj
 0001:000bdda0       ??0Item_func_lcase@@QAE@PAVItem@@@Z 004beda0 f i item_create.obj
 0001:000bddf0       ??0Item_str_conv@@QAE@PAVItem@@@Z 004bedf0 f i item_create.obj
 0001:000bde50       ??_GItem_str_conv@@UAEPAXI@Z 004bee50 f i item_create.obj
 0001:000bde50       ??_EItem_str_conv@@UAEPAXI@Z 004bee50 f i item_create.obj
 0001:000bdeb0       ??1Item_str_conv@@UAE@XZ   004beeb0 f i item_create.obj
 0001:000bdef0       ?func_name@Item_func_lcase@@UBEPBDXZ 004beef0 f i item_create.obj
 0001:000bdf10       ?fix_length_and_dec@Item_func_lcase@@UAEXXZ 004bef10 f i item_create.obj
 0001:000bdfb0       ??_GItem_func_lcase@@UAEPAXI@Z 004befb0 f i item_create.obj
 0001:000bdfb0       ??_EItem_func_lcase@@UAEPAXI@Z 004befb0 f i item_create.obj
 0001:000be010       ??1Item_func_lcase@@UAE@XZ 004bf010 f i item_create.obj
 0001:000be040       ??0Item_func_length@@QAE@PAVItem@@@Z 004bf040 f i item_create.obj
 0001:000be0a0       ?func_name@Item_func_length@@UBEPBDXZ 004bf0a0 f i item_create.obj
 0001:000be0c0       ?fix_length_and_dec@Item_func_length@@UAEXXZ 004bf0c0 f i item_create.obj
 0001:000be0f0       ??_EItem_func_length@@UAEPAXI@Z 004bf0f0 f i item_create.obj
 0001:000be0f0       ??_GItem_func_length@@UAEPAXI@Z 004bf0f0 f i item_create.obj
 0001:000be150       ??1Item_func_length@@UAE@XZ 004bf150 f i item_create.obj
 0001:000be190       ??0Item_func_bit_length@@QAE@PAVItem@@@Z 004bf190 f i item_create.obj
 0001:000be1e0       ?val_int@Item_func_bit_length@@UAE_JXZ 004bf1e0 f i item_create.obj
 0001:000be250       ?func_name@Item_func_bit_length@@UBEPBDXZ 004bf250 f i item_create.obj
 0001:000be270       ??_GItem_func_bit_length@@UAEPAXI@Z 004bf270 f i item_create.obj
 0001:000be270       ??_EItem_func_bit_length@@UAEPAXI@Z 004bf270 f i item_create.obj
 0001:000be2d0       ??1Item_func_bit_length@@UAE@XZ 004bf2d0 f i item_create.obj
 0001:000be300       ??0Item_func_coercibility@@QAE@PAVItem@@@Z 004bf300 f i item_create.obj
 0001:000be350       ?func_name@Item_func_coercibility@@UBEPBDXZ 004bf350 f i item_create.obj
 0001:000be370       ?fix_length_and_dec@Item_func_coercibility@@UAEXXZ 004bf370 f i item_create.obj
 0001:000be3a0       ?not_null_tables@Item_func_coercibility@@UBE_KXZ 004bf3a0 f i item_create.obj
 0001:000be3c0       ??_EItem_func_coercibility@@UAEPAXI@Z 004bf3c0 f i item_create.obj
 0001:000be3c0       ??_GItem_func_coercibility@@UAEPAXI@Z 004bf3c0 f i item_create.obj
 0001:000be420       ??1Item_func_coercibility@@UAE@XZ 004bf420 f i item_create.obj
 0001:000be450       ??0Item_func_char_length@@QAE@PAVItem@@@Z 004bf450 f i item_create.obj
 0001:000be4b0       ?func_name@Item_func_char_length@@UBEPBDXZ 004bf4b0 f i item_create.obj
 0001:000be4d0       ?fix_length_and_dec@Item_func_char_length@@UAEXXZ 004bf4d0 f i item_create.obj
 0001:000be500       ??_GItem_func_char_length@@UAEPAXI@Z 004bf500 f i item_create.obj
 0001:000be500       ??_EItem_func_char_length@@UAEPAXI@Z 004bf500 f i item_create.obj
 0001:000be560       ??1Item_func_char_length@@UAE@XZ 004bf560 f i item_create.obj
 0001:000be5a0       ??0Item_func_ln@@QAE@PAVItem@@@Z 004bf5a0 f i item_create.obj
 0001:000be5f0       ?func_name@Item_func_ln@@UBEPBDXZ 004bf5f0 f i item_create.obj
 0001:000be610       ??_EItem_func_ln@@UAEPAXI@Z 004bf610 f i item_create.obj
 0001:000be610       ??_GItem_func_ln@@UAEPAXI@Z 004bf610 f i item_create.obj
 0001:000be670       ??1Item_func_ln@@UAE@XZ    004bf670 f i item_create.obj
 0001:000be6a0       ??0Item_func_log2@@QAE@PAVItem@@@Z 004bf6a0 f i item_create.obj
 0001:000be6f0       ?func_name@Item_func_log2@@UBEPBDXZ 004bf6f0 f i item_create.obj
 0001:000be710       ??_EItem_func_log2@@UAEPAXI@Z 004bf710 f i item_create.obj
 0001:000be710       ??_GItem_func_log2@@UAEPAXI@Z 004bf710 f i item_create.obj
 0001:000be770       ??1Item_func_log2@@UAE@XZ  004bf770 f i item_create.obj
 0001:000be7a0       ??0Item_func_log10@@QAE@PAVItem@@@Z 004bf7a0 f i item_create.obj
 0001:000be7f0       ?func_name@Item_func_log10@@UBEPBDXZ 004bf7f0 f i item_create.obj
 0001:000be810       ??_EItem_func_log10@@UAEPAXI@Z 004bf810 f i item_create.obj
 0001:000be810       ??_GItem_func_log10@@UAEPAXI@Z 004bf810 f i item_create.obj
 0001:000be870       ??1Item_func_log10@@UAE@XZ 004bf870 f i item_create.obj
 0001:000be8a0       ??0Item_func_lpad@@QAE@PAVItem@@00@Z 004bf8a0 f i item_create.obj
 0001:000be910       ?func_name@Item_func_lpad@@UBEPBDXZ 004bf910 f i item_create.obj
 0001:000be930       ??_GItem_func_lpad@@UAEPAXI@Z 004bf930 f i item_create.obj
 0001:000be930       ??_EItem_func_lpad@@UAEPAXI@Z 004bf930 f i item_create.obj
 0001:000be990       ??1Item_func_lpad@@UAE@XZ  004bf990 f i item_create.obj
 0001:000be9e0       ??0Item_func_ltrim@@QAE@PAVItem@@@Z 004bf9e0 f i item_create.obj
 0001:000bea30       ??0Item_func_trim@@QAE@PAVItem@@@Z 004bfa30 f i item_create.obj
 0001:000beaa0       ?func_name@Item_func_trim@@UBEPBDXZ 004bfaa0 f i item_create.obj
 0001:000beac0       ?mode_name@Item_func_trim@@UBEPBDXZ 004bfac0 f i item_create.obj
 0001:000beae0       ??_GItem_func_trim@@UAEPAXI@Z 004bfae0 f i item_create.obj
 0001:000beae0       ??_EItem_func_trim@@UAEPAXI@Z 004bfae0 f i item_create.obj
 0001:000beb40       ??1Item_func_trim@@UAE@XZ  004bfb40 f i item_create.obj
 0001:000beb90       ?func_name@Item_func_ltrim@@UBEPBDXZ 004bfb90 f i item_create.obj
 0001:000bebb0       ?mode_name@Item_func_ltrim@@UBEPBDXZ 004bfbb0 f i item_create.obj
 0001:000bebd0       ??_GItem_func_ltrim@@UAEPAXI@Z 004bfbd0 f i item_create.obj
 0001:000bebd0       ??_EItem_func_ltrim@@UAEPAXI@Z 004bfbd0 f i item_create.obj
 0001:000bec30       ??1Item_func_ltrim@@UAE@XZ 004bfc30 f i item_create.obj
 0001:000bec60       ??0Item_func_md5@@QAE@PAVItem@@@Z 004bfc60 f i item_create.obj
 0001:000becd0       ?func_name@Item_func_md5@@UBEPBDXZ 004bfcd0 f i item_create.obj
 0001:000becf0       ??_GItem_func_md5@@UAEPAXI@Z 004bfcf0 f i item_create.obj
 0001:000becf0       ??_EItem_func_md5@@UAEPAXI@Z 004bfcf0 f i item_create.obj
 0001:000bed50       ??1Item_func_md5@@UAE@XZ   004bfd50 f i item_create.obj
 0001:000bed90       ??0Item_func_mod@@QAE@PAVItem@@0@Z 004bfd90 f i item_create.obj
 0001:000bede0       ?func_name@Item_func_mod@@UBEPBDXZ 004bfde0 f i item_create.obj
 0001:000bee00       ??_EItem_func_mod@@UAEPAXI@Z 004bfe00 f i item_create.obj
 0001:000bee00       ??_GItem_func_mod@@UAEPAXI@Z 004bfe00 f i item_create.obj
 0001:000bee60       ??1Item_func_mod@@UAE@XZ   004bfe60 f i item_create.obj
 0001:000bee90       ??0Item_name_const@@QAE@PAVItem@@0@Z 004bfe90 f i item_create.obj
 0001:000beef0       ?result_type@Item_name_const@@UBE?AW4Item_result@@XZ 004bfef0 f i item_create.obj
 0001:000bef40       ?const_item@Item_name_const@@UBEHXZ 004bff40 f i item_create.obj
 0001:000bef60       ?save_in_field@Item_name_const@@UAEHPAVField@@H@Z 004bff60 f i item_create.obj
 0001:000befc0       ?send@Item_name_const@@UAEHPAVProtocol@@PAVString@@@Z 004bffc0 f i item_create.obj
 0001:000bf020       ??_EItem_name_const@@UAEPAXI@Z 004c0020 f i item_create.obj
 0001:000bf020       ??_GItem_name_const@@UAEPAXI@Z 004c0020 f i item_create.obj
 0001:000bf070       ??1Item_name_const@@UAE@XZ 004c0070 f i item_create.obj
 0001:000bf0a0       ??0Item_func_monthname@@QAE@PAVItem@@@Z 004c00a0 f i item_create.obj
 0001:000bf0f0       ??0Item_func_month@@QAE@PAVItem@@@Z 004c00f0 f i item_create.obj
 0001:000bf140       ?val_real@Item_func_month@@UAENXZ 004c0140 f i item_create.obj
 0001:000bf1c0       ?val_str@Item_func_month@@UAEPAVString@@PAV2@@Z 004c01c0 f i item_create.obj
 0001:000bf230       ?func_name@Item_func_month@@UBEPBDXZ 004c0230 f i item_create.obj
 0001:000bf250       ?result_type@Item_func_month@@UBE?AW4Item_result@@XZ 004c0250 f i item_create.obj
 0001:000bf270       ?fix_length_and_dec@Item_func_month@@UAEXXZ 004c0270 f i item_create.obj
 0001:000bf2d0       ??_GItem_func_month@@UAEPAXI@Z 004c02d0 f i item_create.obj
 0001:000bf2d0       ??_EItem_func_month@@UAEPAXI@Z 004c02d0 f i item_create.obj
 0001:000bf330       ??1Item_func_month@@UAE@XZ 004c0330 f i item_create.obj
 0001:000bf360       ?func_name@Item_func_monthname@@UBEPBDXZ 004c0360 f i item_create.obj
 0001:000bf380       ?result_type@Item_func_monthname@@UBE?AW4Item_result@@XZ 004c0380 f i item_create.obj
 0001:000bf3a0       ?fix_length_and_dec@Item_func_monthname@@UAEXXZ 004c03a0 f i item_create.obj
 0001:000bf400       ??_GItem_func_monthname@@UAEPAXI@Z 004c0400 f i item_create.obj
 0001:000bf400       ??_EItem_func_monthname@@UAEPAXI@Z 004c0400 f i item_create.obj
 0001:000bf460       ??1Item_func_monthname@@UAE@XZ 004c0460 f i item_create.obj
 0001:000bf490       ??0Item_func_period_add@@QAE@PAVItem@@0@Z 004c0490 f i item_create.obj
 0001:000bf4e0       ?func_name@Item_func_period_add@@UBEPBDXZ 004c04e0 f i item_create.obj
 0001:000bf500       ?fix_length_and_dec@Item_func_period_add@@UAEXXZ 004c0500 f i item_create.obj
 0001:000bf530       ??_GItem_func_period_add@@UAEPAXI@Z 004c0530 f i item_create.obj
 0001:000bf530       ??_EItem_func_period_add@@UAEPAXI@Z 004c0530 f i item_create.obj
 0001:000bf590       ??1Item_func_period_add@@UAE@XZ 004c0590 f i item_create.obj
 0001:000bf5c0       ??0Item_func_period_diff@@QAE@PAVItem@@0@Z 004c05c0 f i item_create.obj
 0001:000bf610       ?func_name@Item_func_period_diff@@UBEPBDXZ 004c0610 f i item_create.obj
 0001:000bf630       ?fix_length_and_dec@Item_func_period_diff@@UAEXXZ 004c0630 f i item_create.obj
 0001:000bf660       ??_GItem_func_period_diff@@UAEPAXI@Z 004c0660 f i item_create.obj
 0001:000bf660       ??_EItem_func_period_diff@@UAEPAXI@Z 004c0660 f i item_create.obj
 0001:000bf6c0       ??1Item_func_period_diff@@UAE@XZ 004c06c0 f i item_create.obj
 0001:000bf6f0       ??0Item_static_float_func@@QAE@PBDNII@Z 004c06f0 f i item_create.obj
 0001:000bf760       ?print@Item_static_float_func@@UAEXPAVString@@@Z 004c0760 f i item_create.obj
 0001:000bf7a0       ??_GItem_static_float_func@@UAEPAXI@Z 004c07a0 f i item_create.obj
 0001:000bf7a0       ??_EItem_static_float_func@@UAEPAXI@Z 004c07a0 f i item_create.obj
 0001:000bf7f0       ??1Item_static_float_func@@UAE@XZ 004c07f0 f i item_create.obj
 0001:000bf820       ??0Item_func_pow@@QAE@PAVItem@@0@Z 004c0820 f i item_create.obj
 0001:000bf870       ??0Item_dec_func@@QAE@PAVItem@@0@Z 004c0870 f i item_create.obj
 0001:000bf8c0       ??0Item_real_func@@QAE@PAVItem@@0@Z 004c08c0 f i item_create.obj
 0001:000bf910       ?func_name@Item_func_pow@@UBEPBDXZ 004c0910 f i item_create.obj
 0001:000bf930       ??_EItem_func_pow@@UAEPAXI@Z 004c0930 f i item_create.obj
 0001:000bf930       ??_GItem_func_pow@@UAEPAXI@Z 004c0930 f i item_create.obj
 0001:000bf990       ??1Item_func_pow@@UAE@XZ   004c0990 f i item_create.obj
 0001:000bf9c0       ??0Item_func_release_lock@@QAE@PAVItem@@@Z 004c09c0 f i item_create.obj
 0001:000bfa20       ?func_name@Item_func_release_lock@@UBEPBDXZ 004c0a20 f i item_create.obj
 0001:000bfa40       ?fix_length_and_dec@Item_func_release_lock@@UAEXXZ 004c0a40 f i item_create.obj
 0001:000bfa70       ??_EItem_func_release_lock@@UAEPAXI@Z 004c0a70 f i item_create.obj
 0001:000bfa70       ??_GItem_func_release_lock@@UAEPAXI@Z 004c0a70 f i item_create.obj
 0001:000bfad0       ??1Item_func_release_lock@@UAE@XZ 004c0ad0 f i item_create.obj
 0001:000bfb10       ??0Item_func_repeat@@QAE@PAVItem@@0@Z 004c0b10 f i item_create.obj
 0001:000bfb70       ?func_name@Item_func_repeat@@UBEPBDXZ 004c0b70 f i item_create.obj
 0001:000bfb90       ??_EItem_func_repeat@@UAEPAXI@Z 004c0b90 f i item_create.obj
 0001:000bfb90       ??_GItem_func_repeat@@UAEPAXI@Z 004c0b90 f i item_create.obj
 0001:000bfbf0       ??1Item_func_repeat@@UAE@XZ 004c0bf0 f i item_create.obj
 0001:000bfc30       ??0Item_func_reverse@@QAE@PAVItem@@@Z 004c0c30 f i item_create.obj
 0001:000bfc90       ?func_name@Item_func_reverse@@UBEPBDXZ 004c0c90 f i item_create.obj
 0001:000bfcb0       ??_EItem_func_reverse@@UAEPAXI@Z 004c0cb0 f i item_create.obj
 0001:000bfcb0       ??_GItem_func_reverse@@UAEPAXI@Z 004c0cb0 f i item_create.obj
 0001:000bfd10       ??1Item_func_reverse@@UAE@XZ 004c0d10 f i item_create.obj
 0001:000bfd50       ??0Item_func_rpad@@QAE@PAVItem@@00@Z 004c0d50 f i item_create.obj
 0001:000bfdc0       ?func_name@Item_func_rpad@@UBEPBDXZ 004c0dc0 f i item_create.obj
 0001:000bfde0       ??_GItem_func_rpad@@UAEPAXI@Z 004c0de0 f i item_create.obj
 0001:000bfde0       ??_EItem_func_rpad@@UAEPAXI@Z 004c0de0 f i item_create.obj
 0001:000bfe40       ??1Item_func_rpad@@UAE@XZ  004c0e40 f i item_create.obj
 0001:000bfe90       ??0Item_func_rtrim@@QAE@PAVItem@@@Z 004c0e90 f i item_create.obj
 0001:000bfee0       ?func_name@Item_func_rtrim@@UBEPBDXZ 004c0ee0 f i item_create.obj
 0001:000bff00       ?mode_name@Item_func_rtrim@@UBEPBDXZ 004c0f00 f i item_create.obj
 0001:000bff20       ??_EItem_func_rtrim@@UAEPAXI@Z 004c0f20 f i item_create.obj
 0001:000bff20       ??_GItem_func_rtrim@@UAEPAXI@Z 004c0f20 f i item_create.obj
 0001:000bff80       ??1Item_func_rtrim@@UAE@XZ 004c0f80 f i item_create.obj
 0001:000bffb0       ??0Item_func_sec_to_time@@QAE@PAVItem@@@Z 004c0fb0 f i item_create.obj
 0001:000c0000       ??0Item_str_timefunc@@QAE@PAVItem@@@Z 004c1000 f i item_create.obj
 0001:000c0050       ?field_type@Item_str_timefunc@@UBE?AW4enum_field_types@@XZ 004c1050 f i item_create.obj
 0001:000c0070       ?fix_length_and_dec@Item_str_timefunc@@UAEXXZ 004c1070 f i item_create.obj
 0001:000c00a0       ?tmp_table_field@Item_str_timefunc@@UAEPAVField@@PAUst_table@@@Z 004c10a0 f i item_create.obj
 0001:000c0130       ?val_real@Item_str_timefunc@@UAENXZ 004c1130 f i item_create.obj
 0001:000c0160       ?val_decimal@Item_str_timefunc@@UAEPAVmy_decimal@@PAV2@@Z 004c1160 f i item_create.obj
 0001:000c01c0       ?save_in_field@Item_str_timefunc@@UAEHPAVField@@H@Z 004c11c0 f i item_create.obj
 0001:000c0200       ??_EItem_str_timefunc@@UAEPAXI@Z 004c1200 f i item_create.obj
 0001:000c0200       ??_GItem_str_timefunc@@UAEPAXI@Z 004c1200 f i item_create.obj
 0001:000c0260       ??1Item_str_timefunc@@UAE@XZ 004c1260 f i item_create.obj
 0001:000c0290       ?val_real@Item_func_sec_to_time@@UAENXZ 004c1290 f i item_create.obj
 0001:000c0310       ?fix_length_and_dec@Item_func_sec_to_time@@UAEXXZ 004c1310 f i item_create.obj
 0001:000c0360       ?func_name@Item_func_sec_to_time@@UBEPBDXZ 004c1360 f i item_create.obj
 0001:000c0380       ?result_as_longlong@Item_func_sec_to_time@@UAEHXZ 004c1380 f i item_create.obj
 0001:000c03a0       ??_GItem_func_sec_to_time@@UAEPAXI@Z 004c13a0 f i item_create.obj
 0001:000c03a0       ??_EItem_func_sec_to_time@@UAEPAXI@Z 004c13a0 f i item_create.obj
 0001:000c0400       ??1Item_func_sec_to_time@@UAE@XZ 004c1400 f i item_create.obj
 0001:000c0430       ??0Item_func_sign@@QAE@PAVItem@@@Z 004c1430 f i item_create.obj
 0001:000c0480       ?func_name@Item_func_sign@@UBEPBDXZ 004c1480 f i item_create.obj
 0001:000c04a0       ??_GItem_func_sign@@UAEPAXI@Z 004c14a0 f i item_create.obj
 0001:000c04a0       ??_EItem_func_sign@@UAEPAXI@Z 004c14a0 f i item_create.obj
 0001:000c0500       ??1Item_func_sign@@UAE@XZ  004c1500 f i item_create.obj
 0001:000c0530       ??0Item_func_sin@@QAE@PAVItem@@@Z 004c1530 f i item_create.obj
 0001:000c0580       ?func_name@Item_func_sin@@UBEPBDXZ 004c1580 f i item_create.obj
 0001:000c05a0       ??_EItem_func_sin@@UAEPAXI@Z 004c15a0 f i item_create.obj
 0001:000c05a0       ??_GItem_func_sin@@UAEPAXI@Z 004c15a0 f i item_create.obj
 0001:000c0600       ??1Item_func_sin@@UAE@XZ   004c1600 f i item_create.obj
 0001:000c0630       ??0Item_func_sha@@QAE@PAVItem@@@Z 004c1630 f i item_create.obj
 0001:000c0690       ?func_name@Item_func_sha@@UBEPBDXZ 004c1690 f i item_create.obj
 0001:000c06b0       ??_EItem_func_sha@@UAEPAXI@Z 004c16b0 f i item_create.obj
 0001:000c06b0       ??_GItem_func_sha@@UAEPAXI@Z 004c16b0 f i item_create.obj
 0001:000c0710       ??1Item_func_sha@@UAE@XZ   004c1710 f i item_create.obj
 0001:000c0740       ??0Item_func_sleep@@QAE@PAVItem@@@Z 004c1740 f i item_create.obj
 0001:000c0790       ?const_item@Item_func_sleep@@UBEHXZ 004c1790 f i item_create.obj
 0001:000c07b0       ?func_name@Item_func_sleep@@UBEPBDXZ 004c17b0 f i item_create.obj
 0001:000c07d0       ?update_used_tables@Item_func_sleep@@UAEXXZ 004c17d0 f i item_create.obj
 0001:000c0820       ??_GItem_func_sleep@@UAEPAXI@Z 004c1820 f i item_create.obj
 0001:000c0820       ??_EItem_func_sleep@@UAEPAXI@Z 004c1820 f i item_create.obj
 0001:000c0880       ??1Item_func_sleep@@UAE@XZ 004c1880 f i item_create.obj
 0001:000c08b0       ??0Item_func_soundex@@QAE@PAVItem@@@Z 004c18b0 f i item_create.obj
 0001:000c0910       ?func_name@Item_func_soundex@@UBEPBDXZ 004c1910 f i item_create.obj
 0001:000c0930       ??_EItem_func_soundex@@UAEPAXI@Z 004c1930 f i item_create.obj
 0001:000c0930       ??_GItem_func_soundex@@UAEPAXI@Z 004c1930 f i item_create.obj
 0001:000c0990       ??1Item_func_soundex@@UAE@XZ 004c1990 f i item_create.obj
 0001:000c09d0       ??0Item_func_sqrt@@QAE@PAVItem@@@Z 004c19d0 f i item_create.obj
 0001:000c0a20       ?func_name@Item_func_sqrt@@UBEPBDXZ 004c1a20 f i item_create.obj
 0001:000c0a40       ??_GItem_func_sqrt@@UAEPAXI@Z 004c1a40 f i item_create.obj
 0001:000c0a40       ??_EItem_func_sqrt@@UAEPAXI@Z 004c1a40 f i item_create.obj
 0001:000c0aa0       ??1Item_func_sqrt@@UAE@XZ  004c1aa0 f i item_create.obj
 0001:000c0ad0       ??0Item_func_strcmp@@QAE@PAVItem@@0@Z 004c1ad0 f i item_create.obj
 0001:000c0b20       ?select_optimize@Item_func_strcmp@@UBE?AW4optimize_type@Item_func@@XZ 004c1b20 f i item_create.obj
 0001:000c0b40       ?func_name@Item_func_strcmp@@UBEPBDXZ 004c1b40 f i item_create.obj
 0001:000c0b60       ?print@Item_func_strcmp@@UAEXPAVString@@@Z 004c1b60 f i item_create.obj
 0001:000c0ba0       ??_GItem_func_strcmp@@UAEPAXI@Z 004c1ba0 f i item_create.obj
 0001:000c0ba0       ??_EItem_func_strcmp@@UAEPAXI@Z 004c1ba0 f i item_create.obj
 0001:000c0c00       ??1Item_func_strcmp@@UAE@XZ 004c1c00 f i item_create.obj
 0001:000c0c30       ??0Item_func_time_to_sec@@QAE@PAVItem@@@Z 004c1c30 f i item_create.obj
 0001:000c0c80       ?func_name@Item_func_time_to_sec@@UBEPBDXZ 004c1c80 f i item_create.obj
 0001:000c0ca0       ?fix_length_and_dec@Item_func_time_to_sec@@UAEXXZ 004c1ca0 f i item_create.obj
 0001:000c0cd0       ??_EItem_func_time_to_sec@@UAEPAXI@Z 004c1cd0 f i item_create.obj
 0001:000c0cd0       ??_GItem_func_time_to_sec@@UAEPAXI@Z 004c1cd0 f i item_create.obj
 0001:000c0d30       ??1Item_func_time_to_sec@@UAE@XZ 004c1d30 f i item_create.obj
 0001:000c0d60       ??0Item_func_to_days@@QAE@PAVItem@@@Z 004c1d60 f i item_create.obj
 0001:000c0db0       ?func_name@Item_func_to_days@@UBEPBDXZ 004c1db0 f i item_create.obj
 0001:000c0dd0       ?fix_length_and_dec@Item_func_to_days@@UAEXXZ 004c1dd0 f i item_create.obj
 0001:000c0e10       ??_GItem_func_to_days@@UAEPAXI@Z 004c1e10 f i item_create.obj
 0001:000c0e10       ??_EItem_func_to_days@@UAEPAXI@Z 004c1e10 f i item_create.obj
 0001:000c0e70       ??1Item_func_to_days@@UAE@XZ 004c1e70 f i item_create.obj
 0001:000c0ea0       ??0Item_func_ucase@@QAE@PAVItem@@@Z 004c1ea0 f i item_create.obj
 0001:000c0ef0       ?func_name@Item_func_ucase@@UBEPBDXZ 004c1ef0 f i item_create.obj
 0001:000c0f10       ?fix_length_and_dec@Item_func_ucase@@UAEXXZ 004c1f10 f i item_create.obj
 0001:000c0fb0       ??_EItem_func_ucase@@UAEPAXI@Z 004c1fb0 f i item_create.obj
 0001:000c0fb0       ??_GItem_func_ucase@@UAEPAXI@Z 004c1fb0 f i item_create.obj
 0001:000c1010       ??1Item_func_ucase@@UAE@XZ 004c2010 f i item_create.obj
 0001:000c1040       ??0Item_func_unhex@@QAE@PAVItem@@@Z 004c2040 f i item_create.obj
 0001:000c10a0       ?func_name@Item_func_unhex@@UBEPBDXZ 004c20a0 f i item_create.obj
 0001:000c10c0       ?fix_length_and_dec@Item_func_unhex@@UAEXXZ 004c20c0 f i item_create.obj
 0001:000c1120       ??_EItem_func_unhex@@UAEPAXI@Z 004c2120 f i item_create.obj
 0001:000c1120       ??_GItem_func_unhex@@UAEPAXI@Z 004c2120 f i item_create.obj
 0001:000c1180       ??1Item_func_unhex@@UAE@XZ 004c2180 f i item_create.obj
 0001:000c11c0       ??0Item_func_uuid@@QAE@XZ  004c21c0 f i item_create.obj
 0001:000c1200       ??0Item_str_func@@QAE@XZ   004c2200 f i item_create.obj
 0001:000c1250       ?fix_length_and_dec@Item_func_uuid@@UAEXXZ 004c2250 f i item_create.obj
 0001:000c12a0       ?func_name@Item_func_uuid@@UBEPBDXZ 004c22a0 f i item_create.obj
 0001:000c12c0       ??_GItem_func_uuid@@UAEPAXI@Z 004c22c0 f i item_create.obj
 0001:000c12c0       ??_EItem_func_uuid@@UAEPAXI@Z 004c22c0 f i item_create.obj
 0001:000c1320       ??1Item_func_uuid@@UAE@XZ  004c2320 f i item_create.obj
 0001:000c1350       ??0Item_func_year@@QAE@PAVItem@@@Z 004c2350 f i item_create.obj
 0001:000c13a0       ?func_name@Item_func_year@@UBEPBDXZ 004c23a0 f i item_create.obj
 0001:000c13c0       ?fix_length_and_dec@Item_func_year@@UAEXXZ 004c23c0 f i item_create.obj
 0001:000c1400       ??_GItem_func_year@@UAEPAXI@Z 004c2400 f i item_create.obj
 0001:000c1400       ??_EItem_func_year@@UAEPAXI@Z 004c2400 f i item_create.obj
 0001:000c1460       ??1Item_func_year@@UAE@XZ  004c2460 f i item_create.obj
 0001:000c1490       ??0Item_load_file@@QAE@PAVItem@@@Z 004c2490 f i item_create.obj
 0001:000c14f0       ?func_name@Item_load_file@@UBEPBDXZ 004c24f0 f i item_create.obj
 0001:000c1510       ?fix_length_and_dec@Item_load_file@@UAEXXZ 004c2510 f i item_create.obj
 0001:000c1560       ??_EItem_load_file@@UAEPAXI@Z 004c2560 f i item_create.obj
 0001:000c1560       ??_GItem_load_file@@UAEPAXI@Z 004c2560 f i item_create.obj
 0001:000c15c0       ??1Item_load_file@@UAE@XZ  004c25c0 f i item_create.obj
 0001:000c1600       ??0Item_func_signed@@QAE@PAVItem@@@Z 004c2600 f i item_create.obj
 0001:000c1650       ?func_name@Item_func_signed@@UBEPBDXZ 004c2650 f i item_create.obj
 0001:000c1670       ?fix_length_and_dec@Item_func_signed@@UAEXXZ 004c2670 f i item_create.obj
 0001:000c16b0       ?decimal_precision@Item_func_signed@@UBEIXZ 004c26b0 f i item_create.obj
 0001:000c1700       ??_GItem_func_signed@@UAEPAXI@Z 004c2700 f i item_create.obj
 0001:000c1700       ??_EItem_func_signed@@UAEPAXI@Z 004c2700 f i item_create.obj
 0001:000c1760       ??1Item_func_signed@@UAE@XZ 004c2760 f i item_create.obj
 0001:000c1790       ??0Item_func_unsigned@@QAE@PAVItem@@@Z 004c2790 f i item_create.obj
 0001:000c17e0       ?func_name@Item_func_unsigned@@UBEPBDXZ 004c27e0 f i item_create.obj
 0001:000c1800       ?fix_length_and_dec@Item_func_unsigned@@UAEXXZ 004c2800 f i item_create.obj
 0001:000c1840       ??_EItem_func_unsigned@@UAEPAXI@Z 004c2840 f i item_create.obj
 0001:000c1840       ??_GItem_func_unsigned@@UAEPAXI@Z 004c2840 f i item_create.obj
 0001:000c18a0       ??1Item_func_unsigned@@UAE@XZ 004c28a0 f i item_create.obj
 0001:000c18d0       ??0Item_decimal_typecast@@QAE@PAVItem@@HH@Z 004c28d0 f i item_create.obj
 0001:000c1960       ?result_type@Item_decimal_typecast@@UBE?AW4Item_result@@XZ 004c2960 f i item_create.obj
 0001:000c1980       ?field_type@Item_decimal_typecast@@UBE?AW4enum_field_types@@XZ 004c2980 f i item_create.obj
 0001:000c19a0       ?fix_length_and_dec@Item_decimal_typecast@@UAEXXZ 004c29a0 f i item_create.obj
 0001:000c19c0       ?func_name@Item_decimal_typecast@@UBEPBDXZ 004c29c0 f i item_create.obj
 0001:000c19e0       ??_EItem_decimal_typecast@@UAEPAXI@Z 004c29e0 f i item_create.obj
 0001:000c19e0       ??_GItem_decimal_typecast@@UAEPAXI@Z 004c29e0 f i item_create.obj
 0001:000c1a40       ??1Item_decimal_typecast@@UAE@XZ 004c2a40 f i item_create.obj
 0001:000c1a70       ??0Item_func_binary@@QAE@PAVItem@@@Z 004c2a70 f i item_create.obj
 0001:000c1ac0       ?val_str@Item_func_binary@@UAEPAVString@@PAV2@@Z 004c2ac0 f i item_create.obj
 0001:000c1b80       ?fix_length_and_dec@Item_func_binary@@UAEXXZ 004c2b80 f i item_create.obj
 0001:000c1bd0       ?func_name@Item_func_binary@@UBEPBDXZ 004c2bd0 f i item_create.obj
 0001:000c1bf0       ??_GItem_func_binary@@UAEPAXI@Z 004c2bf0 f i item_create.obj
 0001:000c1bf0       ??_EItem_func_binary@@UAEPAXI@Z 004c2bf0 f i item_create.obj
 0001:000c1c50       ??1Item_func_binary@@UAE@XZ 004c2c50 f i item_create.obj
 0001:000c1c80       ??0Item_char_typecast@@QAE@PAVItem@@HPAUcharset_info_st@@@Z 004c2c80 f i item_create.obj
 0001:000c1d00       ??0Item_typecast@@QAE@PAVItem@@@Z 004c2d00 f i item_create.obj
 0001:000c1d50       ?val_str@Item_typecast@@UAEPAVString@@PAV2@@Z 004c2d50 f i item_create.obj
 0001:000c1e10       ?fix_length_and_dec@Item_typecast@@UAEXXZ 004c2e10 f i item_create.obj
 0001:000c1e60       ??_GItem_typecast@@UAEPAXI@Z 004c2e60 f i item_create.obj
 0001:000c1e60       ??_EItem_typecast@@UAEPAXI@Z 004c2e60 f i item_create.obj
 0001:000c1ec0       ??1Item_typecast@@UAE@XZ   004c2ec0 f i item_create.obj
 0001:000c1ef0       ?functype@Item_char_typecast@@UBE?AW4Functype@Item_func@@XZ 004c2ef0 f i item_create.obj
 0001:000c1f10       ?func_name@Item_char_typecast@@UBEPBDXZ 004c2f10 f i item_create.obj
 0001:000c1f30       ?cast_type@Item_char_typecast@@UBEPBDXZ 004c2f30 f i item_create.obj
 0001:000c1f50       ??_GItem_char_typecast@@UAEPAXI@Z 004c2f50 f i item_create.obj
 0001:000c1f50       ??_EItem_char_typecast@@UAEPAXI@Z 004c2f50 f i item_create.obj
 0001:000c1fb0       ??1Item_char_typecast@@UAE@XZ 004c2fb0 f i item_create.obj
 0001:000c1ff0       ??0Item_date_typecast@@QAE@PAVItem@@@Z 004c2ff0 f i item_create.obj
 0001:000c2040       ??0Item_typecast_maybe_null@@QAE@PAVItem@@@Z 004c3040 f i item_create.obj
 0001:000c2090       ?fix_length_and_dec@Item_typecast_maybe_null@@UAEXXZ 004c3090 f i item_create.obj
 0001:000c20f0       ??_GItem_typecast_maybe_null@@UAEPAXI@Z 004c30f0 f i item_create.obj
 0001:000c20f0       ??_EItem_typecast_maybe_null@@UAEPAXI@Z 004c30f0 f i item_create.obj
 0001:000c2150       ??1Item_typecast_maybe_null@@UAE@XZ 004c3150 f i item_create.obj
 0001:000c2180       ?func_name@Item_date_typecast@@UBEPBDXZ 004c3180 f i item_create.obj
 0001:000c21a0       ?cast_type@Item_date_typecast@@UBEPBDXZ 004c31a0 f i item_create.obj
 0001:000c21c0       ?field_type@Item_date_typecast@@UBE?AW4enum_field_types@@XZ 004c31c0 f i item_create.obj
 0001:000c21e0       ?tmp_table_field@Item_date_typecast@@UAEPAVField@@PAUst_table@@@Z 004c31e0 f i item_create.obj
 0001:000c2270       ?fix_length_and_dec@Item_date_typecast@@UAEXXZ 004c3270 f i item_create.obj
 0001:000c22c0       ?result_as_longlong@Item_date_typecast@@UAEHXZ 004c32c0 f i item_create.obj
 0001:000c22e0       ?val_real@Item_date_typecast@@UAENXZ 004c32e0 f i item_create.obj
 0001:000c2340       ?val_decimal@Item_date_typecast@@UAEPAVmy_decimal@@PAV2@@Z 004c3340 f i item_create.obj
 0001:000c23a0       ?save_in_field@Item_date_typecast@@UAEHPAVField@@H@Z 004c33a0 f i item_create.obj
 0001:000c23e0       ??_EItem_date_typecast@@UAEPAXI@Z 004c33e0 f i item_create.obj
 0001:000c23e0       ??_GItem_date_typecast@@UAEPAXI@Z 004c33e0 f i item_create.obj
 0001:000c2440       ??1Item_date_typecast@@UAE@XZ 004c3440 f i item_create.obj
 0001:000c2470       ??0Item_time_typecast@@QAE@PAVItem@@@Z 004c3470 f i item_create.obj
 0001:000c24c0       ?func_name@Item_time_typecast@@UBEPBDXZ 004c34c0 f i item_create.obj
 0001:000c24e0       ?cast_type@Item_time_typecast@@UBEPBDXZ 004c34e0 f i item_create.obj
 0001:000c2500       ?field_type@Item_time_typecast@@UBE?AW4enum_field_types@@XZ 004c3500 f i item_create.obj
 0001:000c2520       ?tmp_table_field@Item_time_typecast@@UAEPAVField@@PAUst_table@@@Z 004c3520 f i item_create.obj
 0001:000c25b0       ?result_as_longlong@Item_time_typecast@@UAEHXZ 004c35b0 f i item_create.obj
 0001:000c25d0       ?val_real@Item_time_typecast@@UAENXZ 004c35d0 f i item_create.obj
 0001:000c2600       ?val_decimal@Item_time_typecast@@UAEPAVmy_decimal@@PAV2@@Z 004c3600 f i item_create.obj
 0001:000c2660       ?save_in_field@Item_time_typecast@@UAEHPAVField@@H@Z 004c3660 f i item_create.obj
 0001:000c26a0       ??_GItem_time_typecast@@UAEPAXI@Z 004c36a0 f i item_create.obj
 0001:000c26a0       ??_EItem_time_typecast@@UAEPAXI@Z 004c36a0 f i item_create.obj
 0001:000c2700       ??1Item_time_typecast@@UAE@XZ 004c3700 f i item_create.obj
 0001:000c2730       ??0Item_datetime_typecast@@QAE@PAVItem@@@Z 004c3730 f i item_create.obj
 0001:000c2780       ?func_name@Item_datetime_typecast@@UBEPBDXZ 004c3780 f i item_create.obj
 0001:000c27a0       ?cast_type@Item_datetime_typecast@@UBEPBDXZ 004c37a0 f i item_create.obj
 0001:000c27c0       ?field_type@Item_datetime_typecast@@UBE?AW4enum_field_types@@XZ 004c37c0 f i item_create.obj
 0001:000c27e0       ?fix_length_and_dec@Item_datetime_typecast@@UAEXXZ 004c37e0 f i item_create.obj
 0001:000c2820       ?tmp_table_field@Item_datetime_typecast@@UAEPAVField@@PAUst_table@@@Z 004c3820 f i item_create.obj
 0001:000c28b0       ?result_as_longlong@Item_datetime_typecast@@UAEHXZ 004c38b0 f i item_create.obj
 0001:000c28d0       ?val_real@Item_datetime_typecast@@UAENXZ 004c38d0 f i item_create.obj
 0001:000c2900       ?val_decimal@Item_datetime_typecast@@UAEPAVmy_decimal@@PAV2@@Z 004c3900 f i item_create.obj
 0001:000c2960       ?save_in_field@Item_datetime_typecast@@UAEHPAVField@@H@Z 004c3960 f i item_create.obj
 0001:000c29a0       ??_EItem_datetime_typecast@@UAEPAXI@Z 004c39a0 f i item_create.obj
 0001:000c29a0       ??_GItem_datetime_typecast@@UAEPAXI@Z 004c39a0 f i item_create.obj
 0001:000c2a00       ??1Item_datetime_typecast@@UAE@XZ 004c3a00 f i item_create.obj
 0001:000c2a30       ??0Item_func_is_free_lock@@QAE@PAVItem@@@Z 004c3a30 f i item_create.obj
 0001:000c2a90       ?func_name@Item_func_is_free_lock@@UBEPBDXZ 004c3a90 f i item_create.obj
 0001:000c2ab0       ?fix_length_and_dec@Item_func_is_free_lock@@UAEXXZ 004c3ab0 f i item_create.obj
 0001:000c2af0       ??_EItem_func_is_free_lock@@UAEPAXI@Z 004c3af0 f i item_create.obj
 0001:000c2af0       ??_GItem_func_is_free_lock@@UAEPAXI@Z 004c3af0 f i item_create.obj
 0001:000c2b50       ??1Item_func_is_free_lock@@UAE@XZ 004c3b50 f i item_create.obj
 0001:000c2b90       ??0Item_func_is_used_lock@@QAE@PAVItem@@@Z 004c3b90 f i item_create.obj
 0001:000c2bf0       ?func_name@Item_func_is_used_lock@@UBEPBDXZ 004c3bf0 f i item_create.obj
 0001:000c2c10       ?fix_length_and_dec@Item_func_is_used_lock@@UAEXXZ 004c3c10 f i item_create.obj
 0001:000c2c50       ??_EItem_func_is_used_lock@@UAEPAXI@Z 004c3c50 f i item_create.obj
 0001:000c2c50       ??_GItem_func_is_used_lock@@UAEPAXI@Z 004c3c50 f i item_create.obj
 0001:000c2cb0       ??1Item_func_is_used_lock@@UAE@XZ 004c3cb0 f i item_create.obj
 0001:000c2cf0       ??0Item_func_quote@@QAE@PAVItem@@@Z 004c3cf0 f i item_create.obj
 0001:000c2d50       ?func_name@Item_func_quote@@UBEPBDXZ 004c3d50 f i item_create.obj
 0001:000c2d70       ?fix_length_and_dec@Item_func_quote@@UAEXXZ 004c3d70 f i item_create.obj
 0001:000c2dd0       ??_GItem_func_quote@@UAEPAXI@Z 004c3dd0 f i item_create.obj
 0001:000c2dd0       ??_EItem_func_quote@@UAEPAXI@Z 004c3dd0 f i item_create.obj
 0001:000c2e30       ??1Item_func_quote@@UAE@XZ 004c3e30 f i item_create.obj
 0001:000c2e70       ??0Item_func_as_wkt@@QAE@PAVItem@@@Z 004c3e70 f i item_create.obj
 0001:000c2ec0       ?func_name@Item_func_as_wkt@@UBEPBDXZ 004c3ec0 f i item_create.obj
 0001:000c2ee0       ??_EItem_func_as_wkt@@UAEPAXI@Z 004c3ee0 f i item_create.obj
 0001:000c2ee0       ??_GItem_func_as_wkt@@UAEPAXI@Z 004c3ee0 f i item_create.obj
 0001:000c2f40       ??1Item_func_as_wkt@@UAE@XZ 004c3f40 f i item_create.obj
 0001:000c2f70       ??0Item_func_as_wkb@@QAE@PAVItem@@@Z 004c3f70 f i item_create.obj
 0001:000c2fc0       ??0Item_geometry_func@@QAE@PAVItem@@@Z 004c3fc0 f i item_create.obj
 0001:000c3010       ?field_type@Item_geometry_func@@UBE?AW4enum_field_types@@XZ 004c4010 f i item_create.obj
 0001:000c3030       ?is_null@Item_geometry_func@@UAEHXZ 004c4030 f i item_create.obj
 0001:000c3080       ??_GItem_geometry_func@@UAEPAXI@Z 004c4080 f i item_create.obj
 0001:000c3080       ??_EItem_geometry_func@@UAEPAXI@Z 004c4080 f i item_create.obj
 0001:000c30e0       ??1Item_geometry_func@@UAE@XZ 004c40e0 f i item_create.obj
 0001:000c3110       ?func_name@Item_func_as_wkb@@UBEPBDXZ 004c4110 f i item_create.obj
 0001:000c3130       ?field_type@Item_func_as_wkb@@UBE?AW4enum_field_types@@XZ 004c4130 f i item_create.obj
 0001:000c3150       ??_GItem_func_as_wkb@@UAEPAXI@Z 004c4150 f i item_create.obj
 0001:000c3150       ??_EItem_func_as_wkb@@UAEPAXI@Z 004c4150 f i item_create.obj
 0001:000c31b0       ??1Item_func_as_wkb@@UAE@XZ 004c41b0 f i item_create.obj
 0001:000c31e0       ??0Item_func_srid@@QAE@PAVItem@@@Z 004c41e0 f i item_create.obj
 0001:000c3240       ?func_name@Item_func_srid@@UBEPBDXZ 004c4240 f i item_create.obj
 0001:000c3260       ?fix_length_and_dec@Item_func_srid@@UAEXXZ 004c4260 f i item_create.obj
 0001:000c3290       ??_EItem_func_srid@@UAEPAXI@Z 004c4290 f i item_create.obj
 0001:000c3290       ??_GItem_func_srid@@UAEPAXI@Z 004c4290 f i item_create.obj
 0001:000c32f0       ??1Item_func_srid@@UAE@XZ  004c42f0 f i item_create.obj
 0001:000c3330       ??0Item_func_spatial_decomp@@QAE@PAVItem@@W4Functype@Item_func@@@Z 004c4330 f i item_create.obj
 0001:000c3390       ?func_name@Item_func_spatial_decomp@@UBEPBDXZ 004c4390 f i item_create.obj
 0001:000c3430       ??_EItem_func_spatial_decomp@@UAEPAXI@Z 004c4430 f i item_create.obj
 0001:000c3430       ??_GItem_func_spatial_decomp@@UAEPAXI@Z 004c4430 f i item_create.obj
 0001:000c3490       ??1Item_func_spatial_decomp@@UAE@XZ 004c4490 f i item_create.obj
 0001:000c34c0       ??0Item_func_spatial_decomp_n@@QAE@PAVItem@@0W4Functype@Item_func@@@Z 004c44c0 f i item_create.obj
 0001:000c3520       ??0Item_geometry_func@@QAE@PAVItem@@0@Z 004c4520 f i item_create.obj
 0001:000c3570       ?func_name@Item_func_spatial_decomp_n@@UBEPBDXZ 004c4570 f i item_create.obj
 0001:000c3610       ??_EItem_func_spatial_decomp_n@@UAEPAXI@Z 004c4610 f i item_create.obj
 0001:000c3610       ??_GItem_func_spatial_decomp_n@@UAEPAXI@Z 004c4610 f i item_create.obj
 0001:000c3670       ??1Item_func_spatial_decomp_n@@UAE@XZ 004c4670 f i item_create.obj
 0001:000c36a0       ??0Item_func_centroid@@QAE@PAVItem@@@Z 004c46a0 f i item_create.obj
 0001:000c36f0       ?func_name@Item_func_centroid@@UBEPBDXZ 004c46f0 f i item_create.obj
 0001:000c3710       ??_GItem_func_centroid@@UAEPAXI@Z 004c4710 f i item_create.obj
 0001:000c3710       ??_EItem_func_centroid@@UAEPAXI@Z 004c4710 f i item_create.obj
 0001:000c3770       ??1Item_func_centroid@@UAE@XZ 004c4770 f i item_create.obj
 0001:000c37a0       ??0Item_func_envelope@@QAE@PAVItem@@@Z 004c47a0 f i item_create.obj
 0001:000c37f0       ?func_name@Item_func_envelope@@UBEPBDXZ 004c47f0 f i item_create.obj
 0001:000c3810       ??_EItem_func_envelope@@UAEPAXI@Z 004c4810 f i item_create.obj
 0001:000c3810       ??_GItem_func_envelope@@UAEPAXI@Z 004c4810 f i item_create.obj
 0001:000c3870       ??1Item_func_envelope@@UAE@XZ 004c4870 f i item_create.obj
 0001:000c38a0       ??0Item_func_spatial_rel@@QAE@PAVItem@@0W4Functype@Item_func@@@Z 004c48a0 f i item_create.obj
 0001:000c3900       ?functype@Item_func_spatial_rel@@UBE?AW4Functype@Item_func@@XZ 004c4900 f i item_create.obj
 0001:000c3960       ?rev_functype@Item_func_spatial_rel@@UBE?AW4Functype@Item_func@@XZ 004c4960 f i item_create.obj
 0001:000c3990       ?func_name@Item_func_spatial_rel@@UBEPBDXZ 004c4990 f i item_create.obj
 0001:000c3a90       ?print@Item_func_spatial_rel@@UAEXPAVString@@@Z 004c4a90 f i item_create.obj
 0001:000c3ad0       ?fix_length_and_dec@Item_func_spatial_rel@@UAEXXZ 004c4ad0 f i item_create.obj
 0001:000c3af0       ?is_null@Item_func_spatial_rel@@UAEHXZ 004c4af0 f i item_create.obj
 0001:000c3b40       ??_GItem_func_spatial_rel@@UAEPAXI@Z 004c4b40 f i item_create.obj
 0001:000c3b40       ??_EItem_func_spatial_rel@@UAEPAXI@Z 004c4b40 f i item_create.obj
 0001:000c3ba0       ??1Item_func_spatial_rel@@UAE@XZ 004c4ba0 f i item_create.obj
 0001:000c3bd0       ??0Item_func_isempty@@QAE@PAVItem@@@Z 004c4bd0 f i item_create.obj
 0001:000c3c20       ?select_optimize@Item_func_isempty@@UBE?AW4optimize_type@Item_func@@XZ 004c4c20 f i item_create.obj
 0001:000c3c40       ?func_name@Item_func_isempty@@UBEPBDXZ 004c4c40 f i item_create.obj
 0001:000c3c60       ?fix_length_and_dec@Item_func_isempty@@UAEXXZ 004c4c60 f i item_create.obj
 0001:000c3c80       ??_GItem_func_isempty@@UAEPAXI@Z 004c4c80 f i item_create.obj
 0001:000c3c80       ??_EItem_func_isempty@@UAEPAXI@Z 004c4c80 f i item_create.obj
 0001:000c3ce0       ??1Item_func_isempty@@UAE@XZ 004c4ce0 f i item_create.obj
 0001:000c3d10       ??0Item_func_issimple@@QAE@PAVItem@@@Z 004c4d10 f i item_create.obj
 0001:000c3d60       ?select_optimize@Item_func_issimple@@UBE?AW4optimize_type@Item_func@@XZ 004c4d60 f i item_create.obj
 0001:000c3d80       ?func_name@Item_func_issimple@@UBEPBDXZ 004c4d80 f i item_create.obj
 0001:000c3da0       ?fix_length_and_dec@Item_func_issimple@@UAEXXZ 004c4da0 f i item_create.obj
 0001:000c3dc0       ??_GItem_func_issimple@@UAEPAXI@Z 004c4dc0 f i item_create.obj
 0001:000c3dc0       ??_EItem_func_issimple@@UAEPAXI@Z 004c4dc0 f i item_create.obj
 0001:000c3e20       ??1Item_func_issimple@@UAE@XZ 004c4e20 f i item_create.obj
 0001:000c3e50       ??0Item_func_isclosed@@QAE@PAVItem@@@Z 004c4e50 f i item_create.obj
 0001:000c3ea0       ?select_optimize@Item_func_isclosed@@UBE?AW4optimize_type@Item_func@@XZ 004c4ea0 f i item_create.obj
 0001:000c3ec0       ?func_name@Item_func_isclosed@@UBEPBDXZ 004c4ec0 f i item_create.obj
 0001:000c3ee0       ?fix_length_and_dec@Item_func_isclosed@@UAEXXZ 004c4ee0 f i item_create.obj
 0001:000c3f00       ??_EItem_func_isclosed@@UAEPAXI@Z 004c4f00 f i item_create.obj
 0001:000c3f00       ??_GItem_func_isclosed@@UAEPAXI@Z 004c4f00 f i item_create.obj
 0001:000c3f60       ??1Item_func_isclosed@@UAE@XZ 004c4f60 f i item_create.obj
 0001:000c3f90       ??0Item_func_geometry_type@@QAE@PAVItem@@@Z 004c4f90 f i item_create.obj
 0001:000c3fe0       ?func_name@Item_func_geometry_type@@UBEPBDXZ 004c4fe0 f i item_create.obj
 0001:000c4000       ?fix_length_and_dec@Item_func_geometry_type@@UAEXXZ 004c5000 f i item_create.obj
 0001:000c4030       ??_GItem_func_geometry_type@@UAEPAXI@Z 004c5030 f i item_create.obj
 0001:000c4030       ??_EItem_func_geometry_type@@UAEPAXI@Z 004c5030 f i item_create.obj
 0001:000c4090       ??1Item_func_geometry_type@@UAE@XZ 004c5090 f i item_create.obj
 0001:000c40c0       ??0Item_func_dimension@@QAE@PAVItem@@@Z 004c50c0 f i item_create.obj
 0001:000c4120       ?func_name@Item_func_dimension@@UBEPBDXZ 004c5120 f i item_create.obj
 0001:000c4140       ?fix_length_and_dec@Item_func_dimension@@UAEXXZ 004c5140 f i item_create.obj
 0001:000c4170       ??_EItem_func_dimension@@UAEPAXI@Z 004c5170 f i item_create.obj
 0001:000c4170       ??_GItem_func_dimension@@UAEPAXI@Z 004c5170 f i item_create.obj
 0001:000c41d0       ??1Item_func_dimension@@UAE@XZ 004c51d0 f i item_create.obj
 0001:000c4210       ??0Item_func_x@@QAE@PAVItem@@@Z 004c5210 f i item_create.obj
 0001:000c4270       ?func_name@Item_func_x@@UBEPBDXZ 004c5270 f i item_create.obj
 0001:000c4290       ?fix_length_and_dec@Item_func_x@@UAEXXZ 004c5290 f i item_create.obj
 0001:000c42d0       ??_EItem_func_x@@UAEPAXI@Z 004c52d0 f i item_create.obj
 0001:000c42d0       ??_GItem_func_x@@UAEPAXI@Z 004c52d0 f i item_create.obj
 0001:000c4330       ??1Item_func_x@@UAE@XZ     004c5330 f i item_create.obj
 0001:000c4370       ??0Item_func_y@@QAE@PAVItem@@@Z 004c5370 f i item_create.obj
 0001:000c43d0       ?func_name@Item_func_y@@UBEPBDXZ 004c53d0 f i item_create.obj
 0001:000c43f0       ?fix_length_and_dec@Item_func_y@@UAEXXZ 004c53f0 f i item_create.obj
 0001:000c4430       ??_EItem_func_y@@UAEPAXI@Z 004c5430 f i item_create.obj
 0001:000c4430       ??_GItem_func_y@@UAEPAXI@Z 004c5430 f i item_create.obj
 0001:000c4490       ??1Item_func_y@@UAE@XZ     004c5490 f i item_create.obj
 0001:000c44d0       ??0Item_func_numpoints@@QAE@PAVItem@@@Z 004c54d0 f i item_create.obj
 0001:000c4530       ?func_name@Item_func_numpoints@@UBEPBDXZ 004c5530 f i item_create.obj
 0001:000c4550       ?fix_length_and_dec@Item_func_numpoints@@UAEXXZ 004c5550 f i item_create.obj
 0001:000c4580       ??_EItem_func_numpoints@@UAEPAXI@Z 004c5580 f i item_create.obj
 0001:000c4580       ??_GItem_func_numpoints@@UAEPAXI@Z 004c5580 f i item_create.obj
 0001:000c45e0       ??1Item_func_numpoints@@UAE@XZ 004c55e0 f i item_create.obj
 0001:000c4620       ??0Item_func_numinteriorring@@QAE@PAVItem@@@Z 004c5620 f i item_create.obj
 0001:000c4680       ?func_name@Item_func_numinteriorring@@UBEPBDXZ 004c5680 f i item_create.obj
 0001:000c46a0       ?fix_length_and_dec@Item_func_numinteriorring@@UAEXXZ 004c56a0 f i item_create.obj
 0001:000c46d0       ??_EItem_func_numinteriorring@@UAEPAXI@Z 004c56d0 f i item_create.obj
 0001:000c46d0       ??_GItem_func_numinteriorring@@UAEPAXI@Z 004c56d0 f i item_create.obj
 0001:000c4730       ??1Item_func_numinteriorring@@UAE@XZ 004c5730 f i item_create.obj
 0001:000c4770       ??0Item_func_numgeometries@@QAE@PAVItem@@@Z 004c5770 f i item_create.obj
 0001:000c47d0       ?func_name@Item_func_numgeometries@@UBEPBDXZ 004c57d0 f i item_create.obj
 0001:000c47f0       ?fix_length_and_dec@Item_func_numgeometries@@UAEXXZ 004c57f0 f i item_create.obj
 0001:000c4820       ??_EItem_func_numgeometries@@UAEPAXI@Z 004c5820 f i item_create.obj
 0001:000c4820       ??_GItem_func_numgeometries@@UAEPAXI@Z 004c5820 f i item_create.obj
 0001:000c4880       ??1Item_func_numgeometries@@UAE@XZ 004c5880 f i item_create.obj
 0001:000c48c0       ??0Item_func_area@@QAE@PAVItem@@@Z 004c58c0 f i item_create.obj
 0001:000c4920       ?func_name@Item_func_area@@UBEPBDXZ 004c5920 f i item_create.obj
 0001:000c4940       ?fix_length_and_dec@Item_func_area@@UAEXXZ 004c5940 f i item_create.obj
 0001:000c4980       ??_EItem_func_area@@UAEPAXI@Z 004c5980 f i item_create.obj
 0001:000c4980       ??_GItem_func_area@@UAEPAXI@Z 004c5980 f i item_create.obj
 0001:000c49e0       ??1Item_func_area@@UAE@XZ  004c59e0 f i item_create.obj
 0001:000c4a20       ??0Item_func_glength@@QAE@PAVItem@@@Z 004c5a20 f i item_create.obj
 0001:000c4a80       ?func_name@Item_func_glength@@UBEPBDXZ 004c5a80 f i item_create.obj
 0001:000c4aa0       ?fix_length_and_dec@Item_func_glength@@UAEXXZ 004c5aa0 f i item_create.obj
 0001:000c4ae0       ??_EItem_func_glength@@UAEPAXI@Z 004c5ae0 f i item_create.obj
 0001:000c4ae0       ??_GItem_func_glength@@UAEPAXI@Z 004c5ae0 f i item_create.obj
 0001:000c4b40       ??1Item_func_glength@@UAE@XZ 004c5b40 f i item_create.obj
 0001:000c4b80       ??0Item_func_point@@QAE@PAVItem@@0@Z 004c5b80 f i item_create.obj
 0001:000c4bd0       ?func_name@Item_func_point@@UBEPBDXZ 004c5bd0 f i item_create.obj
 0001:000c4bf0       ??_GItem_func_point@@UAEPAXI@Z 004c5bf0 f i item_create.obj
 0001:000c4bf0       ??_EItem_func_point@@UAEPAXI@Z 004c5bf0 f i item_create.obj
 0001:000c4c50       ??1Item_func_point@@UAE@XZ 004c5c50 f i item_create.obj
 0001:000c4c80       ??0Item_func_crc32@@QAE@PAVItem@@@Z 004c5c80 f i item_create.obj
 0001:000c4ce0       ?func_name@Item_func_crc32@@UBEPBDXZ 004c5ce0 f i item_create.obj
 0001:000c4d00       ?fix_length_and_dec@Item_func_crc32@@UAEXXZ 004c5d00 f i item_create.obj
 0001:000c4d30       ??_GItem_func_crc32@@UAEPAXI@Z 004c5d30 f i item_create.obj
 0001:000c4d30       ??_EItem_func_crc32@@UAEPAXI@Z 004c5d30 f i item_create.obj
 0001:000c4d90       ??1Item_func_crc32@@UAE@XZ 004c5d90 f i item_create.obj
 0001:000c4dd0       ??0Item_func_compress@@QAE@PAVItem@@@Z 004c5dd0 f i item_create.obj
 0001:000c4e30       ?fix_length_and_dec@Item_func_compress@@UAEXXZ 004c5e30 f i item_create.obj
 0001:000c4e70       ?func_name@Item_func_compress@@UBEPBDXZ 004c5e70 f i item_create.obj
 0001:000c4e90       ??_GItem_func_compress@@UAEPAXI@Z 004c5e90 f i item_create.obj
 0001:000c4e90       ??_EItem_func_compress@@UAEPAXI@Z 004c5e90 f i item_create.obj
 0001:000c4ef0       ??1Item_func_compress@@UAE@XZ 004c5ef0 f i item_create.obj
 0001:000c4f30       ??0Item_func_uncompress@@QAE@PAVItem@@@Z 004c5f30 f i item_create.obj
 0001:000c4f90       ?fix_length_and_dec@Item_func_uncompress@@UAEXXZ 004c5f90 f i item_create.obj
 0001:000c4fc0       ?func_name@Item_func_uncompress@@UBEPBDXZ 004c5fc0 f i item_create.obj
 0001:000c4fe0       ??_EItem_func_uncompress@@UAEPAXI@Z 004c5fe0 f i item_create.obj
 0001:000c4fe0       ??_GItem_func_uncompress@@UAEPAXI@Z 004c5fe0 f i item_create.obj
 0001:000c5040       ??1Item_func_uncompress@@UAE@XZ 004c6040 f i item_create.obj
 0001:000c5080       ??0Item_func_uncompressed_length@@QAE@PAVItem@@@Z 004c6080 f i item_create.obj
 0001:000c50e0       ?func_name@Item_func_uncompressed_length@@UBEPBDXZ 004c60e0 f i item_create.obj
 0001:000c5100       ?fix_length_and_dec@Item_func_uncompressed_length@@UAEXXZ 004c6100 f i item_create.obj
 0001:000c5130       ??_EItem_func_uncompressed_length@@UAEPAXI@Z 004c6130 f i item_create.obj
 0001:000c5130       ??_GItem_func_uncompressed_length@@UAEPAXI@Z 004c6130 f i item_create.obj
 0001:000c5190       ??1Item_func_uncompressed_length@@UAE@XZ 004c6190 f i item_create.obj
 0001:000c51d0       ??0Item_func_minus@@QAE@PAVItem@@0@Z 004c61d0 f i item_create.obj
 0001:000c5220       ??0Item_func_additive_op@@QAE@PAVItem@@0@Z 004c6220 f i item_create.obj
 0001:000c5270       ??_EItem_func_additive_op@@UAEPAXI@Z 004c6270 f i item_create.obj
 0001:000c5270       ??_GItem_func_additive_op@@UAEPAXI@Z 004c6270 f i item_create.obj
 0001:000c52d0       ??1Item_func_additive_op@@UAE@XZ 004c62d0 f i item_create.obj
 0001:000c5300       ?func_name@Item_func_minus@@UBEPBDXZ 004c6300 f i item_create.obj
 0001:000c5320       ??_EItem_func_minus@@UAEPAXI@Z 004c6320 f i item_create.obj
 0001:000c5320       ??_GItem_func_minus@@UAEPAXI@Z 004c6320 f i item_create.obj
 0001:000c5380       ??1Item_func_minus@@UAE@XZ 004c6380 f i item_create.obj
 0001:000c53b0       ??0Item_func_week@@QAE@PAVItem@@0@Z 004c63b0 f i item_create.obj
 0001:000c5400       ?func_name@Item_func_week@@UBEPBDXZ 004c6400 f i item_create.obj
 0001:000c5420       ?fix_length_and_dec@Item_func_week@@UAEXXZ 004c6420 f i item_create.obj
 0001:000c5460       ??_EItem_func_week@@UAEPAXI@Z 004c6460 f i item_create.obj
 0001:000c5460       ??_GItem_func_week@@UAEPAXI@Z 004c6460 f i item_create.obj
 0001:000c54c0       ??1Item_func_week@@UAE@XZ  004c64c0 f i item_create.obj
 0001:000c54f0       ??0Item_func_makedate@@QAE@PAVItem@@0@Z 004c64f0 f i item_create.obj
 0001:000c5540       ??0Item_date_func@@QAE@PAVItem@@0@Z 004c6540 f i item_create.obj
 0001:000c5590       ?field_type@Item_date_func@@UBE?AW4enum_field_types@@XZ 004c6590 f i item_create.obj
 0001:000c55b0       ?tmp_table_field@Item_date_func@@UAEPAVField@@PAUst_table@@@Z 004c65b0 f i item_create.obj
 0001:000c5640       ?result_as_longlong@Item_date_func@@UAEHXZ 004c6640 f i item_create.obj
 0001:000c5660       ?val_real@Item_date_func@@UAENXZ 004c6660 f i item_create.obj
 0001:000c56c0       ?val_decimal@Item_date_func@@UAEPAVmy_decimal@@PAV2@@Z 004c66c0 f i item_create.obj
 0001:000c5720       ?save_in_field@Item_date_func@@UAEHPAVField@@H@Z 004c6720 f i item_create.obj
 0001:000c5760       ??_GItem_date_func@@UAEPAXI@Z 004c6760 f i item_create.obj
 0001:000c5760       ??_EItem_date_func@@UAEPAXI@Z 004c6760 f i item_create.obj
 0001:000c57c0       ??1Item_date_func@@UAE@XZ  004c67c0 f i item_create.obj
 0001:000c57f0       ?func_name@Item_func_makedate@@UBEPBDXZ 004c67f0 f i item_create.obj
 0001:000c5810       ?field_type@Item_func_makedate@@UBE?AW4enum_field_types@@XZ 004c6810 f i item_create.obj
 0001:000c5830       ?fix_length_and_dec@Item_func_makedate@@UAEXXZ 004c6830 f i item_create.obj
 0001:000c5860       ?tmp_table_field@Item_func_makedate@@UAEPAVField@@PAUst_table@@@Z 004c6860 f i item_create.obj
 0001:000c58f0       ?val_decimal@Item_func_makedate@@UAEPAVmy_decimal@@PAV2@@Z 004c68f0 f i item_create.obj
 0001:000c5950       ?save_in_field@Item_func_makedate@@UAEHPAVField@@H@Z 004c6950 f i item_create.obj
 0001:000c5990       ??_EItem_func_makedate@@UAEPAXI@Z 004c6990 f i item_create.obj
 0001:000c5990       ??_GItem_func_makedate@@UAEPAXI@Z 004c6990 f i item_create.obj
 0001:000c59f0       ??1Item_func_makedate@@UAE@XZ 004c69f0 f i item_create.obj
 0001:000c5a20       ??0Item_func_add_time@@QAE@PAVItem@@0HH@Z 004c6a20 f i item_create.obj
 0001:000c5aa0       ?field_type@Item_func_add_time@@UBE?AW4enum_field_types@@XZ 004c6aa0 f i item_create.obj
 0001:000c5ad0       ?tmp_table_field@Item_func_add_time@@UAEPAVField@@PAUst_table@@@Z 004c6ad0 f i item_create.obj
 0001:000c5c40       ?func_name@Item_func_add_time@@UBEPBDXZ 004c6c40 f i item_create.obj
 0001:000c5c60       ?val_real@Item_func_add_time@@UAENXZ 004c6c60 f i item_create.obj
 0001:000c5c90       ?val_decimal@Item_func_add_time@@UAEPAVmy_decimal@@PAV2@@Z 004c6c90 f i item_create.obj
 0001:000c5d40       ?save_in_field@Item_func_add_time@@UAEHPAVField@@H@Z 004c6d40 f i item_create.obj
 0001:000c5dc0       ??_GItem_func_add_time@@UAEPAXI@Z 004c6dc0 f i item_create.obj
 0001:000c5dc0       ??_EItem_func_add_time@@UAEPAXI@Z 004c6dc0 f i item_create.obj
 0001:000c5e20       ??1Item_func_add_time@@UAE@XZ 004c6e20 f i item_create.obj
 0001:000c5e50       ??0Item_func_timediff@@QAE@PAVItem@@0@Z 004c6e50 f i item_create.obj
 0001:000c5ea0       ??0Item_str_timefunc@@QAE@PAVItem@@0@Z 004c6ea0 f i item_create.obj
 0001:000c5ef0       ?func_name@Item_func_timediff@@UBEPBDXZ 004c6ef0 f i item_create.obj
 0001:000c5f10       ?fix_length_and_dec@Item_func_timediff@@UAEXXZ 004c6f10 f i item_create.obj
 0001:000c5f50       ??_EItem_func_timediff@@UAEPAXI@Z 004c6f50 f i item_create.obj
 0001:000c5f50       ??_GItem_func_timediff@@UAEPAXI@Z 004c6f50 f i item_create.obj
 0001:000c5fb0       ??1Item_func_timediff@@UAE@XZ 004c6fb0 f i item_create.obj
 0001:000c5fe0       ??0Item_func_maketime@@QAE@PAVItem@@00@Z 004c6fe0 f i item_create.obj
 0001:000c6030       ??0Item_str_timefunc@@QAE@PAVItem@@00@Z 004c7030 f i item_create.obj
 0001:000c6080       ?func_name@Item_func_maketime@@UBEPBDXZ 004c7080 f i item_create.obj
 0001:000c60a0       ??_GItem_func_maketime@@UAEPAXI@Z 004c70a0 f i item_create.obj
 0001:000c60a0       ??_EItem_func_maketime@@UAEPAXI@Z 004c70a0 f i item_create.obj
 0001:000c6100       ??1Item_func_maketime@@UAE@XZ 004c7100 f i item_create.obj
 0001:000c6130       ??0Item_func_str_to_date@@QAE@PAVItem@@0@Z 004c7130 f i item_create.obj
 0001:000c6180       ?func_name@Item_func_str_to_date@@UBEPBDXZ 004c7180 f i item_create.obj
 0001:000c61a0       ?field_type@Item_func_str_to_date@@UBE?AW4enum_field_types@@XZ 004c71a0 f i item_create.obj
 0001:000c61d0       ??_GItem_func_str_to_date@@UAEPAXI@Z 004c71d0 f i item_create.obj
 0001:000c61d0       ??_EItem_func_str_to_date@@UAEPAXI@Z 004c71d0 f i item_create.obj
 0001:000c6230       ??1Item_func_str_to_date@@UAE@XZ 004c7230 f i item_create.obj
 0001:000c6260       ??0Item_func_last_day@@QAE@PAVItem@@@Z 004c7260 f i item_create.obj
 0001:000c62b0       ?func_name@Item_func_last_day@@UBEPBDXZ 004c72b0 f i item_create.obj
 0001:000c62d0       ??_GItem_func_last_day@@UAEPAXI@Z 004c72d0 f i item_create.obj
 0001:000c62d0       ??_EItem_func_last_day@@UAEPAXI@Z 004c72d0 f i item_create.obj
 0001:000c6330       ??1Item_func_last_day@@UAE@XZ 004c7330 f i item_create.obj
 0001:000c6360       ?check_reserved_words@@YAHPAUst_lex_string@@@Z 004c7360 f   item_func.obj
 0001:000c6400       ?eval_const_cond@@YAHPAVItem@@@Z 004c7400 f   item_func.obj
 0001:000c6460       ?set_arguments@Item_func@@QAEXAAV?$List@VItem@@@@@Z 004c7460 f   item_func.obj
 0001:000c6570       ??0Item_func@@QAE@AAV?$List@VItem@@@@@Z 004c7570 f   item_func.obj
 0001:000c65c0       ??0Item_func@@QAE@PAVTHD@@PAV0@@Z 004c75c0 f   item_func.obj
 0001:000c66b0       ?fix_fields@Item_func@@UAEHPAVTHD@@PAPAVItem@@@Z 004c76b0 f   item_func.obj
 0001:000c69e0       ?walk@Item_func@@UAEHP8Item@@AEHPAE@Z0@Z 004c79e0 f   item_func.obj
 0001:000c6a90       ?traverse_cond@Item_func@@UAEXP6AXPBVItem@@PAX@Z1W4traverse_order@2@@Z 004c7a90 f   item_func.obj
 0001:000c6be0       ?transform@Item_func@@UAEPAVItem@@P82@AEPAV2@PAE@Z0@Z 004c7be0 f   item_func.obj
 0001:000c6cd0       ?compile@Item_func@@UAEPAVItem@@P82@AEHPAPAE@Z0P82@AEPAV2@PAE@Z2@Z 004c7cd0 f   item_func.obj
 0001:000c6e00       ?split_sum_func@Item_func@@UAEXPAVTHD@@PAPAVItem@@AAV?$List@VItem@@@@@Z 004c7e00 f   item_func.obj
 0001:000c6e80       ?update_used_tables@Item_func@@UAEXXZ 004c7e80 f   item_func.obj
 0001:000c6f80       ?used_tables@Item_func@@UBE_KXZ 004c7f80 f   item_func.obj
 0001:000c6fa0       ?not_null_tables@Item_func@@UBE_KXZ 004c7fa0 f   item_func.obj
 0001:000c6fc0       ?print@Item_func@@UAEXPAVString@@@Z 004c7fc0 f   item_func.obj
 0001:000c7030       ?print_args@Item_func@@QAEXPAVString@@I@Z 004c8030 f   item_func.obj
 0001:000c70c0       ?print_op@Item_func@@QAEXPAVString@@@Z 004c80c0 f   item_func.obj
 0001:000c71c0       ?eq@Item_func@@UBEHPBVItem@@H@Z 004c81c0 f   item_func.obj
 0001:000c7370       ?tmp_table_field@Item_func@@UAEPAVField@@PAUst_table@@@Z 004c8370 f   item_func.obj
 0001:000c75a0       ?is_expensive_processor@Item_func@@UAEHPAE@Z 004c85a0 f   item_func.obj
 0001:000c75e0       ?val_decimal@Item_func@@UAEPAVmy_decimal@@PAV2@@Z 004c85e0 f   item_func.obj
 0001:000c7650       ?val_str@Item_real_func@@UAEPAVString@@PAV2@@Z 004c8650 f   item_func.obj
 0001:000c76f0       ?val_decimal@Item_real_func@@UAEPAVmy_decimal@@PAV2@@Z 004c86f0 f   item_func.obj
 0001:000c7790       ?fix_num_length_and_dec@Item_func@@UAEXXZ 004c8790 f   item_func.obj
 0001:000c7880       ?fix_num_length_and_dec@Item_func_numhybrid@@UAEXXZ 004c8880 f   item_func.obj
 0001:000c78a0       ?count_decimal_length@Item_func@@QAEXXZ 004c88a0 f   item_func.obj
 0001:000c79f0       ?count_only_length@Item_func@@QAEXXZ 004c89f0 f   item_func.obj
 0001:000c7aa0       ?count_real_length@Item_func@@QAEXXZ 004c8aa0 f   item_func.obj
 0001:000c7c10       ?signal_divide_by_null@Item_func@@QAEXXZ 004c8c10 f   item_func.obj
 0001:000c7c80       ?get_tmp_table_item@Item_func@@UAEPAVItem@@PAVTHD@@@Z 004c8c80 f   item_func.obj
 0001:000c7d50       ?val_real@Item_int_func@@UAENXZ 004c8d50 f   item_func.obj
 0001:000c7e20       ?val_str@Item_int_func@@UAEPAVString@@PAV2@@Z 004c8e20 f   item_func.obj
 0001:000c7ee0       ?fix_length_and_dec@Item_func_connection_id@@UAEXXZ 004c8ee0 f   item_func.obj
 0001:000c7f10       ?fix_fields@Item_func_connection_id@@UAEHPAVTHD@@PAPAVItem@@@Z 004c8f10 f   item_func.obj
 0001:000c7f80       ?find_num_type@Item_num_op@@UAEXXZ 004c8f80 f   item_func.obj
 0001:000c8260       ?find_num_type@Item_func_num1@@UAEXXZ 004c9260 f   item_func.obj
 0001:000c84c0       ?fix_num_length_and_dec@Item_func_num1@@UAEXXZ 004c94c0 f   item_func.obj
 0001:000c8500       ?fix_length_and_dec@Item_func_numhybrid@@UAEXXZ 004c9500 f   item_func.obj
 0001:000c8550       ?val_str@Item_func_numhybrid@@UAEPAVString@@PAV2@@Z 004c9550 f   item_func.obj
 0001:000c8770       ?val_real@Item_func_numhybrid@@UAENXZ 004c9770 f   item_func.obj
 0001:000c8a20       ?val_int@Item_func_numhybrid@@UAE_JXZ 004c9a20 f   item_func.obj
 0001:000c8c60       ?val_decimal@Item_func_numhybrid@@UAEPAVmy_decimal@@PAV2@@Z 004c9c60 f   item_func.obj
 0001:000c8e00       ?print@Item_func_signed@@UAEXPAVString@@@Z 004c9e00 f   item_func.obj
 0001:000c8e70       ?val_int_from_str@Item_func_signed@@QAE_JPAH@Z 004c9e70 f   item_func.obj
 0001:000c90f0       ?val_int@Item_func_signed@@UAE_JXZ 004ca0f0 f   item_func.obj
 0001:000c9220       ?print@Item_func_unsigned@@UAEXPAVString@@@Z 004ca220 f   item_func.obj
 0001:000c9290       ?val_int@Item_func_unsigned@@UAE_JXZ 004ca290 f   item_func.obj
 0001:000c9460       ?val_str@Item_decimal_typecast@@UAEPAVString@@PAV2@@Z 004ca460 f   item_func.obj
 0001:000c9510       ?val_real@Item_decimal_typecast@@UAENXZ 004ca510 f   item_func.obj
 0001:000c95d0       ?val_int@Item_decimal_typecast@@UAE_JXZ 004ca5d0 f   item_func.obj
 0001:000c9690       ?val_decimal@Item_decimal_typecast@@UAEPAVmy_decimal@@PAV2@@Z 004ca690 f   item_func.obj
 0001:000c9820       ?print@Item_decimal_typecast@@UAEXPAVString@@@Z 004ca820 f   item_func.obj
 0001:000c9970       ?real_op@Item_func_plus@@UAENXZ 004ca970 f   item_func.obj
 0001:000c9a30       ?int_op@Item_func_plus@@UAE_JXZ 004caa30 f   item_func.obj
 0001:000c9b00       ?decimal_op@Item_func_plus@@UAEPAVmy_decimal@@PAV2@@Z 004cab00 f   item_func.obj
 0001:000c9c60       ?result_precision@Item_func_additive_op@@UAEXXZ 004cac60 f   item_func.obj
 0001:000c9e60       ?fix_length_and_dec@Item_func_minus@@UAEXXZ 004cae60 f   item_func.obj
 0001:000c9eb0       ?real_op@Item_func_minus@@UAENXZ 004caeb0 f   item_func.obj
 0001:000c9f70       ?int_op@Item_func_minus@@UAE_JXZ 004caf70 f   item_func.obj
 0001:000ca040       ?decimal_op@Item_func_minus@@UAEPAVmy_decimal@@PAV2@@Z 004cb040 f   item_func.obj
 0001:000ca1b0       ?real_op@Item_func_mul@@UAENXZ 004cb1b0 f   item_func.obj
 0001:000ca2a0       ?int_op@Item_func_mul@@UAE_JXZ 004cb2a0 f   item_func.obj
 0001:000ca390       ?decimal_op@Item_func_mul@@UAEPAVmy_decimal@@PAV2@@Z 004cb390 f   item_func.obj
 0001:000ca4f0       ?result_precision@Item_func_mul@@UAEXXZ 004cb4f0 f   item_func.obj
 0001:000ca690       ?real_op@Item_func_div@@UAENXZ 004cb690 f   item_func.obj
 0001:000ca7a0       ?decimal_op@Item_func_div@@UAEPAVmy_decimal@@PAV2@@Z 004cb7a0 f   item_func.obj
 0001:000ca910       ?result_precision@Item_func_div@@UAEXXZ 004cb910 f   item_func.obj
 0001:000caa70       ?fix_length_and_dec@Item_func_div@@UAEXXZ 004cba70 f   item_func.obj
 0001:000cacf0       ?val_int@Item_func_int_div@@UAE_JXZ 004cbcf0 f   item_func.obj
 0001:000cae40       ?fix_length_and_dec@Item_func_int_div@@UAEXXZ 004cbe40 f   item_func.obj
 0001:000caea0       ?int_op@Item_func_mod@@UAE_JXZ 004cbea0 f   item_func.obj
 0001:000cb060       ?real_op@Item_func_mod@@UAENXZ 004cc060 f   item_func.obj
 0001:000cb180       ?decimal_op@Item_func_mod@@UAEPAVmy_decimal@@PAV2@@Z 004cc180 f   item_func.obj
 0001:000cb300       ?result_precision@Item_func_mod@@UAEXXZ 004cc300 f   item_func.obj
 0001:000cb3b0       ?fix_length_and_dec@Item_func_mod@@UAEXXZ 004cc3b0 f   item_func.obj
 0001:000cb3f0       ?real_op@Item_func_neg@@UAENXZ 004cc3f0 f   item_func.obj
 0001:000cb460       ?int_op@Item_func_neg@@UAE_JXZ 004cc460 f   item_func.obj
 0001:000cb4d0       ?decimal_op@Item_func_neg@@UAEPAVmy_decimal@@PAV2@@Z 004cc4d0 f   item_func.obj
 0001:000cb5a0       ?fix_num_length_and_dec@Item_func_neg@@UAEXXZ 004cc5a0 f   item_func.obj
 0001:000cb5e0       ?fix_length_and_dec@Item_func_neg@@UAEXXZ 004cc5e0 f   item_func.obj
 0001:000cb7b0       ?real_op@Item_func_abs@@UAENXZ 004cc7b0 f   item_func.obj
 0001:000cb830       ?int_op@Item_func_abs@@UAE_JXZ 004cc830 f   item_func.obj
 0001:000cb8f0       ?decimal_op@Item_func_abs@@UAEPAVmy_decimal@@PAV2@@Z 004cc8f0 f   item_func.obj
 0001:000cb9c0       ?fix_length_and_dec@Item_func_abs@@UAEXXZ 004cc9c0 f   item_func.obj
 0001:000cba00       ?val_real@Item_func_ln@@UAENXZ 004cca00 f   item_func.obj
 0001:000cbad0       ?val_real@Item_func_log@@UAENXZ 004ccad0 f   item_func.obj
 0001:000cbc60       ?val_real@Item_func_log2@@UAENXZ 004ccc60 f   item_func.obj
 0001:000cbd30       ?val_real@Item_func_log10@@UAENXZ 004ccd30 f   item_func.obj
 0001:000cbe00       ?val_real@Item_func_exp@@UAENXZ 004cce00 f   item_func.obj
 0001:000cbeb0       ?val_real@Item_func_sqrt@@UAENXZ 004cceb0 f   item_func.obj
 0001:000cbf80       ?val_real@Item_func_pow@@UAENXZ 004ccf80 f   item_func.obj
 0001:000cc080       ?val_real@Item_func_acos@@UAENXZ 004cd080 f   item_func.obj
 0001:000cc160       ?val_real@Item_func_asin@@UAENXZ 004cd160 f   item_func.obj
 0001:000cc240       ?val_real@Item_func_atan@@UAENXZ 004cd240 f   item_func.obj
 0001:000cc370       ?val_real@Item_func_cos@@UAENXZ 004cd370 f   item_func.obj
 0001:000cc420       ?val_real@Item_func_sin@@UAENXZ 004cd420 f   item_func.obj
 0001:000cc4d0       ?val_real@Item_func_tan@@UAENXZ 004cd4d0 f   item_func.obj
 0001:000cc580       ?val_int@Item_func_shift_left@@UAE_JXZ 004cd580 f   item_func.obj
 0001:000cc680       ?val_int@Item_func_shift_right@@UAE_JXZ 004cd680 f   item_func.obj
 0001:000cc780       ?val_int@Item_func_bit_neg@@UAE_JXZ 004cd780 f   item_func.obj
 0001:000cc830       ?fix_length_and_dec@Item_func_integer@@UAEXXZ 004cd830 f   item_func.obj
 0001:000cc8b0       ?fix_num_length_and_dec@Item_func_int_val@@UAEXXZ 004cd8b0 f   item_func.obj
 0001:000cc950       ?find_num_type@Item_func_int_val@@UAEXXZ 004cd950 f   item_func.obj
 0001:000ccbe0       ?int_op@Item_func_ceiling@@UAE_JXZ 004cdbe0 f   item_func.obj
 0001:000ccd20       ?real_op@Item_func_ceiling@@UAENXZ 004cdd20 f   item_func.obj
 0001:000ccda0       ?decimal_op@Item_func_ceiling@@UAEPAVmy_decimal@@PAV2@@Z 004cdda0 f   item_func.obj
 0001:000cce70       ?int_op@Item_func_floor@@UAE_JXZ 004cde70 f   item_func.obj
 0001:000ccfb0       ?real_op@Item_func_floor@@UAENXZ 004cdfb0 f   item_func.obj
 0001:000cd030       ?decimal_op@Item_func_floor@@UAEPAVmy_decimal@@PAV2@@Z 004ce030 f   item_func.obj
 0001:000cd100       ?fix_length_and_dec@Item_func_round@@UAEXXZ 004ce100 f   item_func.obj
 0001:000cd4a0       ?my_double_round@@YANN_JHH@Z 004ce4a0 f   item_func.obj
 0001:000cd730       ?real_op@Item_func_round@@UAENXZ 004ce730 f   item_func.obj
 0001:000cd810       ?int_op@Item_func_round@@UAE_JXZ 004ce810 f   item_func.obj
 0001:000cdb00       ?decimal_op@Item_func_round@@UAEPAVmy_decimal@@PAV2@@Z 004ceb00 f   item_func.obj
 0001:000cdca0       ?fix_fields@Item_func_rand@@UAEHPAVTHD@@PAPAVItem@@@Z 004ceca0 f   item_func.obj
 0001:000cde50       ?update_used_tables@Item_func_rand@@UAEXXZ 004cee50 f   item_func.obj
 0001:000cde90       ?val_real@Item_func_rand@@UAENXZ 004cee90 f   item_func.obj
 0001:000cdef0       ?val_int@Item_func_sign@@UAE_JXZ 004ceef0 f   item_func.obj
 0001:000cdfc0       ?val_real@Item_func_units@@UAENXZ 004cefc0 f   item_func.obj
 0001:000ce070       ?fix_length_and_dec@Item_func_min_max@@UAEXXZ 004cf070 f   item_func.obj
 0001:000ce330       ?cmp_datetimes@Item_func_min_max@@QAEIPA_K@Z 004cf330 f   item_func.obj
 0001:000ce4e0       ?val_str@Item_func_min_max@@UAEPAVString@@PAV2@@Z 004cf4e0 f   item_func.obj
 0001:000ce860       ?val_real@Item_func_min_max@@UAENXZ 004cf860 f   item_func.obj
 0001:000cea30       ?val_int@Item_func_min_max@@UAE_JXZ 004cfa30 f   item_func.obj
 0001:000cebf0       ?val_decimal@Item_func_min_max@@UAEPAVmy_decimal@@PAV2@@Z 004cfbf0 f   item_func.obj
 0001:000cede0       ?val_int@Item_func_length@@UAE_JXZ 004cfde0 f   item_func.obj
 0001:000cee80       ?val_int@Item_func_char_length@@UAE_JXZ 004cfe80 f   item_func.obj
 0001:000cef20       ?val_int@Item_func_coercibility@@UAE_JXZ 004cff20 f   item_func.obj
 0001:000cef80       ?fix_length_and_dec@Item_func_locate@@UAEXXZ 004cff80 f   item_func.obj
 0001:000cefd0       ?val_int@Item_func_locate@@UAE_JXZ 004cffd0 f   item_func.obj
 0001:000cf250       ?print@Item_func_locate@@UAEXPAVString@@@Z 004d0250 f   item_func.obj
 0001:000cf320       ?val_int@Item_func_field@@UAE_JXZ 004d0320 f   item_func.obj
 0001:000cf740       ?fix_length_and_dec@Item_func_field@@UAEXXZ 004d0740 f   item_func.obj
 0001:000cf840       ?val_int@Item_func_ascii@@UAE_JXZ 004d0840 f   item_func.obj
 0001:000cf900       ?val_int@Item_func_ord@@UAE_JXZ 004d0900 f   item_func.obj
 0001:000cfa60       ?fix_length_and_dec@Item_func_find_in_set@@UAEXXZ 004d0a60 f   item_func.obj
 0001:000cfbf0       ?val_int@Item_func_find_in_set@@UAE_JXZ 004d0bf0 f   item_func.obj
 0001:000cff00       ?val_int@Item_func_bit_count@@UAE_JXZ 004d0f00 f   item_func.obj
 0001:000cffb0       ?cleanup@udf_handler@@QAEXXZ 004d0fb0 f   item_func.obj
 0001:000d0080       ?fix_fields@udf_handler@@QAEHPAVTHD@@PAVItem_result_field@@IPAPAVItem@@@Z 004d1080 f   item_func.obj
 0001:000d0b30       ?get_arguments@udf_handler@@QAEHXZ 004d1b30 f   item_func.obj
 0001:000d0d50       ?val_str@udf_handler@@QAEPAVString@@PAV2@0@Z 004d1d50 f   item_func.obj
 0001:000d1080       ?val_decimal@udf_handler@@QAEPAVmy_decimal@@PADPAV2@@Z 004d2080 f   item_func.obj
 0001:000d11d0       ?cleanup@Item_udf_func@@UAEXXZ 004d21d0 f   item_func.obj
 0001:000d1210       ?print@Item_udf_func@@UAEXPAVString@@@Z 004d2210 f   item_func.obj
 0001:000d12c0       ?val_real@Item_func_udf_float@@UAENXZ 004d22c0 f   item_func.obj
 0001:000d1430       ?val_str@Item_func_udf_float@@UAEPAVString@@PAV2@@Z 004d2430 f   item_func.obj
 0001:000d14d0       ?val_int@Item_func_udf_int@@UAE_JXZ 004d24d0 f   item_func.obj
 0001:000d15f0       ?val_str@Item_func_udf_int@@UAEPAVString@@PAV2@@Z 004d25f0 f   item_func.obj
 0001:000d16b0       ?val_int@Item_func_udf_decimal@@UAE_JXZ 004d26b0 f   item_func.obj
 0001:000d1770       ?val_real@Item_func_udf_decimal@@UAENXZ 004d2770 f   item_func.obj
 0001:000d1830       ?val_decimal@Item_func_udf_decimal@@UAEPAVmy_decimal@@PAV2@@Z 004d2830 f   item_func.obj
 0001:000d19a0       ?val_str@Item_func_udf_decimal@@UAEPAVString@@PAV2@@Z 004d29a0 f   item_func.obj
 0001:000d1a80       ?fix_length_and_dec@Item_func_udf_decimal@@UAEXXZ 004d2a80 f   item_func.obj
 0001:000d1ac0       ?fix_length_and_dec@Item_func_udf_str@@UAEXXZ 004d2ac0 f   item_func.obj
 0001:000d1c00       ?val_str@Item_func_udf_str@@UAEPAVString@@PAV2@@Z 004d2c00 f   item_func.obj
 0001:000d1c80       ??1udf_handler@@QAE@XZ     004d2c80 f   item_func.obj
 0001:000d1ce0       ?ull_get_key@@YAPADPBVUser_level_lock@@PAID@Z 004d2ce0 f   item_func.obj
 0001:000d1d00       ?item_user_lock_init@@YAXXZ 004d2d00 f   item_func.obj
 0001:000d1d60       ?item_user_lock_free@@YAXXZ 004d2d60 f   item_func.obj
 0001:000d1db0       ?item_user_lock_release@@YAXPAVUser_level_lock@@@Z 004d2db0 f   item_func.obj
 0001:000d1e40       ?val_int@Item_master_pos_wait@@UAE_JXZ 004d2e40 f   item_func.obj
 0001:000d1fc0       ?val_int@Item_func_get_lock@@UAE_JXZ 004d2fc0 f   item_func.obj
 0001:000d2750       ?val_int@Item_func_release_lock@@UAE_JXZ 004d3750 f   item_func.obj
 0001:000d2a30       ?fix_fields@Item_func_last_insert_id@@UAEHPAVTHD@@PAPAVItem@@@Z 004d3a30 f   item_func.obj
 0001:000d2af0       ?val_int@Item_func_last_insert_id@@UAE_JXZ 004d3af0 f   item_func.obj
 0001:000d2bb0       ?val_int@Item_func_benchmark@@UAE_JXZ 004d3bb0 f   item_func.obj
 0001:000d2e50       ?print@Item_func_benchmark@@UAEXPAVString@@@Z 004d3e50 f   item_func.obj
 0001:000d2f60       ?val_int@Item_func_sleep@@UAE_JXZ 004d3f60 f   item_func.obj
 0001:000d3180       ?fix_fields@Item_func_set_user_var@@UAEHPAVTHD@@PAPAVItem@@@Z 004d4180 f   item_func.obj
 0001:000d3450       ?fix_length_and_dec@Item_func_set_user_var@@UAEXXZ 004d4450 f   item_func.obj
 0001:000d34c0       ?update_hash@Item_func_set_user_var@@QAEHPAXIW4Item_result@@PAUcharset_info_st@@W4Derivation@@H@Z 004d44c0 f   item_func.obj
 0001:000d3730       ?val_real@user_var_entry@@QAENPAD@Z 004d4730 f   item_func.obj
 0001:000d3820       ?val_int@user_var_entry@@QAE_JPAD@Z 004d4820 f   item_func.obj
 0001:000d3940       ?val_str@user_var_entry@@QAEPAVString@@PADPAV2@I@Z 004d4940 f   item_func.obj
 0001:000d3a70       ?val_decimal@user_var_entry@@QAEPAVmy_decimal@@PADPAV2@@Z 004d4a70 f   item_func.obj
 0001:000d3b60       ?check@Item_func_set_user_var@@QAEHH@Z 004d4b60 f   item_func.obj
 0001:000d3e60       ?update@Item_func_set_user_var@@QAEHXZ 004d4e60 f   item_func.obj
 0001:000d40a0       ?val_real@Item_func_set_user_var@@UAENXZ 004d50a0 f   item_func.obj
 0001:000d4110       ?val_int@Item_func_set_user_var@@UAE_JXZ 004d5110 f   item_func.obj
 0001:000d4180       ?val_str@Item_func_set_user_var@@UAEPAVString@@PAV2@@Z 004d5180 f   item_func.obj
 0001:000d4200       ?val_decimal@Item_func_set_user_var@@UAEPAVmy_decimal@@PAV2@@Z 004d5200 f   item_func.obj
 0001:000d4270       ?val_result@Item_func_set_user_var@@UAENXZ 004d5270 f   item_func.obj
 0001:000d42e0       ?val_int_result@Item_func_set_user_var@@UAE_JXZ 004d52e0 f   item_func.obj
 0001:000d4350       ?str_result@Item_func_set_user_var@@UAEPAVString@@PAV2@@Z 004d5350 f   item_func.obj
 0001:000d43d0       ?val_decimal_result@Item_func_set_user_var@@UAEPAVmy_decimal@@PAV2@@Z 004d53d0 f   item_func.obj
 0001:000d4440       ?print@Item_func_set_user_var@@UAEXPAVString@@@Z 004d5440 f   item_func.obj
 0001:000d44d0       ?print_as_stmt@Item_func_set_user_var@@QAEXPAVString@@@Z 004d54d0 f   item_func.obj
 0001:000d4560       ?send@Item_func_set_user_var@@UAEHPAVProtocol@@PAVString@@@Z 004d5560 f   item_func.obj
 0001:000d45d0       ?make_field@Item_func_set_user_var@@UAEXPAVSend_field@@@Z 004d55d0 f   item_func.obj
 0001:000d4660       ?save_in_field@Item_func_set_user_var@@QAEHPAVField@@HH@Z 004d5660 f   item_func.obj
 0001:000d4a00       ?val_str@Item_func_get_user_var@@UAEPAVString@@PAV2@@Z 004d5a00 f   item_func.obj
 0001:000d4b50       ?val_real@Item_func_get_user_var@@UAENXZ 004d5b50 f   item_func.obj
 0001:000d4bc0       ?val_decimal@Item_func_get_user_var@@UAEPAVmy_decimal@@PAV2@@Z 004d5bc0 f   item_func.obj
 0001:000d4c30       ?val_int@Item_func_get_user_var@@UAE_JXZ 004d5c30 f   item_func.obj
 0001:000d4ca0       ?get_var_with_binlog@@YAHPAVTHD@@W4enum_sql_command@@AAUst_lex_string@@PAPAVuser_var_entry@@@Z 004d5ca0 f   item_func.obj
 0001:000d50a0       ?fix_length_and_dec@Item_func_get_user_var@@UAEXXZ 004d60a0 f   item_func.obj
 0001:000d5200       ?const_item@Item_func_get_user_var@@UBEHXZ 004d6200 f   item_func.obj
 0001:000d5280       ?result_type@Item_func_get_user_var@@UBE?AW4Item_result@@XZ 004d6280 f   item_func.obj
 0001:000d52e0       ?print@Item_func_get_user_var@@UAEXPAVString@@@Z 004d62e0 f   item_func.obj
 0001:000d5340       ?eq@Item_func_get_user_var@@UBEHPBVItem@@H@Z 004d6340 f   item_func.obj
 0001:000d5430       ?set_value@Item_func_get_user_var@@EAEHPAVTHD@@PAVsp_rcontext@@PAPAVItem@@@Z 004d6430 f   item_func.obj
 0001:000d5510       ?fix_fields@Item_user_var_as_out_param@@UAEHPAVTHD@@PAPAVItem@@@Z 004d6510 f   item_func.obj
 0001:000d55e0       ?set_null_value@Item_user_var_as_out_param@@QAEXPAUcharset_info_st@@@Z 004d65e0 f   item_func.obj
 0001:000d5630       ?set_value@Item_user_var_as_out_param@@QAEXPBDIPAUcharset_info_st@@@Z 004d6630 f   item_func.obj
 0001:000d5690       ?val_real@Item_user_var_as_out_param@@UAENXZ 004d6690 f   item_func.obj
 0001:000d56d0       ?val_int@Item_user_var_as_out_param@@UAE_JXZ 004d66d0 f   item_func.obj
 0001:000d5710       ?val_str@Item_user_var_as_out_param@@UAEPAVString@@PAV2@@Z 004d6710 f   item_func.obj
 0001:000d5750       ?val_decimal@Item_user_var_as_out_param@@UAEPAVmy_decimal@@PAV2@@Z 004d6750 f   item_func.obj
 0001:000d5790       ?print@Item_user_var_as_out_param@@UAEXPAVString@@@Z 004d6790 f   item_func.obj
 0001:000d57d0       ??0Item_func_get_system_var@@QAE@PAVsys_var@@W4enum_var_type@@PAUst_lex_string@@PBDI@Z 004d67d0 f   item_func.obj
 0001:000d5850       ?fix_fields@Item_func_get_system_var@@UAEHPAVTHD@@PAPAVItem@@@Z 004d6850 f   item_func.obj
 0001:000d59b0       ?val_int@Item_func_inet_aton@@UAE_JXZ 004d69b0 f   item_func.obj
 0001:000d5c00       ?init_search@Item_func_match@@QAEXH@Z 004d6c00 f   item_func.obj
 0001:000d6030       ?fix_fields@Item_func_match@@UAEHPAVTHD@@PAPAVItem@@@Z 004d7030 f   item_func.obj
 0001:000d62b0       ?fix_index@Item_func_match@@QAEHXZ 004d72b0 f   item_func.obj
 0001:000d6710       ?eq@Item_func_match@@UBEHPBVItem@@H@Z 004d7710 f   item_func.obj
 0001:000d6820       ?val_real@Item_func_match@@UAENXZ 004d7820 f   item_func.obj
 0001:000d6b00       ?print@Item_func_match@@UAEXPAVString@@@Z 004d7b00 f   item_func.obj
 0001:000d6bc0       ?val_int@Item_func_bit_xor@@UAE_JXZ 004d7bc0 f   item_func.obj
 0001:000d6cb0       ?get_system_var@@YAPAVItem@@PAVTHD@@W4enum_var_type@@Ust_lex_string@@2@Z 004d7cb0 f   item_func.obj
 0001:000d6dc0       ?val_int@Item_func_is_free_lock@@UAE_JXZ 004d7dc0 f   item_func.obj
 0001:000d6ed0       ?val_int@Item_func_is_used_lock@@UAE_JXZ 004d7ed0 f   item_func.obj
 0001:000d6fe0       ?val_int@Item_func_row_count@@UAE_JXZ 004d7fe0 f   item_func.obj
 0001:000d7040       ??0Item_func_sp@@QAE@PAUName_resolution_context@@PAVsp_name@@@Z 004d8040 f   item_func.obj
 0001:000d70e0       ??0Item_func_sp@@QAE@PAUName_resolution_context@@PAVsp_name@@AAV?$List@VItem@@@@@Z 004d80e0 f   item_func.obj
 0001:000d7180       ?cleanup@Item_func_sp@@UAEXXZ 004d8180 f   item_func.obj
 0001:000d7220       ?func_name@Item_func_sp@@UBEPBDXZ 004d8220 f   item_func.obj
 0001:000d7380       ?init_result_field@Item_func_sp@@AAEHPAVTHD@@@Z 004d8380 f   item_func.obj
 0001:000d76e0       ?fix_length_and_dec@Item_func_sp@@UAEXXZ 004d86e0 f   item_func.obj
 0001:000d7880       ?execute@Item_func_sp@@AAEHXZ 004d8880 f   item_func.obj
 0001:000d7910       ?execute_impl@Item_func_sp@@AAEHPAVTHD@@@Z 004d8910 f   item_func.obj
 0001:000d7ac0       ?make_field@Item_func_sp@@UAEXPAVSend_field@@@Z 004d8ac0 f   item_func.obj
 0001:000d7bf0       ?field_type@Item_func_sp@@UBE?AW4enum_field_types@@XZ 004d8bf0 f   item_func.obj
 0001:000d7d20       ?result_type@Item_func_sp@@UBE?AW4Item_result@@XZ 004d8d20 f   item_func.obj
 0001:000d7e80       ?val_int@Item_func_found_rows@@UAE_JXZ 004d8e80 f   item_func.obj
 0001:000d7ed0       ?tmp_table_field@Item_func_sp@@UAEPAVField@@PAUst_table@@@Z 004d8ed0 f   item_func.obj
 0001:000d7fe0       ?sp_check_access@Item_func_sp@@QAEHPAVTHD@@@Z 004d8fe0 f   item_func.obj
 0001:000d8140       ?fix_fields@Item_func_sp@@UAEHPAVTHD@@PAPAVItem@@@Z 004d9140 f   item_func.obj
 0001:000d8360       ?update_used_tables@Item_func_sp@@UAEXXZ 004d9360 f   item_func.obj
 0001:000dcbe0       ??0Item_result_field@@QAE@PAVTHD@@PAV0@@Z 004ddbe0 f i item_func.obj
 0001:000dcc40       ??0Field_long@@QAE@KHPBDPAUst_table@@H@Z 004ddc40 f i item_func.obj
 0001:000dccb0       ??0Field_longlong@@QAE@KHPBDPAUst_table@@H@Z 004ddcb0 f i item_func.obj
 0001:000dcd20       ??0Field_double@@QAE@KHPBDPAUst_table@@E@Z 004ddd20 f i item_func.obj
 0001:000dcd90       ?my_decimal_intg@@YAHPBVmy_decimal@@@Z 004ddd90 f i item_func.obj
 0001:000dcdb0       ?my_decimal_sub@@YAHIPAVmy_decimal@@PBV1@1@Z 004dddb0 f i item_func.obj
 0001:000dcdf0       ?my_decimal_mul@@YAHIPAVmy_decimal@@PBV1@1@Z 004dddf0 f i item_func.obj
 0001:000dce30       ?my_decimal_mod@@YAHIPAVmy_decimal@@PBV1@1@Z 004dde30 f i item_func.obj
 0001:000dce70       ?fix_result@Item_dec_func@@QAENN@Z 004dde70 f i item_func.obj
 0001:000dcee0       ?my_decimal_ceiling@@YAHIPBVmy_decimal@@PAV1@@Z 004ddee0 f i item_func.obj
 0001:000dcf20       ?my_decimal_floor@@YAHIPBVmy_decimal@@PAV1@@Z 004ddf20 f i item_func.obj
 0001:000dcf60       ??AString@@QBEAADK@Z       004ddf60 f i item_func.obj
 0001:000dcf90       ??_EString@@QAEPAXI@Z      004ddf90 f i item_func.obj
 0001:000dd030       ??3String@@SAXPAXI@Z       004de030 f i item_func.obj
 0001:000dd060       ?val@udf_handler@@QAENPAD@Z 004de060 f i item_func.obj
 0001:000dd140       ?val_int@udf_handler@@QAE_JPAD@Z 004de140 f i item_func.obj
 0001:000dd230       ??_GUser_level_lock@@QAEPAXI@Z 004de230 f i item_func.obj
 0001:000dd280       ??1User_level_lock@@QAE@XZ 004de280 f i item_func.obj
 0001:000dd300       ??0User_level_lock@@QAE@PBDIK@Z 004de300 f i item_func.obj
 0001:000dd3f0       ?initialized@User_level_lock@@QAEHXZ 004de3f0 f i item_func.obj
 0001:000dd420       ?fatal_error@THD@@QAEXXZ   004de420 f i item_func.obj
 0001:000dd4a0       ??0Item_func_set_user_var@@QAE@Ust_lex_string@@PAVItem@@@Z 004de4a0 f i item_func.obj
 0001:000dd540       ?functype@Item_func_set_user_var@@UBE?AW4Functype@Item_func@@XZ 004de540 f i item_func.obj
 0001:000dd560       ?result_type@Item_func_set_user_var@@UBE?AW4Item_result@@XZ 004de560 f i item_func.obj
 0001:000dd590       ?func_name@Item_func_set_user_var@@UBEPBDXZ 004de590 f i item_func.obj
 0001:000dd5b0       ?save_in_field@Item_func_set_user_var@@UAEHPAVField@@H@Z 004de5b0 f i item_func.obj
 0001:000dd5f0       ?save_org_in_field@Item_func_set_user_var@@UAEXPAVField@@@Z 004de5f0 f i item_func.obj
 0001:000dd630       ??_GItem_func_set_user_var@@UAEPAXI@Z 004de630 f i item_func.obj
 0001:000dd630       ??_EItem_func_set_user_var@@UAEPAXI@Z 004de630 f i item_func.obj
 0001:000dd690       ??1Item_func_set_user_var@@UAE@XZ 004de690 f i item_func.obj
 0001:000dd6d0       ??0set_var_user@@QAE@PAVItem_func_set_user_var@@@Z 004de6d0 f i item_func.obj
 0001:000dd720       ??0set_var_base@@QAE@XZ    004de720 f i item_func.obj
 0001:000dd760       ?light_check@set_var_base@@UAEHPAVTHD@@@Z 004de760 f i item_func.obj
 0001:000dd7b0       ?no_support_one_shot@set_var_base@@UAEHXZ 004de7b0 f i item_func.obj
 0001:000dd7d0       ??_Eset_var_base@@UAEPAXI@Z 004de7d0 f i item_func.obj
 0001:000dd7d0       ??_Gset_var_base@@UAEPAXI@Z 004de7d0 f i item_func.obj
 0001:000dd820       ??1set_var_base@@UAE@XZ    004de820 f i item_func.obj
 0001:000dd890       ??_Eset_var_user@@UAEPAXI@Z 004de890 f i item_func.obj
 0001:000dd890       ??_Gset_var_user@@UAEPAXI@Z 004de890 f i item_func.obj
 0001:000dd8e0       ??1set_var_user@@UAE@XZ    004de8e0 f i item_func.obj
 0001:000dd910       ??1st_lex@@UAE@XZ          004de910 f i item_func.obj
 0001:000ddab0       ??1?$List@VString@@@@QAE@XZ 004deab0 f i item_func.obj
 0001:000ddae0       ??1?$List@Vkey_part_spec@@@@QAE@XZ 004deae0 f i item_func.obj
 0001:000ddb10       ??1?$List@V?$List@VItem@@@@@@QAE@XZ 004deb10 f i item_func.obj
 0001:000ddb40       ??1st_select_lex@@UAE@XZ   004deb40 f i item_func.obj
 0001:000ddc30       ??1st_select_lex_node@@UAE@XZ 004dec30 f i item_func.obj
 0001:000ddc60       ?set_lock_for_tables@st_select_lex_node@@UAEXW4thr_lock_type@@@Z 004dec60 f i item_func.obj
 0001:000ddc80       ??_Est_select_lex_node@@UAEPAXI@Z 004dec80 f i item_func.obj
 0001:000ddc80       ??_Gst_select_lex_node@@UAEPAXI@Z 004dec80 f i item_func.obj
 0001:000ddcd0       ??3st_select_lex_node@@SAXPAXI@Z 004decd0 f i item_func.obj
 0001:000ddd00       ??1Name_resolution_context@@QAE@XZ 004ded00 f i item_func.obj
 0001:000ddd30       ??1?$List@VItem_func_match@@@@QAE@XZ 004ded30 f i item_func.obj
 0001:000ddd60       ??1?$List@UTABLE_LIST@@@@QAE@XZ 004ded60 f i item_func.obj
 0001:000ddd90       ??1?$List@VItem_outer_ref@@@@QAE@XZ 004ded90 f i item_func.obj
 0001:000dddc0       ??1?$List@Ust_udf_func@@@@QAE@XZ 004dedc0 f i item_func.obj
 0001:000dddf0       ??1Query_tables_list@@QAE@XZ 004dedf0 f i item_func.obj
 0001:000dde10       ??_Est_lex@@UAEPAXI@Z      004dee10 f i item_func.obj
 0001:000dde10       ??_Gst_lex@@UAEPAXI@Z      004dee10 f i item_func.obj
 0001:000dde60       ??1st_select_lex_unit@@UAE@XZ 004dee60 f i item_func.obj
 0001:000ddeb0       ??1?$List@Ust_lex_user@@@@QAE@XZ 004deeb0 f i item_func.obj
 0001:000ddee0       ??1?$List@VLEX_COLUMN@@@@QAE@XZ 004deee0 f i item_func.obj
 0001:000ddf10       ??1?$List@Vset_var_base@@@@QAE@XZ 004def10 f i item_func.obj
 0001:000ddf40       ??1?$List@VItem_param@@@@QAE@XZ 004def40 f i item_func.obj
 0001:000ddf70       ??1?$List@UName_resolution_context@@@@QAE@XZ 004def70 f i item_func.obj
 0001:000ddfa0       ??1Alter_info@@QAE@XZ      004defa0 f i item_func.obj
 0001:000de000       ??1?$List@VAlter_drop@@@@QAE@XZ 004df000 f i item_func.obj
 0001:000de030       ??1?$List@VAlter_column@@@@QAE@XZ 004df030 f i item_func.obj
 0001:000de060       ??1?$List@VKey@@@@QAE@XZ   004df060 f i item_func.obj
 0001:000de090       ??1?$List@Vcreate_field@@@@QAE@XZ 004df090 f i item_func.obj
 0001:000de0c0       ?get_name@Item_func_get_user_var@@QAE?AUst_lex_string@@XZ 004df0c0 f i item_func.obj
 0001:000de100       ?val_real@Item_func_get_system_var@@UAENXZ 004df100 f i item_func.obj
 0001:000de150       ?val_int@Item_func_get_system_var@@UAE_JXZ 004df150 f i item_func.obj
 0001:000de1a0       ?val_str@Item_func_get_system_var@@UAEPAVString@@PAV2@@Z 004df1a0 f i item_func.obj
 0001:000de1f0       ?fix_length_and_dec@Item_func_get_system_var@@UAEXXZ 004df1f0 f i item_func.obj
 0001:000de240       ?func_name@Item_func_get_system_var@@UBEPBDXZ 004df240 f i item_func.obj
 0001:000de260       ??_GItem_func_get_system_var@@UAEPAXI@Z 004df260 f i item_func.obj
 0001:000de260       ??_EItem_func_get_system_var@@UAEPAXI@Z 004df260 f i item_func.obj
 0001:000de2c0       ??1Item_func_get_system_var@@UAE@XZ 004df2c0 f i item_func.obj
 0001:000de2f0       ??0Item_func_concat_ws@@QAE@AAV?$List@VItem@@@@@Z 004df2f0 f i item_func.obj
 0001:000de350       ??0Item_str_func@@QAE@AAV?$List@VItem@@@@@Z 004df350 f i item_func.obj
 0001:000de3a0       ?func_name@Item_func_concat_ws@@UBEPBDXZ 004df3a0 f i item_func.obj
 0001:000de3c0       ?not_null_tables@Item_func_concat_ws@@UBE_KXZ 004df3c0 f i item_func.obj
 0001:000de3e0       ??_GItem_func_concat_ws@@UAEPAXI@Z 004df3e0 f i item_func.obj
 0001:000de3e0       ??_EItem_func_concat_ws@@UAEPAXI@Z 004df3e0 f i item_func.obj
 0001:000de440       ??1Item_func_concat_ws@@UAE@XZ 004df440 f i item_func.obj
 0001:000de480       ?agg_arg_collations_for_comparison@Item_func@@QAEHAAVDTCollation@@PAPAVItem@@II@Z 004df480 f i item_func.obj
 0001:000de4f0       ?is_set@?$Bitmap@$0EA@@@QBEDI@Z 004df4f0 f i item_func.obj
 0001:000de570       ?val_int@Item_func_sp@@UAE_JXZ 004df570 f i item_func.obj
 0001:000de5e0       ?val_real@Item_func_sp@@UAENXZ 004df5e0 f i item_func.obj
 0001:000de650       ?val_decimal@Item_func_sp@@UAEPAVmy_decimal@@PAV2@@Z 004df650 f i item_func.obj
 0001:000de6c0       ?val_str@Item_func_sp@@UAEPAVString@@PAV2@@Z 004df6c0 f i item_func.obj
 0001:000de7f0       ?change_context_processor@Item_func_sp@@UAEHPAE@Z 004df7f0 f i item_func.obj
 0001:000de820       ?functype@Item_func_sp@@UBE?AW4Functype@Item_func@@XZ 004df820 f i item_func.obj
 0001:000de840       ?is_expensive@Item_func_sp@@UAEHXZ 004df840 f i item_func.obj
 0001:000de860       ??_EItem_func_sp@@UAEPAXI@Z 004df860 f i item_func.obj
 0001:000de860       ??_GItem_func_sp@@UAEPAXI@Z 004df860 f i item_func.obj
 0001:000de8c0       ??1Item_func_sp@@UAE@XZ    004df8c0 f i item_func.obj
 0001:000de900       ?move_field@Field@@QAEXPAD@Z 004df900 f i item_func.obj
 0001:000de930       ?send_kill_message@THD@@QBEXXZ 004df930 f i item_func.obj
 0001:000de9a0       ?killed_errno@THD@@QBEHXZ  004df9a0 f i item_func.obj
 0001:000de9f0       ?found_rows@THD@@QAE_KXZ   004df9f0 f i item_func.obj
 0001:000dea20       ??0?$List@Vset_var_base@@@@QAE@XZ 004dfa20 f i item_func.obj
 0001:000dea50       ?push_back@?$List@Vset_var_base@@@@QAEHPAVset_var_base@@@Z 004dfa50 f i item_func.obj
 0001:000dea90       ?tmp_table_field@Item_geometry_func@@UAEPAVField@@PAUst_table@@@Z 004dfa90 f   item_geofunc.obj
 0001:000deb20       ?fix_length_and_dec@Item_geometry_func@@UAEXXZ 004dfb20 f   item_geofunc.obj
 0001:000deb70       ?get_geometry_type@Item_geometry_func@@UBEHXZ 004dfb70 f   item_geofunc.obj
 0001:000deb90       ?val_str@Item_func_geometry_from_text@@UAEPAVString@@PAV2@@Z 004dfb90 f   item_geofunc.obj
 0001:000dedb0       ?val_str@Item_func_geometry_from_wkb@@UAEPAVString@@PAV2@@Z 004dfdb0 f   item_geofunc.obj
 0001:000def80       ?val_str@Item_func_as_wkt@@UAEPAVString@@PAV2@@Z 004dff80 f   item_geofunc.obj
 0001:000df110       ?fix_length_and_dec@Item_func_as_wkt@@UAEXXZ 004e0110 f   item_geofunc.obj
 0001:000df140       ?val_str@Item_func_as_wkb@@UAEPAVString@@PAV2@@Z 004e0140 f   item_geofunc.obj
 0001:000df2a0       ?val_str@Item_func_geometry_type@@UAEPAVString@@PAV2@@Z 004e02a0 f   item_geofunc.obj
 0001:000df3f0       ?get_geometry_type@Item_func_envelope@@UBEHXZ 004e03f0 f   item_geofunc.obj
 0001:000df410       ?val_str@Item_func_envelope@@UAEPAVString@@PAV2@@Z 004e0410 f   item_geofunc.obj
 0001:000df5d0       ?get_geometry_type@Item_func_centroid@@UBEHXZ 004e05d0 f   item_geofunc.obj
 0001:000df5f0       ?val_str@Item_func_centroid@@UAEPAVString@@PAV2@@Z 004e05f0 f   item_geofunc.obj
 0001:000df7c0       ?val_str@Item_func_spatial_decomp@@UAEPAVString@@PAV2@@Z 004e07c0 f   item_geofunc.obj
 0001:000df9f0       ?val_str@Item_func_spatial_decomp_n@@UAEPAVString@@PAV2@@Z 004e09f0 f   item_geofunc.obj
 0001:000dfc60       ?get_geometry_type@Item_func_point@@UBEHXZ 004e0c60 f   item_geofunc.obj
 0001:000dfc80       ?val_str@Item_func_point@@UAEPAVString@@PAV2@@Z 004e0c80 f   item_geofunc.obj
 0001:000dfdc0       ?val_str@Item_func_spatial_collection@@UAEPAVString@@PAV2@@Z 004e0dc0 f   item_geofunc.obj
 0001:000e0190       ?val_int@Item_func_spatial_rel@@UAE_JXZ 004e1190 f   item_geofunc.obj
 0001:000e04a0       ?val_int@Item_func_isempty@@UAE_JXZ 004e14a0 f   item_geofunc.obj
 0001:000e05c0       ?val_int@Item_func_issimple@@UAE_JXZ 004e15c0 f   item_geofunc.obj
 0001:000e06e0       ?val_int@Item_func_isclosed@@UAE_JXZ 004e16e0 f   item_geofunc.obj
 0001:000e0840       ?val_int@Item_func_dimension@@UAE_JXZ 004e1840 f   item_geofunc.obj
 0001:000e0990       ?val_int@Item_func_numinteriorring@@UAE_JXZ 004e1990 f   item_geofunc.obj
 0001:000e0ab0       ?val_int@Item_func_numgeometries@@UAE_JXZ 004e1ab0 f   item_geofunc.obj
 0001:000e0bd0       ?val_int@Item_func_numpoints@@UAE_JXZ 004e1bd0 f   item_geofunc.obj
 0001:000e0d00       ?val_real@Item_func_x@@UAENXZ 004e1d00 f   item_geofunc.obj
 0001:000e0e20       ?val_real@Item_func_y@@UAENXZ 004e1e20 f   item_geofunc.obj
 0001:000e0f40       ?val_real@Item_func_area@@UAENXZ 004e1f40 f   item_geofunc.obj
 0001:000e1080       ?val_real@Item_func_glength@@UAENXZ 004e2080 f   item_geofunc.obj
 0001:000e11a0       ?val_int@Item_func_srid@@UAE_JXZ 004e21a0 f   item_geofunc.obj
 0001:000e1cb0       ?q_append@String@@QAEXK@Z  004e2cb0 f i item_geofunc.obj
 0001:000e1d00       ??0Gis_read_stream@@QAE@PAUcharset_info_st@@PBDH@Z 004e2d00 f i item_geofunc.obj
 0001:000e1d50       ??1Gis_read_stream@@QAE@XZ 004e2d50 f i item_geofunc.obj
 0001:000e1da0       ?as_wkt@Geometry@@QAEHPAVString@@PAPBD@Z 004e2da0 f i item_geofunc.obj
 0001:000e1ea0       ?qs_append@String@@QAEXD@Z 004e2ea0 f i item_geofunc.obj
 0001:000e1ef0       ?q_append@String@@QAEXD@Z  004e2ef0 f i item_geofunc.obj
 0001:000e1f40       ?q_append@String@@QAEXN@Z  004e2f40 f i item_geofunc.obj
 0001:000e1fa0       ?append@String@@QAEHPBDKK@Z 004e2fa0 f i item_geofunc.obj
 0001:000e2050       ?equals@MBR@@QAEHPBU1@@Z   004e3050 f i item_geofunc.obj
 0001:000e2100       ?disjoint@MBR@@QAEHPBU1@@Z 004e3100 f i item_geofunc.obj
 0001:000e21a0       ?intersects@MBR@@QAEHPBU1@@Z 004e31a0 f i item_geofunc.obj
 0001:000e21e0       ?touches@MBR@@QAEHPBU1@@Z  004e31e0 f i item_geofunc.obj
 0001:000e2340       ?within@MBR@@QAEHPBU1@@Z   004e3340 f i item_geofunc.obj
 0001:000e23e0       ?contains@MBR@@QAEHPBU1@@Z 004e33e0 f i item_geofunc.obj
 0001:000e2480       ?overlaps@MBR@@QAEHPBU1@@Z 004e3480 f i item_geofunc.obj
 0001:000e2660       ??0MBR@@QAE@NNNN@Z         004e3660 f i item_geofunc.obj
 0001:000e26b0       ?dimension@MBR@@QBEHXZ     004e36b0 f i item_geofunc.obj
 0001:000e2770       ??0Item_row@@QAE@AAV?$List@VItem@@@@@Z 004e3770 f   item_row.obj
 0001:000e2890       ?illegal_method_call@Item_row@@QAEXPBD@Z 004e3890 f   item_row.obj
 0001:000e29c0       ?fix_fields@Item_row@@UAEHPAVTHD@@PAPAVItem@@@Z 004e39c0 f   item_row.obj
 0001:000e2bc0       ?cleanup@Item_row@@UAEXXZ  004e3bc0 f   item_row.obj
 0001:000e2cd0       ?split_sum_func@Item_row@@UAEXPAVTHD@@PAPAVItem@@AAV?$List@VItem@@@@@Z 004e3cd0 f   item_row.obj
 0001:000e2d50       ?update_used_tables@Item_row@@UAEXXZ 004e3d50 f   item_row.obj
 0001:000e2e50       ?check_cols@Item_row@@UAEHI@Z 004e3e50 f   item_row.obj
 0001:000e2ea0       ?print@Item_row@@UAEXPAVString@@@Z 004e3ea0 f   item_row.obj
 0001:000e2f40       ?walk@Item_row@@UAEHP8Item@@AEHPAE@Z0@Z 004e3f40 f   item_row.obj
 0001:000e2fe0       ?transform@Item_row@@UAEPAVItem@@P82@AEPAV2@PAE@Z0@Z 004e3fe0 f   item_row.obj
 0001:000e30e0       ?bring_value@Item_row@@UAEXXZ 004e40e0 f   item_row.obj
 0001:000e33d0       ?type@Item_row@@UBE?AW4Type@Item@@XZ 004e43d0 f i item_row.obj
 0001:000e33f0       ?is_null@Item_row@@UAEHXZ  004e43f0 f i item_row.obj
 0001:000e3410       ?make_field@Item_row@@UAEXPAVSend_field@@@Z 004e4410 f i item_row.obj
 0001:000e3450       ?val_real@Item_row@@UAENXZ 004e4450 f i item_row.obj
 0001:000e3490       ?val_int@Item_row@@UAE_JXZ 004e4490 f i item_row.obj
 0001:000e34d0       ?val_str@Item_row@@UAEPAVString@@PAV2@@Z 004e44d0 f i item_row.obj
 0001:000e3510       ?val_decimal@Item_row@@UAEPAVmy_decimal@@PAV2@@Z 004e4510 f i item_row.obj
 0001:000e3550       ?used_tables@Item_row@@UBE_KXZ 004e4550 f i item_row.obj
 0001:000e3580       ?const_item@Item_row@@UBEHXZ 004e4580 f i item_row.obj
 0001:000e35a0       ?result_type@Item_row@@UBE?AW4Item_result@@XZ 004e45a0 f i item_row.obj
 0001:000e35c0       ?cols@Item_row@@UAEIXZ     004e45c0 f i item_row.obj
 0001:000e35e0       ?element_index@Item_row@@UAEPAVItem@@I@Z 004e45e0 f i item_row.obj
 0001:000e3610       ?addr@Item_row@@UAEPAPAVItem@@I@Z 004e4610 f i item_row.obj
 0001:000e3640       ?null_inside@Item_row@@UAEHXZ 004e4640 f i item_row.obj
 0001:000e3660       ??_GItem_row@@UAEPAXI@Z    004e4660 f i item_row.obj
 0001:000e3660       ??_EItem_row@@UAEPAXI@Z    004e4660 f i item_row.obj
 0001:000e36b0       ??1Item_row@@UAE@XZ        004e46b0 f i item_row.obj
 0001:000e36e0       ?check_well_formed_result@Item_str_func@@QAEPAVString@@PAV2@@Z 004e46e0 f   item_strfunc.obj
 0001:000e3870       ?fix_fields@Item_str_func@@UAEHPAVTHD@@PAPAVItem@@@Z 004e4870 f   item_strfunc.obj
 0001:000e38f0       ?val_decimal@Item_str_func@@UAEPAVmy_decimal@@PAV2@@Z 004e48f0 f   item_strfunc.obj
 0001:000e3a10       ?val_real@Item_str_func@@UAENXZ 004e4a10 f   item_strfunc.obj
 0001:000e3b90       ?val_int@Item_str_func@@UAE_JXZ 004e4b90 f   item_strfunc.obj
 0001:000e3ce0       ?val_str@Item_func_md5@@UAEPAVString@@PAV2@@Z 004e4ce0 f   item_strfunc.obj
 0001:000e3ea0       ?fix_length_and_dec@Item_func_md5@@UAEXXZ 004e4ea0 f   item_strfunc.obj
 0001:000e3f00       ?val_str@Item_func_sha@@UAEPAVString@@PAV2@@Z 004e4f00 f   item_strfunc.obj
 0001:000e4120       ?fix_length_and_dec@Item_func_sha@@UAEXXZ 004e5120 f   item_strfunc.obj
 0001:000e4180       ?val_str@Item_func_aes_encrypt@@UAEPAVString@@PAV2@@Z 004e5180 f   item_strfunc.obj
 0001:000e4380       ?fix_length_and_dec@Item_func_aes_encrypt@@UAEXXZ 004e5380 f   item_strfunc.obj
 0001:000e43c0       ?val_str@Item_func_aes_decrypt@@UAEPAVString@@PAV2@@Z 004e53c0 f   item_strfunc.obj
 0001:000e4680       ?fix_length_and_dec@Item_func_aes_decrypt@@UAEXXZ 004e5680 f   item_strfunc.obj
 0001:000e46b0       ?val_str@Item_func_concat@@UAEPAVString@@PAV2@@Z 004e56b0 f   item_strfunc.obj
 0001:000e4b60       ?fix_length_and_dec@Item_func_concat@@UAEXXZ 004e5b60 f   item_strfunc.obj
 0001:000e4c90       ?val_str@Item_func_des_encrypt@@UAEPAVString@@PAV2@@Z 004e5c90 f   item_strfunc.obj
 0001:000e50c0       ?val_str@Item_func_des_decrypt@@UAEPAVString@@PAV2@@Z 004e60c0 f   item_strfunc.obj
 0001:000e5440       ?val_str@Item_func_concat_ws@@UAEPAVString@@PAV2@@Z 004e6440 f   item_strfunc.obj
 0001:000e59c0       ?fix_length_and_dec@Item_func_concat_ws@@UAEXXZ 004e69c0 f   item_strfunc.obj
 0001:000e5aa0       ?val_str@Item_func_reverse@@UAEPAVString@@PAV2@@Z 004e6aa0 f   item_strfunc.obj
 0001:000e5cd0       ?fix_length_and_dec@Item_func_reverse@@UAEXXZ 004e6cd0 f   item_strfunc.obj
 0001:000e5d20       ?val_str@Item_func_replace@@UAEPAVString@@PAV2@@Z 004e6d20 f   item_strfunc.obj
 0001:000e6180       ?fix_length_and_dec@Item_func_replace@@UAEXXZ 004e7180 f   item_strfunc.obj
 0001:000e6280       ?val_str@Item_func_insert@@UAEPAVString@@PAV2@@Z 004e7280 f   item_strfunc.obj
 0001:000e65b0       ?fix_length_and_dec@Item_func_insert@@UAEXXZ 004e75b0 f   item_strfunc.obj
 0001:000e6650       ?val_str@Item_str_conv@@UAEPAVString@@PAV2@@Z 004e7650 f   item_strfunc.obj
 0001:000e6830       ?val_str@Item_func_left@@UAEPAVString@@PAV2@@Z 004e7830 f   item_strfunc.obj
 0001:000e69b0       ?left_right_max_length@Item_str_func@@QAEXXZ 004e79b0 f   item_strfunc.obj
 0001:000e6a70       ?fix_length_and_dec@Item_func_left@@UAEXXZ 004e7a70 f   item_strfunc.obj
 0001:000e6ab0       ?val_str@Item_func_right@@UAEPAVString@@PAV2@@Z 004e7ab0 f   item_strfunc.obj
 0001:000e6c40       ?fix_length_and_dec@Item_func_right@@UAEXXZ 004e7c40 f   item_strfunc.obj
 0001:000e6c80       ?val_str@Item_func_substr@@UAEPAVString@@PAV2@@Z 004e7c80 f   item_strfunc.obj
 0001:000e6fd0       ?fix_length_and_dec@Item_func_substr@@UAEXXZ 004e7fd0 f   item_strfunc.obj
 0001:000e7170       ?fix_length_and_dec@Item_func_substr_index@@UAEXXZ 004e8170 f   item_strfunc.obj
 0001:000e71c0       ?val_str@Item_func_substr_index@@UAEPAVString@@PAV2@@Z 004e81c0 f   item_strfunc.obj
 0001:000e75e0       ?val_str@Item_func_ltrim@@UAEPAVString@@PAV2@@Z 004e85e0 f   item_strfunc.obj
 0001:000e7960       ?val_str@Item_func_rtrim@@UAEPAVString@@PAV2@@Z 004e8960 f   item_strfunc.obj
 0001:000e7e80       ?val_str@Item_func_trim@@UAEPAVString@@PAV2@@Z 004e8e80 f   item_strfunc.obj
 0001:000e8300       ?fix_length_and_dec@Item_func_trim@@UAEXXZ 004e9300 f   item_strfunc.obj
 0001:000e83a0       ?print@Item_func_trim@@UAEXPAVString@@@Z 004e93a0 f   item_strfunc.obj
 0001:000e8490       ?val_str@Item_func_password@@UAEPAVString@@PAV2@@Z 004e9490 f   item_strfunc.obj
 0001:000e8570       ?alloc@Item_func_password@@SAPADPAVTHD@@PBD@Z 004e9570 f   item_strfunc.obj
 0001:000e85c0       ?val_str@Item_func_old_password@@UAEPAVString@@PAV2@@Z 004e95c0 f   item_strfunc.obj
 0001:000e86a0       ?alloc@Item_func_old_password@@SAPADPAVTHD@@PBD@Z 004e96a0 f   item_strfunc.obj
 0001:000e86f0       ?val_str@Item_func_encrypt@@UAEPAVString@@PAV2@@Z 004e96f0 f   item_strfunc.obj
 0001:000e8770       ?fix_length_and_dec@Item_func_encode@@UAEXXZ 004e9770 f   item_strfunc.obj
 0001:000e87c0       ?val_str@Item_func_encode@@UAEPAVString@@PAV2@@Z 004e97c0 f   item_strfunc.obj
 0001:000e88b0       ?print@Item_func_encode@@UAEXPAVString@@@Z 004e98b0 f   item_strfunc.obj
 0001:000e8960       ?val_str@Item_func_decode@@UAEPAVString@@PAV2@@Z 004e9960 f   item_strfunc.obj
 0001:000e8a40       ?safe_charset_converter@Item_func_sysconst@@UAEPAVItem@@PAUcharset_info_st@@@Z 004e9a40 f   item_strfunc.obj
 0001:000e8be0       ?val_str@Item_func_database@@UAEPAVString@@PAV2@@Z 004e9be0 f   item_strfunc.obj
 0001:000e8c70       ?init@Item_func_user@@IAEHPBD0@Z 004e9c70 f   item_strfunc.obj
 0001:000e8d80       ?fix_fields@Item_func_user@@UAEHPAVTHD@@PAPAVItem@@@Z 004e9d80 f   item_strfunc.obj
 0001:000e8df0       ?fix_fields@Item_func_current_user@@UAEHPAVTHD@@PAPAVItem@@@Z 004e9df0 f   item_strfunc.obj
 0001:000e8e90       ?fix_length_and_dec@Item_func_soundex@@UAEXXZ 004e9e90 f   item_strfunc.obj
 0001:000e8f20       ?val_str@Item_func_soundex@@UAEPAVString@@PAV2@@Z 004e9f20 f   item_strfunc.obj
 0001:000e9420       ??0Item_func_format@@QAE@PAVItem@@H@Z 004ea420 f   item_strfunc.obj
 0001:000e9480       ?val_str@Item_func_format@@UAEPAVString@@PAV2@@Z 004ea480 f   item_strfunc.obj
 0001:000e9890       ?print@Item_func_format@@UAEXPAVString@@@Z 004ea890 f   item_strfunc.obj
 0001:000e9990       ?fix_length_and_dec@Item_func_elt@@UAEXXZ 004ea990 f   item_strfunc.obj
 0001:000e9a80       ?val_real@Item_func_elt@@UAENXZ 004eaa80 f   item_strfunc.obj
 0001:000e9b50       ?val_int@Item_func_elt@@UAE_JXZ 004eab50 f   item_strfunc.obj
 0001:000e9c30       ?val_str@Item_func_elt@@UAEPAVString@@PAV2@@Z 004eac30 f   item_strfunc.obj
 0001:000e9d20       ?split_sum_func@Item_func_make_set@@UAEXPAVTHD@@PAPAVItem@@AAV?$List@VItem@@@@@Z 004ead20 f   item_strfunc.obj
 0001:000e9d80       ?fix_length_and_dec@Item_func_make_set@@UAEXXZ 004ead80 f   item_strfunc.obj
 0001:000e9ef0       ?update_used_tables@Item_func_make_set@@UAEXXZ 004eaef0 f   item_strfunc.obj
 0001:000e9fa0       ?val_str@Item_func_make_set@@UAEPAVString@@PAV2@@Z 004eafa0 f   item_strfunc.obj
 0001:000ea1f0       ?transform@Item_func_make_set@@UAEPAVItem@@P82@AEPAV2@PAE@Z0@Z 004eb1f0 f   item_strfunc.obj
 0001:000ea2c0       ?print@Item_func_make_set@@UAEXPAVString@@@Z 004eb2c0 f   item_strfunc.obj
 0001:000ea350       ?val_str@Item_func_char@@UAEPAVString@@PAV2@@Z 004eb350 f   item_strfunc.obj
 0001:000ea4a0       ?fix_length_and_dec@Item_func_repeat@@UAEXXZ 004eb4a0 f   item_strfunc.obj
 0001:000ea5c0       ?val_str@Item_func_repeat@@UAEPAVString@@PAV2@@Z 004eb5c0 f   item_strfunc.obj
 0001:000ea7f0       ?fix_length_and_dec@Item_func_rpad@@UAEXXZ 004eb7f0 f   item_strfunc.obj
 0001:000ea930       ?val_str@Item_func_rpad@@UAEPAVString@@PAV2@@Z 004eb930 f   item_strfunc.obj
 0001:000eac70       ?fix_length_and_dec@Item_func_lpad@@UAEXXZ 004ebc70 f   item_strfunc.obj
 0001:000eadb0       ?val_str@Item_func_lpad@@UAEPAVString@@PAV2@@Z 004ebdb0 f   item_strfunc.obj
 0001:000eb0c0       ?val_str@Item_func_conv@@UAEPAVString@@PAV2@@Z 004ec0c0 f   item_strfunc.obj
 0001:000eb3b0       ?val_str@Item_func_conv_charset@@UAEPAVString@@PAV2@@Z 004ec3b0 f   item_strfunc.obj
 0001:000eb510       ?fix_length_and_dec@Item_func_conv_charset@@UAEXXZ 004ec510 f   item_strfunc.obj
 0001:000eb570       ?print@Item_func_conv_charset@@UAEXPAVString@@@Z 004ec570 f   item_strfunc.obj
 0001:000eb600       ?val_str@Item_func_set_collation@@UAEPAVString@@PAV2@@Z 004ec600 f   item_strfunc.obj
 0001:000eb6a0       ?fix_length_and_dec@Item_func_set_collation@@UAEXXZ 004ec6a0 f   item_strfunc.obj
 0001:000eb820       ?eq@Item_func_set_collation@@UBEHPBVItem@@H@Z 004ec820 f   item_strfunc.obj
 0001:000eb950       ?print@Item_func_set_collation@@UAEXPAVString@@@Z 004ec950 f   item_strfunc.obj
 0001:000eba30       ?val_str@Item_func_charset@@UAEPAVString@@PAV2@@Z 004eca30 f   item_strfunc.obj
 0001:000ebb00       ?val_str@Item_func_collation@@UAEPAVString@@PAV2@@Z 004ecb00 f   item_strfunc.obj
 0001:000ebbd0       ?val_str@Item_func_hex@@UAEPAVString@@PAV2@@Z 004ecbd0 f   item_strfunc.obj
 0001:000ebe90       ?val_str@Item_func_unhex@@UAEPAVString@@PAV2@@Z 004ece90 f   item_strfunc.obj
 0001:000ec0a0       ?print@Item_func_binary@@UAEXPAVString@@@Z 004ed0a0 f   item_strfunc.obj
 0001:000ec110       ?val_str@Item_load_file@@UAEPAVString@@PAV2@@Z 004ed110 f   item_strfunc.obj
 0001:000ec470       ?val_str@Item_func_export_set@@UAEPAVString@@PAV2@@Z 004ed470 f   item_strfunc.obj
 0001:000ec870       ?fix_length_and_dec@Item_func_export_set@@UAEXXZ 004ed870 f   item_strfunc.obj
 0001:000ec960       ?val_str@Item_func_inet_ntoa@@UAEPAVString@@PAV2@@Z 004ed960 f   item_strfunc.obj
 0001:000ecb50       ?val_str@Item_func_quote@@UAEPAVString@@PAV2@@Z 004edb50 f   item_strfunc.obj
 0001:000ece00       ?val_int@Item_func_uncompressed_length@@UAE_JXZ 004ede00 f   item_strfunc.obj
 0001:000ecec0       ?val_int@Item_func_crc32@@UAE_JXZ 004edec0 f   item_strfunc.obj
 0001:000ecf70       ?val_str@Item_func_compress@@UAEPAVString@@PAV2@@Z 004edf70 f   item_strfunc.obj
 0001:000ed1a0       ?val_str@Item_func_uncompress@@UAEPAVString@@PAV2@@Z 004ee1a0 f   item_strfunc.obj
 0001:000ed3d0       ?val_str@Item_func_uuid@@UAEPAVString@@PAV2@@Z 004ee3d0 f   item_strfunc.obj
 0001:000f0040       ?set@String@@QAEXAAV1@KK@Z 004f1040 f i item_strfunc.obj
 0001:000f0100       ?init@SQL_CRYPT@@QAEXXZ    004f1100 f i item_strfunc.obj
 0001:000f0160       ?fix_length_and_dec@Item_func_format@@UAEXXZ 004f1160 f i item_strfunc.obj
 0001:000f0210       ?func_name@Item_func_format@@UBEPBDXZ 004f1210 f i item_strfunc.obj
 0001:000f0230       ??_GItem_func_format@@UAEPAXI@Z 004f1230 f i item_strfunc.obj
 0001:000f0230       ??_EItem_func_format@@UAEPAXI@Z 004f1230 f i item_strfunc.obj
 0001:000f0290       ??1Item_func_format@@UAE@XZ 004f1290 f i item_strfunc.obj
 0001:000f02d0       ?alloc_buffer@@YAPAVString@@PAV1@00K@Z 004f12d0 f i item_strfunc.obj
 0001:000f0380       ?hexchar_to_int@@YAHD@Z    004f1380 f i item_strfunc.obj
 0001:000f03e0       ?sql_rnd_with_mutex@@YAKXZ 004f13e0 f i item_strfunc.obj
 0001:000f0460       ??0String@@QAE@PBDPAUcharset_info_st@@@Z 004f1460 f i item_strfunc.obj
 0001:000f04d0       ??0Item_subselect@@QAE@XZ  004f14d0 f   item_subselect.obj
 0001:000f05a0       ?init@Item_subselect@@UAEXPAVst_select_lex@@PAVselect_subselect@@@Z 004f15a0 f   item_subselect.obj
 0001:000f0850       ?get_select_lex@Item_subselect@@QAEPAVst_select_lex@@XZ 004f1850 f   item_subselect.obj
 0001:000f0880       ?cleanup@Item_subselect@@UAEXXZ 004f1880 f   item_subselect.obj
 0001:000f09f0       ?cleanup@Item_singlerow_subselect@@UAEXXZ 004f19f0 f   item_subselect.obj
 0001:000f0af0       ??1Item_subselect@@UAE@XZ  004f1af0 f   item_subselect.obj
 0001:000f0b70       ?select_transformer@Item_subselect@@UAE?AW4trans_res@1@PAVJOIN@@@Z 004f1b70 f   item_subselect.obj
 0001:000f0c60       ?fix_fields@Item_subselect@@UAEHPAVTHD@@PAPAVItem@@@Z 004f1c60 f   item_subselect.obj
 0001:000f0f80       ?exec@Item_subselect@@UAEHXZ 004f1f80 f   item_subselect.obj
 0001:000f1020       ?type@Item_subselect@@UBE?AW4Type@Item@@XZ 004f2020 f   item_subselect.obj
 0001:000f1040       ?fix_length_and_dec@Item_subselect@@UAEXXZ 004f2040 f   item_subselect.obj
 0001:000f1080       ?used_tables@Item_subselect@@UBE_KXZ 004f2080 f   item_subselect.obj
 0001:000f1100       ?const_item@Item_subselect@@UBEHXZ 004f2100 f   item_subselect.obj
 0001:000f1120       ?get_tmp_table_item@Item_subselect@@UAEPAVItem@@PAVTHD@@@Z 004f2120 f   item_subselect.obj
 0001:000f11d0       ?update_used_tables@Item_subselect@@UAEXXZ 004f21d0 f   item_subselect.obj
 0001:000f1260       ?print@Item_subselect@@UAEXPAVString@@@Z 004f2260 f   item_subselect.obj
 0001:000f12c0       ??0Item_singlerow_subselect@@QAE@PAVst_select_lex@@@Z 004f22c0 f   item_subselect.obj
 0001:000f1410       ?invalidate_and_restore_select_lex@Item_singlerow_subselect@@QAEPAVst_select_lex@@XZ 004f2410 f   item_subselect.obj
 0001:000f1530       ??0Item_maxmin_subselect@@QAE@PAVTHD@@PAVItem_subselect@@PAVst_select_lex@@H@Z 004f2530 f   item_subselect.obj
 0001:000f16c0       ?cleanup@Item_maxmin_subselect@@UAEXXZ 004f26c0 f   item_subselect.obj
 0001:000f17c0       ?print@Item_maxmin_subselect@@UAEXPAVString@@@Z 004f27c0 f   item_subselect.obj
 0001:000f1820       ?reset@Item_singlerow_subselect@@UAEXXZ 004f2820 f   item_subselect.obj
 0001:000f1860       ?select_transformer@Item_singlerow_subselect@@UAE?AW4trans_res@Item_subselect@@PAVJOIN@@@Z 004f2860 f   item_subselect.obj
 0001:000f1ac0       ?store@Item_singlerow_subselect@@QAEXIPAVItem@@@Z 004f2ac0 f   item_subselect.obj
 0001:000f1b20       ?result_type@Item_singlerow_subselect@@UBE?AW4Item_result@@XZ 004f2b20 f   item_subselect.obj
 0001:000f1b50       ?field_type@Item_singlerow_subselect@@UBE?AW4enum_field_types@@XZ 004f2b50 f   item_subselect.obj
 0001:000f1b80       ?fix_length_and_dec@Item_singlerow_subselect@@UAEXXZ 004f2b80 f   item_subselect.obj
 0001:000f1cc0       ?cols@Item_singlerow_subselect@@UAEIXZ 004f2cc0 f   item_subselect.obj
 0001:000f1d00       ?check_cols@Item_singlerow_subselect@@UAEHI@Z 004f2d00 f   item_subselect.obj
 0001:000f1d60       ?null_inside@Item_singlerow_subselect@@UAEHXZ 004f2d60 f   item_subselect.obj
 0001:000f1dc0       ?bring_value@Item_singlerow_subselect@@UAEXXZ 004f2dc0 f   item_subselect.obj
 0001:000f1e00       ?val_real@Item_singlerow_subselect@@UAENXZ 004f2e00 f   item_subselect.obj
 0001:000f1ec0       ?val_int@Item_singlerow_subselect@@UAE_JXZ 004f2ec0 f   item_subselect.obj
 0001:000f1f80       ?val_str@Item_singlerow_subselect@@UAEPAVString@@PAV2@@Z 004f2f80 f   item_subselect.obj
 0001:000f2020       ?val_decimal@Item_singlerow_subselect@@UAEPAVmy_decimal@@PAV2@@Z 004f3020 f   item_subselect.obj
 0001:000f20c0       ?val_bool@Item_singlerow_subselect@@UAEHXZ 004f30c0 f   item_subselect.obj
 0001:000f2150       ??0Item_exists_subselect@@QAE@PAVst_select_lex@@@Z 004f3150 f   item_subselect.obj
 0001:000f22b0       ?print@Item_exists_subselect@@UAEXPAVString@@@Z 004f32b0 f   item_subselect.obj
 0001:000f22f0       ?test_limit@Item_in_subselect@@QAEHPAVst_select_lex_unit@@@Z 004f32f0 f   item_subselect.obj
 0001:000f2380       ??0Item_in_subselect@@QAE@PAVItem@@PAVst_select_lex@@@Z 004f3380 f   item_subselect.obj
 0001:000f2540       ??0Item_allany_subselect@@QAE@PAVItem@@P6APAVComp_creator@@H@ZPAVst_select_lex@@H@Z 004f3540 f   item_subselect.obj
 0001:000f2700       ?fix_length_and_dec@Item_exists_subselect@@UAEXXZ 004f3700 f   item_subselect.obj
 0001:000f27a0       ?val_real@Item_exists_subselect@@UAENXZ 004f37a0 f   item_subselect.obj
 0001:000f2830       ?val_int@Item_exists_subselect@@UAE_JXZ 004f3830 f   item_subselect.obj
 0001:000f28c0       ?val_str@Item_exists_subselect@@UAEPAVString@@PAV2@@Z 004f38c0 f   item_subselect.obj
 0001:000f2960       ?val_decimal@Item_exists_subselect@@UAEPAVmy_decimal@@PAV2@@Z 004f3960 f   item_subselect.obj
 0001:000f2a00       ?val_bool@Item_exists_subselect@@UAEHXZ 004f3a00 f   item_subselect.obj
 0001:000f2a90       ?val_real@Item_in_subselect@@UAENXZ 004f3a90 f   item_subselect.obj
 0001:000f2b60       ?val_int@Item_in_subselect@@UAE_JXZ 004f3b60 f   item_subselect.obj
 0001:000f2c30       ?val_str@Item_in_subselect@@UAEPAVString@@PAV2@@Z 004f3c30 f   item_subselect.obj
 0001:000f2d20       ?val_bool@Item_in_subselect@@UAEHXZ 004f3d20 f   item_subselect.obj
 0001:000f2dd0       ?val_decimal@Item_in_subselect@@UAEPAVmy_decimal@@PAV2@@Z 004f3dd0 f   item_subselect.obj
 0001:000f2eb0       ?single_value_transformer@Item_in_subselect@@QAE?AW4trans_res@Item_subselect@@PAVJOIN@@PAVComp_creator@@@Z 004f3eb0 f   item_subselect.obj
 0001:000f3ec0       ?row_value_transformer@Item_in_subselect@@QAE?AW4trans_res@Item_subselect@@PAVJOIN@@@Z 004f4ec0 f   item_subselect.obj
 0001:000f4f20       ?select_transformer@Item_in_subselect@@UAE?AW4trans_res@Item_subselect@@PAVJOIN@@@Z 004f5f20 f   item_subselect.obj
 0001:000f4f50       ?select_in_like_transformer@Item_in_subselect@@QAE?AW4trans_res@Item_subselect@@PAVJOIN@@PAVComp_creator@@@Z 004f5f50 f   item_subselect.obj
 0001:000f5330       ?print@Item_in_subselect@@UAEXPAVString@@@Z 004f6330 f   item_subselect.obj
 0001:000f53b0       ?fix_fields@Item_in_subselect@@UAEHPAVTHD@@PAPAVItem@@@Z 004f63b0 f   item_subselect.obj
 0001:000f5470       ?select_transformer@Item_allany_subselect@@UAE?AW4trans_res@Item_subselect@@PAVJOIN@@@Z 004f6470 f   item_subselect.obj
 0001:000f54d0       ?print@Item_allany_subselect@@UAEXPAVString@@@Z 004f64d0 f   item_subselect.obj
 0001:000f55c0       ?set_thd@subselect_engine@@QAEXPAVTHD@@@Z 004f65c0 f   item_subselect.obj
 0001:000f5600       ??0subselect_single_select_engine@@QAE@PAVst_select_lex@@PAVselect_subselect@@PAVItem_subselect@@@Z 004f6600 f   item_subselect.obj
 0001:000f5690       ?cleanup@subselect_single_select_engine@@UAEXXZ 004f6690 f   item_subselect.obj
 0001:000f57b0       ?cleanup@subselect_union_engine@@UAEXXZ 004f67b0 f   item_subselect.obj
 0001:000f58c0       ?is_executed@subselect_union_engine@@UBEHXZ 004f68c0 f   item_subselect.obj
 0001:000f58e0       ?no_rows@subselect_union_engine@@UAEHXZ 004f68e0 f   item_subselect.obj
 0001:000f5910       ?cleanup@subselect_uniquesubquery_engine@@UAEXXZ 004f6910 f   item_subselect.obj
 0001:000f59f0       ??0subselect_union_engine@@QAE@PAVst_select_lex_unit@@PAVselect_subselect@@PAVItem_subselect@@@Z 004f69f0 f   item_subselect.obj
 0001:000f5a60       ?prepare@subselect_single_select_engine@@UAEHXZ 004f6a60 f   item_subselect.obj
 0001:000f5c10       ?prepare@subselect_union_engine@@UAEHXZ 004f6c10 f   item_subselect.obj
 0001:000f5c50       ?prepare@subselect_uniquesubquery_engine@@UAEHXZ 004f6c50 f   item_subselect.obj
 0001:000f5c90       ?no_rows@subselect_single_select_engine@@UAEHXZ 004f6c90 f   item_subselect.obj
 0001:000f5cc0       ?set_row@subselect_engine@@IAEXAAV?$List@VItem@@@@PAPAVItem_cache@@@Z 004f6cc0 f   item_subselect.obj
 0001:000f5e40       ?fix_length_and_dec@subselect_single_select_engine@@UAEXPAPAVItem_cache@@@Z 004f6e40 f   item_subselect.obj
 0001:000f5ee0       ?fix_length_and_dec@subselect_union_engine@@UAEXPAPAVItem_cache@@@Z 004f6ee0 f   item_subselect.obj
 0001:000f5fb0       ?fix_length_and_dec@subselect_uniquesubquery_engine@@UAEXPAPAVItem_cache@@@Z 004f6fb0 f   item_subselect.obj
 0001:000f5ff0       ?exec@subselect_single_select_engine@@UAEHXZ 004f6ff0 f   item_subselect.obj
 0001:000f66e0       ?exec@subselect_union_engine@@UAEHXZ 004f76e0 f   item_subselect.obj
 0001:000f6740       ?scan_table@subselect_uniquesubquery_engine@@QAEHXZ 004f7740 f   item_subselect.obj
 0001:000f6940       ?copy_ref_key@subselect_uniquesubquery_engine@@QAEHXZ 004f7940 f   item_subselect.obj
 0001:000f6ae0       ?exec@subselect_uniquesubquery_engine@@UAEHXZ 004f7ae0 f   item_subselect.obj
 0001:000f6da0       ??1subselect_uniquesubquery_engine@@UAE@XZ 004f7da0 f   item_subselect.obj
 0001:000f6de0       ?exec@subselect_indexsubquery_engine@@UAEHXZ 004f7de0 f   item_subselect.obj
 0001:000f7190       ?cols@subselect_single_select_engine@@UAEIXZ 004f8190 f   item_subselect.obj
 0001:000f71f0       ?cols@subselect_union_engine@@UAEIXZ 004f81f0 f   item_subselect.obj
 0001:000f7240       ?uncacheable@subselect_single_select_engine@@UAEEXZ 004f8240 f   item_subselect.obj
 0001:000f7260       ?uncacheable@subselect_union_engine@@UAEEXZ 004f8260 f   item_subselect.obj
 0001:000f7280       ?exclude@subselect_single_select_engine@@UAEXXZ 004f8280 f   item_subselect.obj
 0001:000f72d0       ?exclude@subselect_union_engine@@UAEXXZ 004f82d0 f   item_subselect.obj
 0001:000f7300       ?exclude@subselect_uniquesubquery_engine@@UAEXXZ 004f8300 f   item_subselect.obj
 0001:000f7340       ?calc_const_tables@subselect_engine@@SA_KPAUTABLE_LIST@@@Z 004f8340 f   item_subselect.obj
 0001:000f73d0       ?upper_select_const_tables@subselect_single_select_engine@@UAE_KXZ 004f83d0 f   item_subselect.obj
 0001:000f7420       ?upper_select_const_tables@subselect_union_engine@@UAE_KXZ 004f8420 f   item_subselect.obj
 0001:000f7470       ?print@subselect_single_select_engine@@UAEXPAVString@@@Z 004f8470 f   item_subselect.obj
 0001:000f74b0       ?print@subselect_union_engine@@UAEXPAVString@@@Z 004f84b0 f   item_subselect.obj
 0001:000f74e0       ?print@subselect_uniquesubquery_engine@@UAEXPAVString@@@Z 004f84e0 f   item_subselect.obj
 0001:000f7600       ?print@subselect_indexsubquery_engine@@UAEXPAVString@@@Z 004f8600 f   item_subselect.obj
 0001:000f7770       ?change_result@subselect_single_select_engine@@UAEHPAVItem_subselect@@PAVselect_subselect@@@Z 004f8770 f   item_subselect.obj
 0001:000f77c0       ?change_result@subselect_union_engine@@UAEHPAVItem_subselect@@PAVselect_subselect@@@Z 004f87c0 f   item_subselect.obj
 0001:000f7820       ?change_result@subselect_uniquesubquery_engine@@UAEHPAVItem_subselect@@PAVselect_subselect@@@Z 004f8820 f   item_subselect.obj
 0001:000f7860       ?no_tables@subselect_single_select_engine@@UAEHXZ 004f8860 f   item_subselect.obj
 0001:000f7890       ?may_be_null@subselect_single_select_engine@@UAEHXZ 004f8890 f   item_subselect.obj
 0001:000f7910       ?no_tables@subselect_union_engine@@UAEHXZ 004f8910 f   item_subselect.obj
 0001:000f7970       ?no_tables@subselect_uniquesubquery_engine@@UAEHXZ 004f8970 f   item_subselect.obj
 0001:000f96c0       ?substype@Item_subselect@@UAE?AW4subs_type@1@XZ 004fa6c0 f i item_subselect.obj
 0001:000f96e0       ?reset@Item_subselect@@UAEXXZ 004fa6e0 f i item_subselect.obj
 0001:000f9700       ?is_null@Item_subselect@@UAEHXZ 004fa700 f i item_subselect.obj
 0001:000f9750       ?not_null_tables@Item_subselect@@UBE_KXZ 004fa750 f i item_subselect.obj
 0001:000f9770       ?have_guarded_conds@Item_subselect@@UAEHXZ 004fa770 f i item_subselect.obj
 0001:000f9790       ?reset_value_registration@Item_subselect@@UAEXXZ 004fa790 f i item_subselect.obj
 0001:000f97b0       ??_GItem_subselect@@UAEPAXI@Z 004fa7b0 f i item_subselect.obj
 0001:000f97b0       ??_EItem_subselect@@UAEPAXI@Z 004fa7b0 f i item_subselect.obj
 0001:000f9810       ?next_select@st_select_lex@@QAEPAV1@XZ 004fa810 f i item_subselect.obj
 0001:000f9830       ?substype@Item_singlerow_subselect@@UAE?AW4subs_type@Item_subselect@@XZ 004fa830 f i item_subselect.obj
 0001:000f9850       ?element_index@Item_singlerow_subselect@@UAEPAVItem@@I@Z 004fa850 f i item_subselect.obj
 0001:000f9880       ?addr@Item_singlerow_subselect@@UAEPAPAVItem@@I@Z 004fa880 f i item_subselect.obj
 0001:000f98b0       ??_EItem_singlerow_subselect@@UAEPAXI@Z 004fa8b0 f i item_subselect.obj
 0001:000f98b0       ??_GItem_singlerow_subselect@@UAEPAXI@Z 004fa8b0 f i item_subselect.obj
 0001:000f9910       ??1Item_singlerow_subselect@@UAE@XZ 004fa910 f i item_subselect.obj
 0001:000f9940       ??0select_singlerow_subselect@@QAE@PAVItem_subselect@@@Z 004fa940 f i item_subselect.obj
 0001:000f9990       ?prepare@select_result@@UAEHAAV?$List@VItem@@@@PAVst_select_lex_unit@@@Z 004fa990 f i item_subselect.obj
 0001:000f99c0       ?prepare2@select_result@@UAEHXZ 004fa9c0 f i item_subselect.obj
 0001:000f99e0       ?initialize_tables@select_result@@UAEHPAVJOIN@@@Z 004fa9e0 f i item_subselect.obj
 0001:000f9a00       ?abort@select_result@@UAEXXZ 004faa00 f i item_subselect.obj
 0001:000f9a20       ?field_count@select_result_interceptor@@UBEIAAV?$List@VItem@@@@@Z 004faa20 f i item_subselect.obj
 0001:000f9a40       ?send_fields@select_result_interceptor@@UAEHAAV?$List@VItem@@@@I@Z 004faa40 f i item_subselect.obj
 0001:000f9a60       ?send_eof@select_subselect@@UAEHXZ 004faa60 f i item_subselect.obj
 0001:000f9a80       ??_Eselect_singlerow_subselect@@UAEPAXI@Z 004faa80 f i item_subselect.obj
 0001:000f9a80       ??_Gselect_singlerow_subselect@@UAEPAXI@Z 004faa80 f i item_subselect.obj
 0001:000f9ad0       ??1select_singlerow_subselect@@UAE@XZ 004faad0 f i item_subselect.obj
 0001:000f9b00       ??1select_subselect@@UAE@XZ 004fab00 f i item_subselect.obj
 0001:000f9b30       ??1select_result_interceptor@@UAE@XZ 004fab30 f i item_subselect.obj
 0001:000f9b60       ??1select_result@@UAE@XZ   004fab60 f i item_subselect.obj
 0001:000f9bd0       ?field_count@select_result@@UBEIAAV?$List@VItem@@@@@Z 004fabd0 f i item_subselect.obj
 0001:000f9bf0       ??_Eselect_result@@UAEPAXI@Z 004fabf0 f i item_subselect.obj
 0001:000f9bf0       ??_Gselect_result@@UAEPAXI@Z 004fabf0 f i item_subselect.obj
 0001:000f9c40       ?get_used_tables_cache@Item_subselect@@QAE_KXZ 004fac40 f i item_subselect.obj
 0001:000f9c70       ?get_const_item_cache@Item_subselect@@QAEHXZ 004fac70 f i item_subselect.obj
 0001:000f9c90       ??0Item_singlerow_subselect@@QAE@XZ 004fac90 f i item_subselect.obj
 0001:000f9cf0       ?reset_value_registration@Item_maxmin_subselect@@UAEXXZ 004facf0 f i item_subselect.obj
 0001:000f9d20       ??0select_max_min_finder_subselect@@QAE@PAVItem_subselect@@H@Z 004fad20 f i item_subselect.obj
 0001:000f9d80       ??_Gselect_max_min_finder_subselect@@UAEPAXI@Z 004fad80 f i item_subselect.obj
 0001:000f9d80       ??_Eselect_max_min_finder_subselect@@UAEPAXI@Z 004fad80 f i item_subselect.obj
 0001:000f9dd0       ??1select_max_min_finder_subselect@@UAE@XZ 004fadd0 f i item_subselect.obj
 0001:000f9e00       ??_EItem_maxmin_subselect@@UAEPAXI@Z 004fae00 f i item_subselect.obj
 0001:000f9e00       ??_GItem_maxmin_subselect@@UAEPAXI@Z 004fae00 f i item_subselect.obj
 0001:000f9e60       ??1Item_maxmin_subselect@@UAE@XZ 004fae60 f i item_subselect.obj
 0001:000f9e90       ?type@subselect_engine@@QAE?AW4Item_result@@XZ 004fae90 f i item_subselect.obj
 0001:000f9eb0       ?field_type@subselect_engine@@QAE?AW4enum_field_types@@XZ 004faeb0 f i item_subselect.obj
 0001:000f9ed0       ?substype@Item_exists_subselect@@UAE?AW4subs_type@Item_subselect@@XZ 004faed0 f i item_subselect.obj
 0001:000f9ef0       ?reset@Item_exists_subselect@@UAEXXZ 004faef0 f i item_subselect.obj
 0001:000f9f20       ?result_type@Item_exists_subselect@@UBE?AW4Item_result@@XZ 004faf20 f i item_subselect.obj
 0001:000f9f40       ??_EItem_exists_subselect@@UAEPAXI@Z 004faf40 f i item_subselect.obj
 0001:000f9f40       ??_GItem_exists_subselect@@UAEPAXI@Z 004faf40 f i item_subselect.obj
 0001:000f9fa0       ??1Item_exists_subselect@@UAE@XZ 004fafa0 f i item_subselect.obj
 0001:000f9fd0       ??0select_exists_subselect@@QAE@PAVItem_subselect@@@Z 004fafd0 f i item_subselect.obj
 0001:000fa020       ??_Gselect_exists_subselect@@UAEPAXI@Z 004fb020 f i item_subselect.obj
 0001:000fa020       ??_Eselect_exists_subselect@@UAEPAXI@Z 004fb020 f i item_subselect.obj
 0001:000fa070       ??1select_exists_subselect@@UAE@XZ 004fb070 f i item_subselect.obj
 0001:000fa0a0       ??0Item_exists_subselect@@QAE@XZ 004fb0a0 f i item_subselect.obj
 0001:000fa0e0       ?have_guarded_conds@Item_in_subselect@@UAEHXZ 004fb0e0 f i item_subselect.obj
 0001:000fa110       ?substype@Item_in_subselect@@UAE?AW4subs_type@Item_subselect@@XZ 004fb110 f i item_subselect.obj
 0001:000fa130       ?reset@Item_in_subselect@@UAEXXZ 004fb130 f i item_subselect.obj
 0001:000fa170       ?top_level_item@Item_in_subselect@@UAEXXZ 004fb170 f i item_subselect.obj
 0001:000fa1a0       ??_GItem_in_subselect@@UAEPAXI@Z 004fb1a0 f i item_subselect.obj
 0001:000fa1a0       ??_EItem_in_subselect@@UAEPAXI@Z 004fb1a0 f i item_subselect.obj
 0001:000fa200       ??1Item_in_subselect@@UAE@XZ 004fb200 f i item_subselect.obj
 0001:000fa230       ??0Item_in_subselect@@QAE@XZ 004fb230 f i item_subselect.obj
 0001:000fa2c0       ?substype@Item_allany_subselect@@UAE?AW4subs_type@Item_subselect@@XZ 004fb2c0 f i item_subselect.obj
 0001:000fa2f0       ??_EItem_allany_subselect@@UAEPAXI@Z 004fb2f0 f i item_subselect.obj
 0001:000fa2f0       ??_GItem_allany_subselect@@UAEPAXI@Z 004fb2f0 f i item_subselect.obj
 0001:000fa350       ??1Item_allany_subselect@@UAE@XZ 004fb350 f i item_subselect.obj
 0001:000fa380       ??0Item_ref_null_helper@@QAE@PAUName_resolution_context@@PAVItem_in_subselect@@PAPAVItem@@PBD3@Z 004fb380 f i item_subselect.obj
 0001:000fa3f0       ?used_tables@Item_ref_null_helper@@UBE_KXZ 004fb3f0 f i item_subselect.obj
 0001:000fa490       ??_EItem_ref_null_helper@@UAEPAXI@Z 004fb490 f i item_subselect.obj
 0001:000fa490       ??_GItem_ref_null_helper@@UAEPAXI@Z 004fb490 f i item_subselect.obj
 0001:000fa4f0       ??1Item_ref_null_helper@@UAE@XZ 004fb4f0 f i item_subselect.obj
 0001:000fa520       ??0Item_sum_min@@QAE@PAVItem@@@Z 004fb520 f i item_subselect.obj
 0001:000fa570       ?type@Item_sum@@UBE?AW4Type@Item@@XZ 004fb570 f i item_subselect.obj
 0001:000fa590       ?fix_length_and_dec@Item_sum@@UAEXXZ 004fb590 f i item_subselect.obj
 0001:000fa5c0       ?result_item@Item_sum@@UAEPAVItem@@PAVField@@@Z 004fb5c0 f i item_subselect.obj
 0001:000fa640       ?used_tables@Item_sum@@UBE_KXZ 004fb640 f i item_subselect.obj
 0001:000fa670       ?is_null@Item_sum@@UAEHXZ  004fb670 f i item_subselect.obj
 0001:000fa690       ?const_item@Item_sum@@UBEHXZ 004fb690 f i item_subselect.obj
 0001:000fa6c0       ?setup@Item_sum@@UAEHPAVTHD@@@Z 004fb6c0 f i item_subselect.obj
 0001:000fa6e0       ?make_unique@Item_sum@@UAEXXZ 004fb6e0 f i item_subselect.obj
 0001:000fa700       ??0Item_sum_hybrid@@QAE@PAVItem@@H@Z 004fb700 f i item_subselect.obj
 0001:000fa800       ??0Item_sum@@QAE@PAVItem@@@Z 004fb800 f i item_subselect.obj
 0001:000fa890       ?keep_field_type@Item_sum@@UBEHXZ 004fb890 f i item_subselect.obj
 0001:000fa8b0       ?cleanup@Item_sum@@UAEXXZ  004fb8b0 f i item_subselect.obj
 0001:000fa8f0       ?no_rows_in_result@Item_sum@@UAEXXZ 004fb8f0 f i item_subselect.obj
 0001:000fa940       ??_EItem_sum@@UAEPAXI@Z    004fb940 f i item_subselect.obj
 0001:000fa940       ??_GItem_sum@@UAEPAXI@Z    004fb940 f i item_subselect.obj
 0001:000fa9a0       ??1Item_sum@@UAE@XZ        004fb9a0 f i item_subselect.obj
 0001:000fa9d0       ?keep_field_type@Item_sum_hybrid@@UBEHXZ 004fb9d0 f i item_subselect.obj
 0001:000fa9f0       ?result_type@Item_sum_hybrid@@UBE?AW4Item_result@@XZ 004fb9f0 f i item_subselect.obj
 0001:000faa20       ?field_type@Item_sum_hybrid@@UBE?AW4enum_field_types@@XZ 004fba20 f i item_subselect.obj
 0001:000faa50       ??_GItem_sum_hybrid@@UAEPAXI@Z 004fba50 f i item_subselect.obj
 0001:000faa50       ??_EItem_sum_hybrid@@UAEPAXI@Z 004fba50 f i item_subselect.obj
 0001:000faab0       ??1Item_sum_hybrid@@UAE@XZ 004fbab0 f i item_subselect.obj
 0001:000fab00       ?sum_func@Item_sum_min@@UBE?AW4Sumfunctype@Item_sum@@XZ 004fbb00 f i item_subselect.obj
 0001:000fab20       ?func_name@Item_sum_min@@UBEPBDXZ 004fbb20 f i item_subselect.obj
 0001:000fab40       ??_GItem_sum_min@@UAEPAXI@Z 004fbb40 f i item_subselect.obj
 0001:000fab40       ??_EItem_sum_min@@UAEPAXI@Z 004fbb40 f i item_subselect.obj
 0001:000faba0       ??1Item_sum_min@@UAE@XZ    004fbba0 f i item_subselect.obj
 0001:000fabd0       ??0Item_sum_max@@QAE@PAVItem@@@Z 004fbbd0 f i item_subselect.obj
 0001:000fac20       ?sum_func@Item_sum_max@@UBE?AW4Sumfunctype@Item_sum@@XZ 004fbc20 f i item_subselect.obj
 0001:000fac40       ?func_name@Item_sum_max@@UBEPBDXZ 004fbc40 f i item_subselect.obj
 0001:000fac60       ??_GItem_sum_max@@UAEPAXI@Z 004fbc60 f i item_subselect.obj
 0001:000fac60       ??_EItem_sum_max@@UAEPAXI@Z 004fbc60 f i item_subselect.obj
 0001:000facc0       ??1Item_sum_max@@UAE@XZ    004fbcc0 f i item_subselect.obj
 0001:000facf0       ?get_cache@Item_in_optimizer@@QAEPAPAVItem_cache@@XZ 004fbcf0 f i item_subselect.obj
 0001:000fad10       ??0Item_func_trig_cond@@QAE@PAVItem@@PAH@Z 004fbd10 f i item_subselect.obj
 0001:000fad70       ?val_int@Item_func_trig_cond@@UAE_JXZ 004fbd70 f i item_subselect.obj
 0001:000fae10       ?functype@Item_func_trig_cond@@UBE?AW4Functype@Item_func@@XZ 004fbe10 f i item_subselect.obj
 0001:000fae30       ?func_name@Item_func_trig_cond@@UBEPBDXZ 004fbe30 f i item_subselect.obj
 0001:000fae50       ?const_item@Item_func_trig_cond@@UBEHXZ 004fbe50 f i item_subselect.obj
 0001:000fae70       ??_GItem_func_trig_cond@@UAEPAXI@Z 004fbe70 f i item_subselect.obj
 0001:000fae70       ??_EItem_func_trig_cond@@UAEPAXI@Z 004fbe70 f i item_subselect.obj
 0001:000faed0       ??1Item_func_trig_cond@@UAE@XZ 004fbed0 f i item_subselect.obj
 0001:000faf00       ?top_level@Item_func_not_all@@QAEHXZ 004fbf00 f i item_subselect.obj
 0001:000faf30       ?set_sum_test@Item_func_not_all@@QAEXPAVItem_sum_hybrid@@@Z 004fbf30 f i item_subselect.obj
 0001:000faf60       ?set_sub_test@Item_func_not_all@@QAEXPAVItem_maxmin_subselect@@@Z 004fbf60 f i item_subselect.obj
 0001:000faf90       ??0Item_is_not_null_test@@QAE@PAVItem_in_subselect@@PAVItem@@@Z 004fbf90 f i item_subselect.obj
 0001:000faff0       ?functype@Item_is_not_null_test@@UBE?AW4Functype@Item_func@@XZ 004fbff0 f i item_subselect.obj
 0001:000fb010       ?func_name@Item_is_not_null_test@@UBEPBDXZ 004fc010 f i item_subselect.obj
 0001:000fb030       ?used_tables@Item_is_not_null_test@@UBE_KXZ 004fc030 f i item_subselect.obj
 0001:000fb060       ??_GItem_is_not_null_test@@UAEPAXI@Z 004fc060 f i item_subselect.obj
 0001:000fb060       ??_EItem_is_not_null_test@@UAEPAXI@Z 004fc060 f i item_subselect.obj
 0001:000fb0c0       ??1Item_is_not_null_test@@UAE@XZ 004fc0c0 f i item_subselect.obj
 0001:000fb0f0       ??0Item_cond_or@@QAE@PAVItem@@0@Z 004fc0f0 f i item_subselect.obj
 0001:000fb140       ?get_cond_guard@Item_in_subselect@@QAEPAHH@Z 004fc140 f i item_subselect.obj
 0001:000fb1a0       ?and_items@@YAPAVItem@@PAV1@0@Z 004fc1a0 f i item_subselect.obj
 0001:000fb230       ??0Item_in_optimizer@@QAE@PAVItem@@PAVItem_in_subselect@@@Z 004fc230 f i item_subselect.obj
 0001:000fb2b0       ??0Item_bool_func@@QAE@PAVItem@@0@Z 004fc2b0 f i item_subselect.obj
 0001:000fb300       ?func_name@Item_in_optimizer@@UBEPBDXZ 004fc300 f i item_subselect.obj
 0001:000fb320       ??_GItem_in_optimizer@@UAEPAXI@Z 004fc320 f i item_subselect.obj
 0001:000fb320       ??_EItem_in_optimizer@@UAEPAXI@Z 004fc320 f i item_subselect.obj
 0001:000fb380       ??1Item_in_optimizer@@UAE@XZ 004fc380 f i item_subselect.obj
 0001:000fb3b0       ?set_thd@select_result@@QAEXPAVTHD@@@Z 004fc3b0 f i item_subselect.obj
 0001:000fb3e0       ??0subselect_engine@@QAE@PAVItem_subselect@@PAVselect_subselect@@@Z 004fc3e0 f i item_subselect.obj
 0001:000fb470       ?may_be_null@subselect_engine@@UAEHXZ 004fc470 f i item_subselect.obj
 0001:000fb490       ?is_executed@subselect_engine@@UBEHXZ 004fc490 f i item_subselect.obj
 0001:000fb4b0       ??_Esubselect_engine@@UAEPAXI@Z 004fc4b0 f i item_subselect.obj
 0001:000fb4b0       ??_Gsubselect_engine@@UAEPAXI@Z 004fc4b0 f i item_subselect.obj
 0001:000fb500       ??1subselect_engine@@UAE@XZ 004fc500 f i item_subselect.obj
 0001:000fb570       ?is_executed@subselect_single_select_engine@@UBEHXZ 004fc570 f i item_subselect.obj
 0001:000fb590       ??_Esubselect_single_select_engine@@UAEPAXI@Z 004fc590 f i item_subselect.obj
 0001:000fb590       ??_Gsubselect_single_select_engine@@UAEPAXI@Z 004fc590 f i item_subselect.obj
 0001:000fb5e0       ??1subselect_single_select_engine@@UAE@XZ 004fc5e0 f i item_subselect.obj
 0001:000fb610       ??_Gsubselect_union_engine@@UAEPAXI@Z 004fc610 f i item_subselect.obj
 0001:000fb610       ??_Esubselect_union_engine@@UAEPAXI@Z 004fc610 f i item_subselect.obj
 0001:000fb660       ??1subselect_union_engine@@UAE@XZ 004fc660 f i item_subselect.obj
 0001:000fb690       ??0JOIN@@QAE@PAVTHD@@AAV?$List@VItem@@@@_KPAVselect_result@@@Z 004fc690 f i item_subselect.obj
 0001:000fb7c0       ??0TMP_TABLE_PARAM@@QAE@XZ 004fc7c0 f i item_subselect.obj
 0001:000fb870       ?init@JOIN@@QAEXPAVTHD@@AAV?$List@VItem@@@@_KPAVselect_result@@@Z 004fc870 f i item_subselect.obj
 0001:000fbca0       ?assigned@Item_subselect@@QAEHXZ 004fcca0 f i item_subselect.obj
 0001:000fbcc0       ?assigned@Item_subselect@@QAEXH@Z 004fccc0 f i item_subselect.obj
 0001:000fbcf0       ?copy@store_key@@QAE?AW4store_key_result@1@XZ 004fccf0 f i item_subselect.obj
 0001:000fbda0       ?cols@subselect_uniquesubquery_engine@@UAEIXZ 004fcda0 f i item_subselect.obj
 0001:000fbdc0       ?uncacheable@subselect_uniquesubquery_engine@@UAEEXZ 004fcdc0 f i item_subselect.obj
 0001:000fbde0       ?upper_select_const_tables@subselect_uniquesubquery_engine@@UAE_KXZ 004fcde0 f i item_subselect.obj
 0001:000fbe00       ?no_rows@subselect_uniquesubquery_engine@@UAEHXZ 004fce00 f i item_subselect.obj
 0001:000fbe20       ??_Gsubselect_uniquesubquery_engine@@UAEPAXI@Z 004fce20 f i item_subselect.obj
 0001:000fbe20       ??_Esubselect_uniquesubquery_engine@@UAEPAXI@Z 004fce20 f i item_subselect.obj
 0001:000fbe70       ?is_prepared@st_select_lex_unit@@QAEHXZ 004fce70 f i item_subselect.obj
 0001:000fbea0       ?head@?$List@VItem@@@@QAEPAVItem@@XZ 004fcea0 f i item_subselect.obj
 0001:000fbed0       ??0?$List@VCached_item@@@@QAE@XZ 004fced0 f i item_subselect.obj
 0001:000fbf00       ??_9@$BOE@AE               004fcf00 f i item_subselect.obj
 0001:000fbf10       ?init_sum_func_check@Item_sum@@QAEHPAVTHD@@@Z 004fcf10 f   item_sum.obj
 0001:000fbfd0       ?check_sum_func@Item_sum@@QAEHPAVTHD@@PAPAVItem@@@Z 004fcfd0 f   item_sum.obj
 0001:000fc220       ?register_sum_func@Item_sum@@QAEHPAVTHD@@PAPAVItem@@@Z 004fd220 f   item_sum.obj
 0001:000fc480       ??0Item_sum@@QAE@AAV?$List@VItem@@@@@Z 004fd480 f   item_sum.obj
 0001:000fc580       ??0Item_sum@@QAE@PAVTHD@@PAV0@@Z 004fd580 f   item_sum.obj
 0001:000fc680       ?mark_as_sum_func@Item_sum@@QAEXXZ 004fd680 f   item_sum.obj
 0001:000fc6e0       ?make_field@Item_sum@@UAEXPAVSend_field@@@Z 004fd6e0 f   item_sum.obj
 0001:000fc7f0       ?print@Item_sum@@UAEXPAVString@@@Z 004fd7f0 f   item_sum.obj
 0001:000fc8b0       ?fix_num_length_and_dec@Item_sum@@QAEXXZ 004fd8b0 f   item_sum.obj
 0001:000fc950       ?get_tmp_table_item@Item_sum@@UAEPAVItem@@PAVTHD@@@Z 004fd950 f   item_sum.obj
 0001:000fcaa0       ?walk@Item_sum@@UAEHP8Item@@AEHPAE@Z0@Z 004fdaa0 f   item_sum.obj
 0001:000fcb50       ?create_tmp_field@Item_sum@@UAEPAVField@@HPAUst_table@@I@Z 004fdb50 f   item_sum.obj
 0001:000fcd60       ?update_used_tables@Item_sum@@UAEXXZ 004fdd60 f   item_sum.obj
 0001:000fce70       ?val_str@Item_sum_num@@UAEPAVString@@PAV2@@Z 004fde70 f   item_sum.obj
 0001:000fcea0       ?val_decimal@Item_sum_num@@UAEPAVmy_decimal@@PAV2@@Z 004fdea0 f   item_sum.obj
 0001:000fced0       ?val_str@Item_sum_int@@UAEPAVString@@PAV2@@Z 004fded0 f   item_sum.obj
 0001:000fcf00       ?val_decimal@Item_sum_int@@UAEPAVmy_decimal@@PAV2@@Z 004fdf00 f   item_sum.obj
 0001:000fcf30       ?fix_fields@Item_sum_num@@UAEHPAVTHD@@PAPAVItem@@@Z 004fdf30 f   item_sum.obj
 0001:000fd100       ??0Item_sum_hybrid@@QAE@PAVTHD@@PAV0@@Z 004fe100 f   item_sum.obj
 0001:000fd270       ?fix_fields@Item_sum_hybrid@@UAEHPAVTHD@@PAPAVItem@@@Z 004fe270 f   item_sum.obj
 0001:000fd500       ?create_tmp_field@Item_sum_hybrid@@UAEPAVField@@HPAUst_table@@I@Z 004fe500 f   item_sum.obj
 0001:000fd6f0       ??0Item_sum_sum@@QAE@PAVTHD@@PAV0@@Z 004fe6f0 f   item_sum.obj
 0001:000fd7c0       ?copy_or_same@Item_sum_sum@@UAEPAVItem@@PAVTHD@@@Z 004fe7c0 f   item_sum.obj
 0001:000fd830       ?clear@Item_sum_sum@@UAEXXZ 004fe830 f   item_sum.obj
 0001:000fd960       ?fix_length_and_dec@Item_sum_sum@@MAEXXZ 004fe960 f   item_sum.obj
 0001:000fdc00       ?add@Item_sum_sum@@UAEHXZ  004fec00 f   item_sum.obj
 0001:000fddf0       ?val_int@Item_sum_sum@@UAE_JXZ 004fedf0 f   item_sum.obj
 0001:000fdee0       ?val_real@Item_sum_sum@@UAENXZ 004feee0 f   item_sum.obj
 0001:000fdf60       ?val_str@Item_sum_sum@@UAEPAVString@@PAV2@@Z 004fef60 f   item_sum.obj
 0001:000fdfb0       ?val_decimal@Item_sum_sum@@UAEPAVmy_decimal@@PAV2@@Z 004fefb0 f   item_sum.obj
 0001:000fe000       ??0Item_sum_distinct@@QAE@PAVItem@@@Z 004ff000 f   item_sum.obj
 0001:000fe060       ??0Item_sum_distinct@@IAE@PAVTHD@@PAV0@@Z 004ff060 f   item_sum.obj
 0001:000fe0e0       ?instance@Hybrid_type_traits_fast_decimal@@SAPBU1@XZ 004ff0e0 f   item_sum.obj
 0001:000fe0f0       ?fix_length_and_dec@Item_sum_distinct@@UAEXXZ 004ff0f0 f   item_sum.obj
 0001:000fe290       ?setup@Item_sum_distinct@@UAEHPAVTHD@@@Z 004ff290 f   item_sum.obj
 0001:000fe600       ?add@Item_sum_distinct@@UAEHXZ 004ff600 f   item_sum.obj
 0001:000fe6d0       ?unique_walk_function@Item_sum_distinct@@UAEHPAX@Z 004ff6d0 f   item_sum.obj
 0001:000fe780       ?clear@Item_sum_distinct@@UAEXXZ 004ff780 f   item_sum.obj
 0001:000fe8b0       ?cleanup@Item_sum_distinct@@UAEXXZ 004ff8b0 f   item_sum.obj
 0001:000fe940       ??1Item_sum_distinct@@UAE@XZ 004ff940 f   item_sum.obj
 0001:000fe9b0       ?calculate_val_and_count@Item_sum_distinct@@UAEXXZ 004ff9b0 f   item_sum.obj
 0001:000feaa0       ?val_real@Item_sum_distinct@@UAENXZ 004ffaa0 f   item_sum.obj
 0001:000feb00       ?val_decimal@Item_sum_distinct@@UAEPAVmy_decimal@@PAV2@@Z 004ffb00 f   item_sum.obj
 0001:000feb80       ?val_int@Item_sum_distinct@@UAE_JXZ 004ffb80 f   item_sum.obj
 0001:000febf0       ?val_str@Item_sum_distinct@@UAEPAVString@@PAV2@@Z 004ffbf0 f   item_sum.obj
 0001:000fec70       ?fix_length_and_dec@Item_sum_avg_distinct@@UAEXXZ 004ffc70 f   item_sum.obj
 0001:000fecf0       ?calculate_val_and_count@Item_sum_avg_distinct@@UAEXXZ 004ffcf0 f   item_sum.obj
 0001:000fed90       ?copy_or_same@Item_sum_count@@UAEPAVItem@@PAVTHD@@@Z 004ffd90 f   item_sum.obj
 0001:000fee00       ?clear@Item_sum_count@@UAEXXZ 004ffe00 f   item_sum.obj
 0001:000fee30       ?add@Item_sum_count@@UAEHXZ 004ffe30 f   item_sum.obj
 0001:000feeb0       ?val_int@Item_sum_count@@UAE_JXZ 004ffeb0 f   item_sum.obj
 0001:000fef00       ?cleanup@Item_sum_count@@UAEXXZ 004fff00 f   item_sum.obj
 0001:000ff000       ?fix_length_and_dec@Item_sum_avg@@UAEXXZ 00500000 f   item_sum.obj
 0001:000ff1c0       ?copy_or_same@Item_sum_avg@@UAEPAVItem@@PAVTHD@@@Z 005001c0 f   item_sum.obj
 0001:000ff230       ?create_tmp_field@Item_sum_avg@@UAEPAVField@@HPAUst_table@@I@Z 00500230 f   item_sum.obj
 0001:000ff390       ?clear@Item_sum_avg@@UAEXXZ 00500390 f   item_sum.obj
 0001:000ff3d0       ?add@Item_sum_avg@@UAEHXZ  005003d0 f   item_sum.obj
 0001:000ff440       ?val_real@Item_sum_avg@@UAENXZ 00500440 f   item_sum.obj
 0001:000ff4e0       ?val_decimal@Item_sum_avg@@UAEPAVmy_decimal@@PAV2@@Z 005004e0 f   item_sum.obj
 0001:000ff610       ?val_str@Item_sum_avg@@UAEPAVString@@PAV2@@Z 00500610 f   item_sum.obj
 0001:000ff660       ?val_real@Item_sum_std@@UAENXZ 00500660 f   item_sum.obj
 0001:000ff6f0       ?copy_or_same@Item_sum_std@@UAEPAVItem@@PAVTHD@@@Z 005006f0 f   item_sum.obj
 0001:000ff760       ??0Item_sum_variance@@QAE@PAVTHD@@PAV0@@Z 00500760 f   item_sum.obj
 0001:000ff820       ?fix_length_and_dec@Item_sum_variance@@EAEXXZ 00500820 f   item_sum.obj
 0001:000ffaa0       ?copy_or_same@Item_sum_variance@@UAEPAVItem@@PAVTHD@@@Z 00500aa0 f   item_sum.obj
 0001:000ffb10       ?create_tmp_field@Item_sum_variance@@UAEPAVField@@HPAUst_table@@I@Z 00500b10 f   item_sum.obj
 0001:000ffbd0       ?clear@Item_sum_variance@@UAEXXZ 00500bd0 f   item_sum.obj
 0001:000ffc00       ?add@Item_sum_variance@@UAEHXZ 00500c00 f   item_sum.obj
 0001:000ffd60       ?val_real@Item_sum_variance@@UAENXZ 00500d60 f   item_sum.obj
 0001:000fff20       ?val_decimal@Item_sum_variance@@UAEPAVmy_decimal@@PAV2@@Z 00500f20 f   item_sum.obj
 0001:000fff70       ?reset_field@Item_sum_variance@@UAEXXZ 00500f70 f   item_sum.obj
 0001:00100050       ?update_field@Item_sum_variance@@UAEXXZ 00501050 f   item_sum.obj
 0001:001001d0       ?clear@Item_sum_hybrid@@UAEXXZ 005011d0 f   item_sum.obj
 0001:00100270       ?val_real@Item_sum_hybrid@@UAENXZ 00501270 f   item_sum.obj
 0001:00100450       ?val_int@Item_sum_hybrid@@UAE_JXZ 00501450 f   item_sum.obj
 0001:00100560       ?val_decimal@Item_sum_hybrid@@UAEPAVmy_decimal@@PAV2@@Z 00501560 f   item_sum.obj
 0001:00100680       ?val_str@Item_sum_hybrid@@UAEPAVString@@PAV2@@Z 00501680 f   item_sum.obj
 0001:001007e0       ?cleanup@Item_sum_hybrid@@UAEXXZ 005017e0 f   item_sum.obj
 0001:001008e0       ?no_rows_in_result@Item_sum_hybrid@@UAEXXZ 005018e0 f   item_sum.obj
 0001:00100930       ?copy_or_same@Item_sum_min@@UAEPAVItem@@PAVTHD@@@Z 00501930 f   item_sum.obj
 0001:001009a0       ?add@Item_sum_min@@UAEHXZ  005019a0 f   item_sum.obj
 0001:00100c80       ?copy_or_same@Item_sum_max@@UAEPAVItem@@PAVTHD@@@Z 00501c80 f   item_sum.obj
 0001:00100cf0       ?add@Item_sum_max@@UAEHXZ  00501cf0 f   item_sum.obj
 0001:00100fd0       ?val_int@Item_sum_bit@@UAE_JXZ 00501fd0 f   item_sum.obj
 0001:00101020       ?clear@Item_sum_bit@@UAEXXZ 00502020 f   item_sum.obj
 0001:00101050       ?copy_or_same@Item_sum_or@@UAEPAVItem@@PAVTHD@@@Z 00502050 f   item_sum.obj
 0001:001010c0       ?add@Item_sum_or@@UAEHXZ   005020c0 f   item_sum.obj
 0001:00101150       ?copy_or_same@Item_sum_xor@@UAEPAVItem@@PAVTHD@@@Z 00502150 f   item_sum.obj
 0001:001011c0       ?add@Item_sum_xor@@UAEHXZ  005021c0 f   item_sum.obj
 0001:00101250       ?copy_or_same@Item_sum_and@@UAEPAVItem@@PAVTHD@@@Z 00502250 f   item_sum.obj
 0001:001012c0       ?add@Item_sum_and@@UAEHXZ  005022c0 f   item_sum.obj
 0001:00101350       ?reset_field@Item_sum_num@@UAEXXZ 00502350 f   item_sum.obj
 0001:00101400       ?reset_field@Item_sum_hybrid@@UAEXXZ 00502400 f   item_sum.obj
 0001:001017d0       ?reset_field@Item_sum_sum@@UAEXXZ 005027d0 f   item_sum.obj
 0001:00101930       ?reset_field@Item_sum_count@@UAEXXZ 00502930 f   item_sum.obj
 0001:001019d0       ?reset_field@Item_sum_avg@@UAEXXZ 005029d0 f   item_sum.obj
 0001:00101b70       ?reset_field@Item_sum_bit@@UAEXXZ 00502b70 f   item_sum.obj
 0001:00101bc0       ?update_field@Item_sum_bit@@UAEXXZ 00502bc0 f   item_sum.obj
 0001:00101c40       ?update_field@Item_sum_sum@@UAEXXZ 00502c40 f   item_sum.obj
 0001:00101e70       ?update_field@Item_sum_count@@UAEXXZ 00502e70 f   item_sum.obj
 0001:00101f10       ?update_field@Item_sum_avg@@UAEXXZ 00502f10 f   item_sum.obj
 0001:00102130       ?update_field@Item_sum_hybrid@@UAEXXZ 00503130 f   item_sum.obj
 0001:001021a0       ?min_max_update_str_field@Item_sum_hybrid@@QAEXXZ 005031a0 f   item_sum.obj
 0001:001022a0       ?min_max_update_real_field@Item_sum_hybrid@@QAEXXZ 005032a0 f   item_sum.obj
 0001:001023f0       ?min_max_update_int_field@Item_sum_hybrid@@QAEXXZ 005033f0 f   item_sum.obj
 0001:00102590       ?min_max_update_decimal_field@Item_sum_hybrid@@QAEXXZ 00503590 f   item_sum.obj
 0001:00102730       ??0Item_avg_field@@QAE@W4Item_result@@PAVItem_sum_avg@@@Z 00503730 f   item_sum.obj
 0001:00102800       ?val_real@Item_avg_field@@UAENXZ 00503800 f   item_sum.obj
 0001:001028c0       ?val_int@Item_avg_field@@UAE_JXZ 005038c0 f   item_sum.obj
 0001:00102910       ?val_decimal@Item_avg_field@@UAEPAVmy_decimal@@PAV2@@Z 00503910 f   item_sum.obj
 0001:00102a70       ?val_str@Item_avg_field@@UAEPAVString@@PAV2@@Z 00503a70 f   item_sum.obj
 0001:00102ac0       ??0Item_std_field@@QAE@PAVItem_sum_std@@@Z 00503ac0 f   item_sum.obj
 0001:00102b00       ?val_real@Item_std_field@@UAENXZ 00503b00 f   item_sum.obj
 0001:00102b70       ?val_decimal@Item_std_field@@UAEPAVmy_decimal@@PAV2@@Z 00503b70 f   item_sum.obj
 0001:00102ca0       ??0Item_variance_field@@QAE@PAVItem_sum_variance@@@Z 00503ca0 f   item_sum.obj
 0001:00102db0       ?val_real@Item_variance_field@@UAENXZ 00503db0 f   item_sum.obj
 0001:00102ea0       ?simple_str_key_cmp@@YAHPAXPAE1@Z 00503ea0 f   item_sum.obj
 0001:00102ee0       ?composite_key_cmp@@YAHPAXPAE1@Z 00503ee0 f   item_sum.obj
 0001:00102fc0       ?cleanup@Item_sum_count_distinct@@UAEXXZ 00503fc0 f   item_sum.obj
 0001:00103180       ?make_unique@Item_sum_count_distinct@@UAEXXZ 00504180 f   item_sum.obj
 0001:001031f0       ??1Item_sum_count_distinct@@UAE@XZ 005041f0 f   item_sum.obj
 0001:00103230       ?setup@Item_sum_count_distinct@@UAEHPAVTHD@@@Z 00504230 f   item_sum.obj
 0001:00103820       ?copy_or_same@Item_sum_count_distinct@@UAEPAVItem@@PAVTHD@@@Z 00504820 f   item_sum.obj
 0001:00103890       ?clear@Item_sum_count_distinct@@UAEXXZ 00504890 f   item_sum.obj
 0001:00103970       ?add@Item_sum_count_distinct@@UAEHXZ 00504970 f   item_sum.obj
 0001:00103ab0       ?val_int@Item_sum_count_distinct@@UAE_JXZ 00504ab0 f   item_sum.obj
 0001:00103c50       ?clear@Item_udf_sum@@UAEXXZ 00504c50 f   item_sum.obj
 0001:00103d40       ?add@Item_udf_sum@@UAEHXZ  00504d40 f   item_sum.obj
 0001:00103e40       ?cleanup@Item_udf_sum@@UAEXXZ 00504e40 f   item_sum.obj
 0001:00103e80       ?print@Item_udf_sum@@UAEXPAVString@@@Z 00504e80 f   item_sum.obj
 0001:00103f40       ?copy_or_same@Item_sum_udf_float@@UAEPAVItem@@PAVTHD@@@Z 00504f40 f   item_sum.obj
 0001:00103fb0       ?val_real@Item_sum_udf_float@@UAENXZ 00504fb0 f   item_sum.obj
 0001:00104120       ?val_str@Item_sum_udf_float@@UAEPAVString@@PAV2@@Z 00505120 f   item_sum.obj
 0001:00104150       ?val_decimal@Item_sum_udf_float@@UAEPAVmy_decimal@@PAV2@@Z 00505150 f   item_sum.obj
 0001:00104180       ?val_str@Item_sum_udf_decimal@@UAEPAVString@@PAV2@@Z 00505180 f   item_sum.obj
 0001:001041b0       ?val_real@Item_sum_udf_decimal@@UAENXZ 005051b0 f   item_sum.obj
 0001:001041e0       ?val_int@Item_sum_udf_decimal@@UAE_JXZ 005051e0 f   item_sum.obj
 0001:00104210       ?val_decimal@Item_sum_udf_decimal@@UAEPAVmy_decimal@@PAV2@@Z 00505210 f   item_sum.obj
 0001:00104380       ?copy_or_same@Item_sum_udf_decimal@@UAEPAVItem@@PAVTHD@@@Z 00505380 f   item_sum.obj
 0001:001043f0       ?copy_or_same@Item_sum_udf_int@@UAEPAVItem@@PAVTHD@@@Z 005053f0 f   item_sum.obj
 0001:00104460       ?val_int@Item_sum_udf_int@@UAE_JXZ 00505460 f   item_sum.obj
 0001:001045d0       ?val_str@Item_sum_udf_int@@UAEPAVString@@PAV2@@Z 005055d0 f   item_sum.obj
 0001:00104600       ?val_decimal@Item_sum_udf_int@@UAEPAVmy_decimal@@PAV2@@Z 00505600 f   item_sum.obj
 0001:00104630       ?fix_length_and_dec@Item_sum_udf_str@@UAEXXZ 00505630 f   item_sum.obj
 0001:00104770       ?copy_or_same@Item_sum_udf_str@@UAEPAVItem@@PAVTHD@@@Z 00505770 f   item_sum.obj
 0001:001047e0       ?val_decimal@Item_sum_udf_str@@UAEPAVmy_decimal@@PAV2@@Z 005057e0 f   item_sum.obj
 0001:00104810       ?val_str@Item_sum_udf_str@@UAEPAVString@@PAV2@@Z 00505810 f   item_sum.obj
 0001:00104940       ?group_concat_key_cmp_with_distinct@@YAHPAXPAE1@Z 00505940 f   item_sum.obj
 0001:00104a50       ?group_concat_key_cmp_with_order@@YAHPAXPAE1@Z 00505a50 f   item_sum.obj
 0001:00104b80       ?group_concat_key_cmp_with_distinct_and_order@@YAHPAXPAE1@Z 00505b80 f   item_sum.obj
 0001:00104bc0       ?dump_leaf_key@@YAHPAEKPAVItem_func_group_concat@@@Z 00505bc0 f   item_sum.obj
 0001:00104e90       ??0Item_func_group_concat@@QAE@PAUName_resolution_context@@HPAV?$List@VItem@@@@PAUst_sql_list@@PAVString@@@Z 00505e90 f   item_sum.obj
 0001:001050e0       ??0Item_func_group_concat@@QAE@PAVTHD@@PAV0@@Z 005060e0 f   item_sum.obj
 0001:00105260       ?cleanup@Item_func_group_concat@@UAEXXZ 00506260 f   item_sum.obj
 0001:00105550       ?copy_or_same@Item_func_group_concat@@UAEPAVItem@@PAVTHD@@@Z 00506550 f   item_sum.obj
 0001:001055c0       ?clear@Item_func_group_concat@@UAEXXZ 005065c0 f   item_sum.obj
 0001:00105640       ?add@Item_func_group_concat@@UAEHXZ 00506640 f   item_sum.obj
 0001:00105800       ?fix_fields@Item_func_group_concat@@UAEHPAVTHD@@PAPAVItem@@@Z 00506800 f   item_sum.obj
 0001:00105b40       ?setup@Item_func_group_concat@@UAEHPAVTHD@@@Z 00506b40 f   item_sum.obj
 0001:00106190       ?make_unique@Item_func_group_concat@@UAEXXZ 00507190 f   item_sum.obj
 0001:001061f0       ?val_str@Item_func_group_concat@@UAEPAVString@@PAV2@@Z 005071f0 f   item_sum.obj
 0001:00106300       ?print@Item_func_group_concat@@UAEXPAVString@@@Z 00507300 f   item_sum.obj
 0001:00108e20       ??0Field_double@@QAE@KHPBDPAUst_table@@ED@Z 00509e20 f i item_sum.obj
 0001:00108ea0       ??0Item_sum_num@@QAE@PAVTHD@@PAV0@@Z 00509ea0 f i item_sum.obj
 0001:00108f00       ?val_int@Item_sum_num@@UAE_JXZ 00509f00 f i item_sum.obj
 0001:00108f90       ??_GItem_sum_num@@UAEPAXI@Z 00509f90 f i item_sum.obj
 0001:00108f90       ??_EItem_sum_num@@UAEPAXI@Z 00509f90 f i item_sum.obj
 0001:00108ff0       ??1Item_sum_num@@UAE@XZ    00509ff0 f i item_sum.obj
 0001:00109020       ?sum_func@Item_sum_sum@@UBE?AW4Sumfunctype@Item_sum@@XZ 0050a020 f i item_sum.obj
 0001:00109040       ?result_type@Item_sum_sum@@UBE?AW4Item_result@@XZ 0050a040 f i item_sum.obj
 0001:00109070       ?no_rows_in_result@Item_sum_sum@@UAEXXZ 0050a070 f i item_sum.obj
 0001:00109090       ?func_name@Item_sum_sum@@UBEPBDXZ 0050a090 f i item_sum.obj
 0001:001090b0       ??_GItem_sum_sum@@UAEPAXI@Z 0050a0b0 f i item_sum.obj
 0001:001090b0       ??_EItem_sum_sum@@UAEPAXI@Z 0050a0b0 f i item_sum.obj
 0001:00109110       ??1Item_sum_sum@@UAE@XZ    0050a110 f i item_sum.obj
 0001:00109140       ??2Item@@SAPAXIPAUst_mem_root@@@Z 0050a140 f i item_sum.obj
 0001:00109170       ??0Hybrid_type@@QAE@XZ     0050a170 f i item_sum.obj
 0001:001091c0       ??0Item_sum_num@@QAE@PAVItem@@@Z 0050a1c0 f i item_sum.obj
 0001:00109220       ?sum_func@Item_sum_distinct@@UBE?AW4Sumfunctype@Item_sum@@XZ 0050a220 f i item_sum.obj
 0001:00109240       ?reset_field@Item_sum_distinct@@UAEXXZ 0050a240 f i item_sum.obj
 0001:00109260       ?update_field@Item_sum_distinct@@UAEXXZ 0050a260 f i item_sum.obj
 0001:00109280       ?no_rows_in_result@Item_sum_distinct@@UAEXXZ 0050a280 f i item_sum.obj
 0001:001092a0       ?result_type@Item_sum_distinct@@UBE?AW4Item_result@@XZ 0050a2a0 f i item_sum.obj
 0001:001092f0       ??_EItem_sum_distinct@@UAEPAXI@Z 0050a2f0 f i item_sum.obj
 0001:001092f0       ??_GItem_sum_distinct@@UAEPAXI@Z 0050a2f0 f i item_sum.obj
 0001:00109350       ??0Hybrid_type@@QAE@ABU0@@Z 0050a350 f i item_sum.obj
 0001:001093b0       ??0create_field@@QAE@XZ    0050a3b0 f i item_sum.obj
 0001:00109400       ??1create_field@@QAE@XZ    0050a400 f i item_sum.obj
 0001:00109440       ?unique_add@Unique@@QAEHPAX@Z 0050a440 f i item_sum.obj
 0001:00109630       ??_GUnique@@QAEPAXI@Z      0050a630 f i item_sum.obj
 0001:00109690       ??0Item_sum_count@@QAE@PAVTHD@@PAV0@@Z 0050a690 f i item_sum.obj
 0001:00109700       ??0Item_sum_int@@QAE@PAVTHD@@PAV0@@Z 0050a700 f i item_sum.obj
 0001:00109750       ?val_real@Item_sum_int@@UAENXZ 0050a750 f i item_sum.obj
 0001:001097e0       ?result_type@Item_sum_int@@UBE?AW4Item_result@@XZ 0050a7e0 f i item_sum.obj
 0001:00109800       ?fix_length_and_dec@Item_sum_int@@UAEXXZ 0050a800 f i item_sum.obj
 0001:00109840       ??_GItem_sum_int@@UAEPAXI@Z 0050a840 f i item_sum.obj
 0001:00109840       ??_EItem_sum_int@@UAEPAXI@Z 0050a840 f i item_sum.obj
 0001:001098a0       ??1Item_sum_int@@UAE@XZ    0050a8a0 f i item_sum.obj
 0001:001098d0       ?sum_func@Item_sum_count@@UBE?AW4Sumfunctype@Item_sum@@XZ 0050a8d0 f i item_sum.obj
 0001:001098f0       ?no_rows_in_result@Item_sum_count@@UAEXXZ 0050a8f0 f i item_sum.obj
 0001:00109930       ?func_name@Item_sum_count@@UBEPBDXZ 0050a930 f i item_sum.obj
 0001:00109950       ??_GItem_sum_count@@UAEPAXI@Z 0050a950 f i item_sum.obj
 0001:00109950       ??_EItem_sum_count@@UAEPAXI@Z 0050a950 f i item_sum.obj
 0001:001099b0       ??1Item_sum_count@@UAE@XZ  0050a9b0 f i item_sum.obj
 0001:001099e0       ??0Item_sum_avg@@QAE@PAVTHD@@PAV0@@Z 0050a9e0 f i item_sum.obj
 0001:00109a70       ?sum_func@Item_sum_avg@@UBE?AW4Sumfunctype@Item_sum@@XZ 0050aa70 f i item_sum.obj
 0001:00109a90       ?val_int@Item_sum_avg@@UAE_JXZ 0050aa90 f i item_sum.obj
 0001:00109af0       ?result_item@Item_sum_avg@@UAEPAVItem@@PAVField@@@Z 0050aaf0 f i item_sum.obj
 0001:00109b70       ?no_rows_in_result@Item_sum_avg@@UAEXXZ 0050ab70 f i item_sum.obj
 0001:00109b90       ?func_name@Item_sum_avg@@UBEPBDXZ 0050ab90 f i item_sum.obj
 0001:00109bb0       ?cleanup@Item_sum_avg@@UAEXXZ 0050abb0 f i item_sum.obj
 0001:00109c00       ??_EItem_sum_avg@@UAEPAXI@Z 0050ac00 f i item_sum.obj
 0001:00109c00       ??_GItem_sum_avg@@UAEPAXI@Z 0050ac00 f i item_sum.obj
 0001:00109c60       ??1Item_sum_avg@@UAE@XZ    0050ac60 f i item_sum.obj
 0001:00109c90       ??0Item_sum_std@@QAE@PAVTHD@@PAV0@@Z 0050ac90 f i item_sum.obj
 0001:00109ce0       ?no_rows_in_result@Item_sum_variance@@UAEXXZ 0050ace0 f i item_sum.obj
 0001:00109d00       ?cleanup@Item_sum_variance@@UAEXXZ 0050ad00 f i item_sum.obj
 0001:00109d50       ?sum_func@Item_sum_std@@UBE?AW4Sumfunctype@Item_sum@@XZ 0050ad50 f i item_sum.obj
 0001:00109d70       ?result_item@Item_sum_std@@UAEPAVItem@@PAVField@@@Z 0050ad70 f i item_sum.obj
 0001:00109df0       ?func_name@Item_sum_std@@UBEPBDXZ 0050adf0 f i item_sum.obj
 0001:00109e10       ?result_type@Item_sum_std@@UBE?AW4Item_result@@XZ 0050ae10 f i item_sum.obj
 0001:00109e30       ?field_type@Item_sum_std@@UBE?AW4enum_field_types@@XZ 0050ae30 f i item_sum.obj
 0001:00109e50       ??_GItem_sum_std@@UAEPAXI@Z 0050ae50 f i item_sum.obj
 0001:00109e50       ??_EItem_sum_std@@UAEPAXI@Z 0050ae50 f i item_sum.obj
 0001:00109eb0       ??1Item_sum_std@@UAE@XZ    0050aeb0 f i item_sum.obj
 0001:00109ee0       ??1Item_sum_variance@@UAE@XZ 0050aee0 f i item_sum.obj
 0001:00109f10       ?sum_func@Item_sum_variance@@UBE?AW4Sumfunctype@Item_sum@@XZ 0050af10 f i item_sum.obj
 0001:00109f30       ?result_item@Item_sum_variance@@UAEPAVItem@@PAVField@@@Z 0050af30 f i item_sum.obj
 0001:00109fb0       ?func_name@Item_sum_variance@@UBEPBDXZ 0050afb0 f i item_sum.obj
 0001:0010a000       ?result_type@Item_sum_variance@@UBE?AW4Item_result@@XZ 0050b000 f i item_sum.obj
 0001:0010a020       ??_GItem_sum_variance@@UAEPAXI@Z 0050b020 f i item_sum.obj
 0001:0010a020       ??_EItem_sum_variance@@UAEPAXI@Z 0050b020 f i item_sum.obj
 0001:0010a080       ??0Item_sum_min@@QAE@PAVTHD@@PAV0@@Z 0050b080 f i item_sum.obj
 0001:0010a0d0       ??0Item_sum_max@@QAE@PAVTHD@@PAV0@@Z 0050b0d0 f i item_sum.obj
 0001:0010a120       ??0Item_sum_or@@QAE@PAVTHD@@PAV0@@Z 0050b120 f i item_sum.obj
 0001:0010a170       ??0Item_sum_bit@@QAE@PAVTHD@@PAV0@@Z 0050b170 f i item_sum.obj
 0001:0010a210       ?sum_func@Item_sum_bit@@UBE?AW4Sumfunctype@Item_sum@@XZ 0050b210 f i item_sum.obj
 0001:0010a230       ?fix_length_and_dec@Item_sum_bit@@UAEXXZ 0050b230 f i item_sum.obj
 0001:0010a280       ?cleanup@Item_sum_bit@@UAEXXZ 0050b280 f i item_sum.obj
 0001:0010a2e0       ??_EItem_sum_bit@@UAEPAXI@Z 0050b2e0 f i item_sum.obj
 0001:0010a2e0       ??_GItem_sum_bit@@UAEPAXI@Z 0050b2e0 f i item_sum.obj
 0001:0010a340       ??1Item_sum_bit@@UAE@XZ    0050b340 f i item_sum.obj
 0001:0010a370       ?func_name@Item_sum_or@@UBEPBDXZ 0050b370 f i item_sum.obj
 0001:0010a390       ??_EItem_sum_or@@UAEPAXI@Z 0050b390 f i item_sum.obj
 0001:0010a390       ??_GItem_sum_or@@UAEPAXI@Z 0050b390 f i item_sum.obj
 0001:0010a3f0       ??1Item_sum_or@@UAE@XZ     0050b3f0 f i item_sum.obj
 0001:0010a420       ??0Item_sum_xor@@QAE@PAVTHD@@PAV0@@Z 0050b420 f i item_sum.obj
 0001:0010a470       ?func_name@Item_sum_xor@@UBEPBDXZ 0050b470 f i item_sum.obj
 0001:0010a490       ??_GItem_sum_xor@@UAEPAXI@Z 0050b490 f i item_sum.obj
 0001:0010a490       ??_EItem_sum_xor@@UAEPAXI@Z 0050b490 f i item_sum.obj
 0001:0010a4f0       ??1Item_sum_xor@@UAE@XZ    0050b4f0 f i item_sum.obj
 0001:0010a520       ??0Item_sum_and@@QAE@PAVTHD@@PAV0@@Z 0050b520 f i item_sum.obj
 0001:0010a570       ?func_name@Item_sum_and@@UBEPBDXZ 0050b570 f i item_sum.obj
 0001:0010a590       ??_GItem_sum_and@@UAEPAXI@Z 0050b590 f i item_sum.obj
 0001:0010a590       ??_EItem_sum_and@@UAEPAXI@Z 0050b590 f i item_sum.obj
 0001:0010a5f0       ??1Item_sum_and@@UAE@XZ    0050b5f0 f i item_sum.obj
 0001:0010a620       ?reset@Item_sum@@QAEHXZ    0050b620 f i item_sum.obj
 0001:0010a680       ?type@Item_avg_field@@UBE?AW4Type@Item@@XZ 0050b680 f i item_sum.obj
 0001:0010a6a0       ?is_null@Item_avg_field@@UAEHXZ 0050b6a0 f i item_sum.obj
 0001:0010a6f0       ?field_type@Item_avg_field@@UBE?AW4enum_field_types@@XZ 0050b6f0 f i item_sum.obj
 0001:0010a730       ?fix_length_and_dec@Item_avg_field@@UAEXXZ 0050b730 f i item_sum.obj
 0001:0010a750       ?result_type@Item_avg_field@@UBE?AW4Item_result@@XZ 0050b750 f i item_sum.obj
 0001:0010a770       ??_GItem_avg_field@@UAEPAXI@Z 0050b770 f i item_sum.obj
 0001:0010a770       ??_EItem_avg_field@@UAEPAXI@Z 0050b770 f i item_sum.obj
 0001:0010a7c0       ??1Item_avg_field@@UAE@XZ  0050b7c0 f i item_sum.obj
 0001:0010a7f0       ?val_int@Item_variance_field@@UAE_JXZ 0050b7f0 f i item_sum.obj
 0001:0010a850       ?val_str@Item_variance_field@@UAEPAVString@@PAV2@@Z 0050b850 f i item_sum.obj
 0001:0010a890       ?is_null@Item_variance_field@@UAEHXZ 0050b890 f i item_sum.obj
 0001:0010a8e0       ?fix_length_and_dec@Item_variance_field@@UAEXXZ 0050b8e0 f i item_sum.obj
 0001:0010a900       ?type@Item_std_field@@UBE?AW4Type@Item@@XZ 0050b900 f i item_sum.obj
 0001:0010a920       ?result_type@Item_std_field@@UBE?AW4Item_result@@XZ 0050b920 f i item_sum.obj
 0001:0010a940       ?field_type@Item_std_field@@UBE?AW4enum_field_types@@XZ 0050b940 f i item_sum.obj
 0001:0010a960       ??_EItem_std_field@@UAEPAXI@Z 0050b960 f i item_sum.obj
 0001:0010a960       ??_GItem_std_field@@UAEPAXI@Z 0050b960 f i item_sum.obj
 0001:0010a9b0       ??1Item_std_field@@UAE@XZ  0050b9b0 f i item_sum.obj
 0001:0010a9e0       ??1Item_variance_field@@UAE@XZ 0050b9e0 f i item_sum.obj
 0001:0010aa10       ?val_decimal@Item_variance_field@@UAEPAVmy_decimal@@PAV2@@Z 0050ba10 f i item_sum.obj
 0001:0010aa50       ?type@Item_variance_field@@UBE?AW4Type@Item@@XZ 0050ba50 f i item_sum.obj
 0001:0010aa70       ?field_type@Item_variance_field@@UBE?AW4enum_field_types@@XZ 0050ba70 f i item_sum.obj
 0001:0010aab0       ?result_type@Item_variance_field@@UBE?AW4Item_result@@XZ 0050bab0 f i item_sum.obj
 0001:0010aad0       ??_GItem_variance_field@@UAEPAXI@Z 0050bad0 f i item_sum.obj
 0001:0010aad0       ??_EItem_variance_field@@UAEPAXI@Z 0050bad0 f i item_sum.obj
 0001:0010ab20       ??_GTMP_TABLE_PARAM@@QAEPAXI@Z 0050bb20 f i item_sum.obj
 0001:0010ab70       ??1TMP_TABLE_PARAM@@QAE@XZ 0050bb70 f i item_sum.obj
 0001:0010abc0       ?cleanup@TMP_TABLE_PARAM@@QAEXXZ 0050bbc0 f i item_sum.obj
 0001:0010ac50       ??_ECopy_field@@QAEPAXI@Z  0050bc50 f i item_sum.obj
 0001:0010acf0       ??1Copy_field@@QAE@XZ      0050bcf0 f i item_sum.obj
 0001:0010ad30       ?sum_func@Item_sum_count_distinct@@UBE?AW4Sumfunctype@Item_sum@@XZ 0050bd30 f i item_sum.obj
 0001:0010ad50       ?reset_field@Item_sum_count_distinct@@UAEXXZ 0050bd50 f i item_sum.obj
 0001:0010ad70       ?update_field@Item_sum_count_distinct@@UAEXXZ 0050bd70 f i item_sum.obj
 0001:0010ad90       ?func_name@Item_sum_count_distinct@@UBEPBDXZ 0050bd90 f i item_sum.obj
 0001:0010adb0       ?no_rows_in_result@Item_sum_count_distinct@@UAEXXZ 0050bdb0 f i item_sum.obj
 0001:0010add0       ??_EItem_sum_count_distinct@@UAEPAXI@Z 0050bdd0 f i item_sum.obj
 0001:0010add0       ??_GItem_sum_count_distinct@@UAEPAXI@Z 0050bdd0 f i item_sum.obj
 0001:0010ae30       ??0Item_sum_count_distinct@@QAE@PAVTHD@@PAV0@@Z 0050be30 f i item_sum.obj
 0001:0010af50       ?elements_in_tree@Unique@@QAEKXZ 0050bf50 f i item_sum.obj
 0001:0010af80       ?clear@udf_handler@@QAEXXZ 0050bf80 f i item_sum.obj
 0001:0010b000       ?add@udf_handler@@QAEXPAD@Z 0050c000 f i item_sum.obj
 0001:0010b0d0       ??0Item_sum_udf_float@@QAE@PAVTHD@@PAV0@@Z 0050c0d0 f i item_sum.obj
 0001:0010b120       ??0Item_udf_sum@@QAE@PAVTHD@@PAV0@@Z 0050c120 f i item_sum.obj
 0001:0010b1a0       ?func_name@Item_udf_sum@@UBEPBDXZ 0050c1a0 f i item_sum.obj
 0001:0010b1e0       ?name@udf_handler@@QBEPBDXZ 0050c1e0 f i item_sum.obj
 0001:0010b230       ?fix_fields@Item_udf_sum@@UAEHPAVTHD@@PAPAVItem@@@Z 0050c230 f i item_sum.obj
 0001:0010b300       ?sum_func@Item_udf_sum@@UBE?AW4Sumfunctype@Item_sum@@XZ 0050c300 f i item_sum.obj
 0001:0010b320       ?have_field_update@Item_udf_sum@@UBEHXZ 0050c320 f i item_sum.obj
 0001:0010b340       ?reset_field@Item_udf_sum@@UAEXXZ 0050c340 f i item_sum.obj
 0001:0010b360       ?update_field@Item_udf_sum@@UAEXXZ 0050c360 f i item_sum.obj
 0001:0010b380       ??_GItem_udf_sum@@UAEPAXI@Z 0050c380 f i item_sum.obj
 0001:0010b380       ??_EItem_udf_sum@@UAEPAXI@Z 0050c380 f i item_sum.obj
 0001:0010b3e0       ??1Item_udf_sum@@UAE@XZ    0050c3e0 f i item_sum.obj
 0001:0010b420       ?val_int@Item_sum_udf_float@@UAE_JXZ 0050c420 f i item_sum.obj
 0001:0010b490       ?fix_length_and_dec@Item_sum_udf_float@@UAEXXZ 0050c490 f i item_sum.obj
 0001:0010b4c0       ??_GItem_sum_udf_float@@UAEPAXI@Z 0050c4c0 f i item_sum.obj
 0001:0010b4c0       ??_EItem_sum_udf_float@@UAEPAXI@Z 0050c4c0 f i item_sum.obj
 0001:0010b520       ??1Item_sum_udf_float@@UAE@XZ 0050c520 f i item_sum.obj
 0001:0010b550       ??0Item_sum_udf_decimal@@QAE@PAVTHD@@PAV0@@Z 0050c550 f i item_sum.obj
 0001:0010b5a0       ?result_type@Item_sum_udf_decimal@@UBE?AW4Item_result@@XZ 0050c5a0 f i item_sum.obj
 0001:0010b5c0       ?fix_length_and_dec@Item_sum_udf_decimal@@UAEXXZ 0050c5c0 f i item_sum.obj
 0001:0010b5f0       ??_GItem_sum_udf_decimal@@UAEPAXI@Z 0050c5f0 f i item_sum.obj
 0001:0010b5f0       ??_EItem_sum_udf_decimal@@UAEPAXI@Z 0050c5f0 f i item_sum.obj
 0001:0010b650       ??1Item_sum_udf_decimal@@UAE@XZ 0050c650 f i item_sum.obj
 0001:0010b680       ??0Item_sum_udf_int@@QAE@PAVTHD@@PAV0@@Z 0050c680 f i item_sum.obj
 0001:0010b6d0       ?val_real@Item_sum_udf_int@@UAENXZ 0050c6d0 f i item_sum.obj
 0001:0010b750       ?result_type@Item_sum_udf_int@@UBE?AW4Item_result@@XZ 0050c750 f i item_sum.obj
 0001:0010b770       ?fix_length_and_dec@Item_sum_udf_int@@UAEXXZ 0050c770 f i item_sum.obj
 0001:0010b7a0       ??_GItem_sum_udf_int@@UAEPAXI@Z 0050c7a0 f i item_sum.obj
 0001:0010b7a0       ??_EItem_sum_udf_int@@UAEPAXI@Z 0050c7a0 f i item_sum.obj
 0001:0010b800       ??1Item_sum_udf_int@@UAE@XZ 0050c800 f i item_sum.obj
 0001:0010b830       ??0Item_sum_udf_str@@QAE@PAVTHD@@PAV0@@Z 0050c830 f i item_sum.obj
 0001:0010b880       ?val_real@Item_sum_udf_str@@UAENXZ 0050c880 f i item_sum.obj
 0001:0010b9b0       ?val_int@Item_sum_udf_str@@UAE_JXZ 0050c9b0 f i item_sum.obj
 0001:0010bae0       ?result_type@Item_sum_udf_str@@UBE?AW4Item_result@@XZ 0050cae0 f i item_sum.obj
 0001:0010bb00       ??_EItem_sum_udf_str@@UAEPAXI@Z 0050cb00 f i item_sum.obj
 0001:0010bb00       ??_GItem_sum_udf_str@@UAEPAXI@Z 0050cb00 f i item_sum.obj
 0001:0010bb60       ??1Item_sum_udf_str@@UAE@XZ 0050cb60 f i item_sum.obj
 0001:0010bb90       ??0Item_sum@@QAE@XZ        0050cb90 f i item_sum.obj
 0001:0010bc00       ?sum_func@Item_func_group_concat@@UBE?AW4Sumfunctype@Item_sum@@XZ 0050cc00 f i item_sum.obj
 0001:0010bc20       ?func_name@Item_func_group_concat@@UBEPBDXZ 0050cc20 f i item_sum.obj
 0001:0010bc40       ?result_type@Item_func_group_concat@@UBE?AW4Item_result@@XZ 0050cc40 f i item_sum.obj
 0001:0010bc60       ?field_type@Item_func_group_concat@@UBE?AW4enum_field_types@@XZ 0050cc60 f i item_sum.obj
 0001:0010bcb0       ?reset_field@Item_func_group_concat@@UAEXXZ 0050ccb0 f i item_sum.obj
 0001:0010bd00       ?update_field@Item_func_group_concat@@UAEXXZ 0050cd00 f i item_sum.obj
 0001:0010bd50       ?val_real@Item_func_group_concat@@UAENXZ 0050cd50 f i item_sum.obj
 0001:0010bde0       ?val_int@Item_func_group_concat@@UAE_JXZ 0050cde0 f i item_sum.obj
 0001:0010bef0       ?val_decimal@Item_func_group_concat@@UAEPAVmy_decimal@@PAV2@@Z 0050cef0 f i item_sum.obj
 0001:0010bf30       ?no_rows_in_result@Item_func_group_concat@@UAEXXZ 0050cf30 f i item_sum.obj
 0001:0010bf50       ?change_context_processor@Item_func_group_concat@@UAEHPAE@Z 0050cf50 f i item_sum.obj
 0001:0010bf80       ??_EItem_func_group_concat@@UAEPAXI@Z 0050cf80 f i item_sum.obj
 0001:0010bf80       ??_GItem_func_group_concat@@UAEPAXI@Z 0050cf80 f i item_sum.obj
 0001:0010bfe0       ??1Item_func_group_concat@@UAE@XZ 0050cfe0 f i item_sum.obj
 0001:0010c030       ?is_null_in_record@Field@@QAEHPBE@Z 0050d030 f i item_sum.obj
 0001:0010c090       ??2String@@SAPAXIPAUst_mem_root@@@Z 0050d090 f i item_sum.obj
 0001:0010c0c0       ??0?$List@Vcreate_field@@@@QAE@XZ 0050d0c0 f i item_sum.obj
 0001:0010c0f0       ?push_back@?$List@Vcreate_field@@@@QAEHPAVcreate_field@@@Z 0050d0f0 f i item_sum.obj
 0001:0010c130       ??0Hybrid_type_traits_fast_decimal@@QAE@XZ 0050d130 f i item_sum.obj
 0001:0010c170       ?type@Hybrid_type_traits_fast_decimal@@UBE?AW4Item_result@@XZ 0050d170 f i item_sum.obj
 0001:0010c190       ?fix_length_and_dec@Hybrid_type_traits_fast_decimal@@UBEXPAVItem@@0@Z 0050d190 f i item_sum.obj
 0001:0010c1f0       ?div@Hybrid_type_traits_fast_decimal@@UBEXPAUHybrid_type@@_K@Z 0050d1f0 f i item_sum.obj
 0001:0010c2a0       ??_GHybrid_type_traits_fast_decimal@@UAEPAXI@Z 0050d2a0 f i item_sum.obj
 0001:0010c2a0       ??_EHybrid_type_traits_fast_decimal@@UAEPAXI@Z 0050d2a0 f i item_sum.obj
 0001:0010c2f0       ??1Hybrid_type_traits_fast_decimal@@UAE@XZ 0050d2f0 f i item_sum.obj
 0001:0010c320       ?make_date_time@@YAHPAUst_date_time_format@@PAUst_mysql_time@@W4enum_mysql_timestamp_type@@PAVString@@@Z 0050d320 f   item_timefunc.obj
 0001:0010cd90       ?calc_time_diff@@YAHPAUst_mysql_time@@0HPA_JPAJ@Z 0050dd90 f   item_timefunc.obj
 0001:0010cf50       ?val_int@Item_func_period_add@@UAE_JXZ 0050df50 f   item_timefunc.obj
 0001:0010d050       ?val_int@Item_func_period_diff@@UAE_JXZ 0050e050 f   item_timefunc.obj
 0001:0010d150       ?val_int@Item_func_to_days@@UAE_JXZ 0050e150 f   item_timefunc.obj
 0001:0010d200       ?val_int@Item_func_dayofyear@@UAE_JXZ 0050e200 f   item_timefunc.obj
 0001:0010d2d0       ?val_int@Item_func_dayofmonth@@UAE_JXZ 0050e2d0 f   item_timefunc.obj
 0001:0010d360       ?val_int@Item_func_month@@UAE_JXZ 0050e360 f   item_timefunc.obj
 0001:0010d3f0       ?val_str@Item_func_monthname@@UAEPAVString@@PAV2@@Z 0050e3f0 f   item_timefunc.obj
 0001:0010d4c0       ?val_int@Item_func_quarter@@UAE_JXZ 0050e4c0 f   item_timefunc.obj
 0001:0010d570       ?val_int@Item_func_hour@@UAE_JXZ 0050e570 f   item_timefunc.obj
 0001:0010d600       ?val_int@Item_func_minute@@UAE_JXZ 0050e600 f   item_timefunc.obj
 0001:0010d690       ?val_int@Item_func_second@@UAE_JXZ 0050e690 f   item_timefunc.obj
 0001:0010d720       ?week_mode@@YAII@Z         0050e720 f   item_timefunc.obj
 0001:0010d750       ?val_int@Item_func_week@@UAE_JXZ 0050e750 f   item_timefunc.obj
 0001:0010d840       ?val_int@Item_func_yearweek@@UAE_JXZ 0050e840 f   item_timefunc.obj
 0001:0010d940       ?val_int@Item_func_weekday@@UAE_JXZ 0050e940 f   item_timefunc.obj
 0001:0010da20       ?val_str@Item_func_dayname@@UAEPAVString@@PAV2@@Z 0050ea20 f   item_timefunc.obj
 0001:0010dae0       ?val_int@Item_func_year@@UAE_JXZ 0050eae0 f   item_timefunc.obj
 0001:0010db70       ?val_int@Item_func_unix_timestamp@@UAE_JXZ 0050eb70 f   item_timefunc.obj
 0001:0010dcc0       ?val_int@Item_func_time_to_sec@@UAE_JXZ 0050ecc0 f   item_timefunc.obj
 0001:0010dd90       ?val_str@Item_date@@UAEPAVString@@PAV2@@Z 0050ed90 f   item_timefunc.obj
 0001:0010de60       ?val_int@Item_date@@UAE_JXZ 0050ee60 f   item_timefunc.obj
 0001:0010df20       ?get_date@Item_func_from_days@@UAEHPAUst_mysql_time@@I@Z 0050ef20 f   item_timefunc.obj
 0001:0010dfe0       ?fix_length_and_dec@Item_func_curdate@@UAEXXZ 0050efe0 f   item_timefunc.obj
 0001:0010e0a0       ?val_str@Item_func_curdate@@UAEPAVString@@PAV2@@Z 0050f0a0 f   item_timefunc.obj
 0001:0010e120       ?store_now_in_TIME@Item_func_curdate_local@@UAEXPAUst_mysql_time@@@Z 0050f120 f   item_timefunc.obj
 0001:0010e190       ?store_now_in_TIME@Item_func_curdate_utc@@UAEXPAUst_mysql_time@@@Z 0050f190 f   item_timefunc.obj
 0001:0010e1e0       ?get_date@Item_func_curdate@@UAEHPAUst_mysql_time@@I@Z 0050f1e0 f   item_timefunc.obj
 0001:0010e210       ?val_str@Item_func_curtime@@UAEPAVString@@PAV2@@Z 0050f210 f   item_timefunc.obj
 0001:0010e280       ?fix_length_and_dec@Item_func_curtime@@UAEXXZ 0050f280 f   item_timefunc.obj
 0001:0010e360       ?store_now_in_TIME@Item_func_curtime_local@@UAEXPAUst_mysql_time@@@Z 0050f360 f   item_timefunc.obj
 0001:0010e3d0       ?store_now_in_TIME@Item_func_curtime_utc@@UAEXPAUst_mysql_time@@@Z 0050f3d0 f   item_timefunc.obj
 0001:0010e420       ?val_str@Item_func_now@@UAEPAVString@@PAV2@@Z 0050f420 f   item_timefunc.obj
 0001:0010e490       ?fix_length_and_dec@Item_func_now@@UAEXXZ 0050f490 f   item_timefunc.obj
 0001:0010e540       ?store_now_in_TIME@Item_func_now_local@@UAEXPAUst_mysql_time@@@Z 0050f540 f   item_timefunc.obj
 0001:0010e5b0       ?store_now_in_TIME@Item_func_now_utc@@UAEXPAUst_mysql_time@@@Z 0050f5b0 f   item_timefunc.obj
 0001:0010e600       ?get_date@Item_func_now@@UAEHPAUst_mysql_time@@I@Z 0050f600 f   item_timefunc.obj
 0001:0010e630       ?save_in_field@Item_func_now@@UAEHPAVField@@H@Z 0050f630 f   item_timefunc.obj
 0001:0010e680       ?store_now_in_TIME@Item_func_sysdate_local@@UAEXPAUst_mysql_time@@@Z 0050f680 f   item_timefunc.obj
 0001:0010e6f0       ?val_str@Item_func_sysdate_local@@UAEPAVString@@PAV2@@Z 0050f6f0 f   item_timefunc.obj
 0001:0010e7b0       ?val_int@Item_func_sysdate_local@@UAE_JXZ 0050f7b0 f   item_timefunc.obj
 0001:0010e830       ?val_real@Item_func_sysdate_local@@UAENXZ 0050f830 f   item_timefunc.obj
 0001:0010e8e0       ?fix_length_and_dec@Item_func_sysdate_local@@UAEXXZ 0050f8e0 f   item_timefunc.obj
 0001:0010e920       ?get_date@Item_func_sysdate_local@@UAEHPAUst_mysql_time@@I@Z 0050f920 f   item_timefunc.obj
 0001:0010e980       ?save_in_field@Item_func_sysdate_local@@UAEHPAVField@@H@Z 0050f980 f   item_timefunc.obj
 0001:0010e9f0       ?val_str@Item_func_sec_to_time@@UAEPAVString@@PAV2@@Z 0050f9f0 f   item_timefunc.obj
 0001:0010ec90       ?val_int@Item_func_sec_to_time@@UAE_JXZ 0050fc90 f   item_timefunc.obj
 0001:0010eda0       ?fix_length_and_dec@Item_func_date_format@@UAEXXZ 0050fda0 f   item_timefunc.obj
 0001:0010ef00       ?eq@Item_func_date_format@@UBEHPBVItem@@H@Z 0050ff00 f   item_timefunc.obj
 0001:0010f010       ?format_length@Item_func_date_format@@QAEIPBVString@@@Z 00510010 f   item_timefunc.obj
 0001:0010f1a0       ?val_str@Item_func_date_format@@UAEPAVString@@PAV2@@Z 005101a0 f   item_timefunc.obj
 0001:0010f3e0       ?fix_length_and_dec@Item_func_from_unixtime@@UAEXXZ 005103e0 f   item_timefunc.obj
 0001:0010f450       ?val_str@Item_func_from_unixtime@@UAEPAVString@@PAV2@@Z 00510450 f   item_timefunc.obj
 0001:0010f530       ?val_int@Item_func_from_unixtime@@UAE_JXZ 00510530 f   item_timefunc.obj
 0001:0010f5e0       ?get_date@Item_func_from_unixtime@@UAEHPAUst_mysql_time@@I@Z 005105e0 f   item_timefunc.obj
 0001:0010f6b0       ?fix_length_and_dec@Item_func_convert_tz@@UAEXXZ 005106b0 f   item_timefunc.obj
 0001:0010f700       ?fix_fields@Item_func_convert_tz@@UAEHPAVTHD@@PAPAVItem@@@Z 00510700 f   item_timefunc.obj
 0001:0010f7b0       ?val_str@Item_func_convert_tz@@UAEPAVString@@PAV2@@Z 005107b0 f   item_timefunc.obj
 0001:0010f860       ?val_int@Item_func_convert_tz@@UAE_JXZ 00510860 f   item_timefunc.obj
 0001:0010f8f0       ?get_date@Item_func_convert_tz@@UAEHPAUst_mysql_time@@I@Z 005108f0 f   item_timefunc.obj
 0001:0010fb20       ?cleanup@Item_func_convert_tz@@UAEXXZ 00510b20 f   item_timefunc.obj
 0001:0010fb60       ?fix_length_and_dec@Item_date_add_interval@@UAEXXZ 00510b60 f   item_timefunc.obj
 0001:0010fc50       ?get_date@Item_date_add_interval@@UAEHPAUst_mysql_time@@I@Z 00510c50 f   item_timefunc.obj
 0001:001109b0       ?val_str@Item_date_add_interval@@UAEPAVString@@PAV2@@Z 005119b0 f   item_timefunc.obj
 0001:00110d00       ?val_int@Item_date_add_interval@@UAE_JXZ 00511d00 f   item_timefunc.obj
 0001:00110e10       ?eq@Item_date_add_interval@@UBEHPBVItem@@H@Z 00511e10 f   item_timefunc.obj
 0001:00110ea0       ?print@Item_date_add_interval@@UAEXPAVString@@@Z 00511ea0 f   item_timefunc.obj
 0001:00110f80       ?print@Item_extract@@UAEXPAVString@@@Z 00511f80 f   item_timefunc.obj
 0001:00111010       ?fix_length_and_dec@Item_extract@@UAEXXZ 00512010 f   item_timefunc.obj
 0001:001112e0       ?val_int@Item_extract@@UAE_JXZ 005122e0 f   item_timefunc.obj
 0001:001116e0       ?eq@Item_extract@@UBEHPBVItem@@H@Z 005126e0 f   item_timefunc.obj
 0001:001117d0       ?eq@Item_char_typecast@@UBEHPBVItem@@H@Z 005127d0 f   item_timefunc.obj
 0001:001118d0       ?print@Item_typecast@@UAEXPAVString@@@Z 005128d0 f   item_timefunc.obj
 0001:00111960       ?print@Item_char_typecast@@UAEXPAVString@@@Z 00512960 f   item_timefunc.obj
 0001:00111ac0       ?val_str@Item_char_typecast@@UAEPAVString@@PAV2@@Z 00512ac0 f   item_timefunc.obj
 0001:00111dd0       ?fix_length_and_dec@Item_char_typecast@@UAEXXZ 00512dd0 f   item_timefunc.obj
 0001:00111f90       ?val_str@Item_datetime_typecast@@UAEPAVString@@PAV2@@Z 00512f90 f   item_timefunc.obj
 0001:00112050       ?val_int@Item_datetime_typecast@@UAE_JXZ 00513050 f   item_timefunc.obj
 0001:00112100       ?get_time@Item_time_typecast@@UAEHPAUst_mysql_time@@@Z 00513100 f   item_timefunc.obj
 0001:00112170       ?val_int@Item_time_typecast@@UAE_JXZ 00513170 f   item_timefunc.obj
 0001:00112210       ?val_str@Item_time_typecast@@UAEPAVString@@PAV2@@Z 00513210 f   item_timefunc.obj
 0001:001122d0       ?get_date@Item_date_typecast@@UAEHPAUst_mysql_time@@I@Z 005132d0 f   item_timefunc.obj
 0001:00112340       ?val_str@Item_date_typecast@@UAEPAVString@@PAV2@@Z 00513340 f   item_timefunc.obj
 0001:00112400       ?val_int@Item_date_typecast@@UAE_JXZ 00513400 f   item_timefunc.obj
 0001:001124d0       ?val_str@Item_func_makedate@@UAEPAVString@@PAV2@@Z 005134d0 f   item_timefunc.obj
 0001:00112650       ?val_int@Item_func_makedate@@UAE_JXZ 00513650 f   item_timefunc.obj
 0001:001127c0       ?fix_length_and_dec@Item_func_add_time@@UAEXXZ 005137c0 f   item_timefunc.obj
 0001:00112870       ?val_str@Item_func_add_time@@UAEPAVString@@PAV2@@Z 00513870 f   item_timefunc.obj
 0001:00112ce0       ?print@Item_func_add_time@@UAEXPAVString@@@Z 00513ce0 f   item_timefunc.obj
 0001:00112dd0       ?val_str@Item_func_timediff@@UAEPAVString@@PAV2@@Z 00513dd0 f   item_timefunc.obj
 0001:00113000       ?val_str@Item_func_maketime@@UAEPAVString@@PAV2@@Z 00514000 f   item_timefunc.obj
 0001:00113410       ?val_int@Item_func_microsecond@@UAE_JXZ 00514410 f   item_timefunc.obj
 0001:001134b0       ?val_int@Item_func_timestamp_diff@@UAE_JXZ 005144b0 f   item_timefunc.obj
 0001:001139b0       ?print@Item_func_timestamp_diff@@UAEXPAVString@@@Z 005149b0 f   item_timefunc.obj
 0001:00113b50       ?val_str@Item_func_get_format@@UAEPAVString@@PAV2@@Z 00514b50 f   item_timefunc.obj
 0001:00113cc0       ?print@Item_func_get_format@@UAEXPAVString@@@Z 00514cc0 f   item_timefunc.obj
 0001:00113dc0       ?tmp_table_field@Item_func_str_to_date@@UAEPAVField@@PAUst_table@@@Z 00514dc0 f   item_timefunc.obj
 0001:00113f40       ?fix_length_and_dec@Item_func_str_to_date@@UAEXXZ 00514f40 f   item_timefunc.obj
 0001:00114290       ?get_date@Item_func_str_to_date@@UAEHPAUst_mysql_time@@I@Z 00515290 f   item_timefunc.obj
 0001:001153a0       ?val_str@Item_func_str_to_date@@UAEPAVString@@PAV2@@Z 005163a0 f   item_timefunc.obj
 0001:00115480       ?get_date@Item_func_last_day@@UAEHPAUst_mysql_time@@I@Z 00516480 f   item_timefunc.obj
 0001:001179b0       ?get_arg0_date@Item_func@@QAEHPAUst_mysql_time@@I@Z 005189b0 f i item_timefunc.obj
 0001:00117a20       ?get_arg0_time@Item_func@@QAEHPAUst_mysql_time@@@Z 00518a20 f i item_timefunc.obj
 0001:00117a90       ?get_timestamp@Field_timestamp@@QAEJPAD@Z 00518a90 f i item_timefunc.obj
 0001:00117b00       ?create_tmp_field@Item_sum_unique_users@@UAEPAVField@@HPAUst_table@@I@Z 00518b00 f   item_uniq.obj
 0001:00117b90       ?find_ref_key@@YAHPAUst_table@@PAVField@@PAI@Z 00518b90 f   key.obj
 0001:00117cb0       ?key_copy@@YAXPAE0PAUst_key@@I@Z 00518cb0 f   key.obj
 0001:00117f20       ?key_restore@@YAXPAE0PAUst_key@@I@Z 00518f20 f   key.obj
 0001:00118230       ?key_cmp_if_same@@YAHPAUst_table@@PBEII@Z 00519230 f   key.obj
 0001:00118480       ?key_unpack@@YAXPAVString@@PAUst_table@@I@Z 00519480 f   key.obj
 0001:001186b0       ?is_key_used@@YAHPAUst_table@@IAAV?$List@VItem@@@@@Z 005196b0 f   key.obj
 0001:00118840       ?key_cmp@@YAHPAUst_key_part_info@@PBEI@Z 00519840 f   key.obj
 0001:00118ca0       ?rewind@?$List_iterator_fast@VItem@@@@QAEXXZ 00519ca0 f i key.obj
 0001:00119760       ?check_binlog_magic@@YAHPAUst_io_cache@@PAPBD@Z 0051a760 f   log.obj
 0001:001198c0       ?open_binlog@@YAHPAUst_io_cache@@PBDPAPBD@Z 0051a8c0 f   log.obj
 0001:00119a80       ??0MYSQL_LOG@@QAE@XZ       0051aa80 f   log.obj
 0001:00119ba0       ?cleanup@MYSQL_LOG@@QAEXXZ 0051aba0 f   log.obj
 0001:00119d60       ?generate_new_name@MYSQL_LOG@@QAEHPADPBD@Z 0051ad60 f   log.obj
 0001:0011a0c0       ?init@MYSQL_LOG@@QAEXW4enum_log_type@@W4cache_type@@HK@Z 0051b0c0 f   log.obj
 0001:0011a210       ?init_pthread_objects@MYSQL_LOG@@QAEXXZ 0051b210 f   log.obj
 0001:0011a2a0       ?generate_name@MYSQL_LOG@@QAEPBDPBD0HPAD@Z 0051b2a0 f   log.obj
 0001:0011a360       ?open_index_file@MYSQL_LOG@@QAEHPBD0@Z 0051b360 f   log.obj
 0001:0011a490       ?open@MYSQL_LOG@@QAEHPBDW4enum_log_type@@0W4cache_type@@HKH@Z 0051b490 f   log.obj
 0001:0011af80       ?get_current_log@MYSQL_LOG@@QAEHPAUst_log_info@@@Z 0051bf80 f   log.obj
 0001:0011aff0       ?raw_get_current_log@MYSQL_LOG@@QAEHPAUst_log_info@@@Z 0051bff0 f   log.obj
 0001:0011b060       ?find_log_pos@MYSQL_LOG@@QAEHPAUst_log_info@@PBDH@Z 0051c060 f   log.obj
 0001:0011b350       ?find_next_log@MYSQL_LOG@@QAEHPAUst_log_info@@H@Z 0051c350 f   log.obj
 0001:0011b490       ?reset_logs@MYSQL_LOG@@QAEHPAVTHD@@@Z 0051c490 f   log.obj
 0001:0011b790       ?purge_first_log@MYSQL_LOG@@QAEHPAUst_relay_log_info@@H@Z 0051c790 f   log.obj
 0001:0011bb00       ?update_log_index@MYSQL_LOG@@QAEHPAUst_log_info@@H@Z 0051cb00 f   log.obj
 0001:0011bdc0       ?purge_logs@MYSQL_LOG@@QAEHPBDHHHPA_K@Z 0051cdc0 f   log.obj
 0001:0011c100       ?purge_logs_before_date@MYSQL_LOG@@QAEHJ@Z 0051d100 f   log.obj
 0001:0011c350       ?make_log_name@MYSQL_LOG@@QAEXPADPBD@Z 0051d350 f   log.obj
 0001:0011c3e0       ?is_active@MYSQL_LOG@@QAEHPBD@Z 0051d3e0 f   log.obj
 0001:0011c420       ?new_file@MYSQL_LOG@@QAEXH@Z 0051d420 f   log.obj
 0001:0011c800       ?append@MYSQL_LOG@@QAEHPAVLog_event@@@Z 0051d800 f   log.obj
 0001:0011ca00       ?appendv@MYSQL_LOG@@QAAHPBDIZZ 0051da00 f   log.obj
 0001:0011cc00       ?write@MYSQL_LOG@@QAAHPAVTHD@@W4enum_server_command@@PBDZZ 0051dc00 f   log.obj
 0001:0011d1b0       ?flush_and_sync@MYSQL_LOG@@QAEHXZ 0051e1b0 f   log.obj
 0001:0011d250       ?start_union_events@MYSQL_LOG@@QAEXPAVTHD@@_K@Z 0051e250 f   log.obj
 0001:0011d2d0       ?stop_union_events@MYSQL_LOG@@QAEXPAVTHD@@@Z 0051e2d0 f   log.obj
 0001:0011d320       ?is_query_in_union@MYSQL_LOG@@QAEHPAVTHD@@_K@Z 0051e320 f   log.obj
 0001:0011d390       ?write@MYSQL_LOG@@QAEHPAVLog_event@@@Z 0051e390 f   log.obj
 0001:0011db70       ?rotate_and_purge@MYSQL_LOG@@QAEXI@Z 0051eb70 f   log.obj
 0001:0011dc80       ?next_file_id@MYSQL_LOG@@QAEIXZ 0051ec80 f   log.obj
 0001:0011dd00       ?write@MYSQL_LOG@@QAEHPAVTHD@@PAUst_io_cache@@PAVLog_event@@@Z 0051ed00 f   log.obj
 0001:0011e3f0       ?write@MYSQL_LOG@@QAEHPAVTHD@@PBDIJ@Z 0051f3f0 f   log.obj
 0001:0011ed50       ?wait_for_update@MYSQL_LOG@@QAEXPAVTHD@@H@Z 0051fd50 f   log.obj
 0001:0011ee90       ?close@MYSQL_LOG@@QAEXI@Z  0051fe90 f   log.obj
 0001:0011f230       ?set_max_size@MYSQL_LOG@@QAEXK@Z 00520230 f   log.obj
 0001:0011f590       ?sql_perror@@YAXPBD@Z      00520590 f   log.obj
 0001:0011f5b0       ?flush_error_log@@YAHXZ    005205b0 f   log.obj
 0001:0011f820       ?signal_update@MYSQL_LOG@@QAEXXZ 00520820 f   log.obj
 0001:0011f910       ?vprint_msg_to_log@@YAXW4loglevel@@PBDPAD@Z 00520910 f   log.obj
 0001:00120000       ?sql_print_error@@YAXPBDZZ 00521000 f   log.obj
 0001:00120100       ?sql_print_warning@@YAXPBDZZ 00521100 f   log.obj
 0001:00120200       ?sql_print_information@@YAXPBDZZ 00521200 f   log.obj
 0001:00120300       ?open@TC_LOG_MMAP@@UAEHPBD@Z 00521300 f   log.obj
 0001:00120910       ?get_active_from_pool@TC_LOG_MMAP@@AAEXXZ 00521910 f   log.obj
 0001:00120a90       ?overflow@TC_LOG_MMAP@@AAEHXZ 00521a90 f   log.obj
 0001:00120ae0       ?log_xid@TC_LOG_MMAP@@UAEHPAVTHD@@_K@Z 00521ae0 f   log.obj
 0001:00120de0       ?sync@TC_LOG_MMAP@@AAEHXZ  00521de0 f   log.obj
 0001:00120f50       ?unlog@TC_LOG_MMAP@@UAEXK_K@Z 00521f50 f   log.obj
 0001:001210d0       ?close@TC_LOG_MMAP@@UAEXXZ 005220d0 f   log.obj
 0001:001212a0       ?recover@TC_LOG_MMAP@@QAEHXZ 005222a0 f   log.obj
 0001:00121480       ?using_heuristic_recover@TC_LOG@@QAEHXZ 00522480 f   log.obj
 0001:001214f0       ?open@MYSQL_LOG@@UAEHPBD@Z 005224f0 f   log.obj
 0001:00121940       ?close@MYSQL_LOG@@UAEXXZ   00522940 f   log.obj
 0001:001219b0       ?log_xid@MYSQL_LOG@@UAEHPAVTHD@@_K@Z 005229b0 f   log.obj
 0001:00121a60       ?unlog@MYSQL_LOG@@UAEXK_K@Z 00522a60 f   log.obj
 0001:00121af0       ?recover@MYSQL_LOG@@QAEHPAUst_io_cache@@PAVFormat_description_log_event@@@Z 00522af0 f   log.obj
 0001:00124100       ??1Query_log_event@@UAE@XZ 00525100 f i log.obj
 0001:00124170       ?write_data_header@Log_event@@UAEHPAUst_io_cache@@@Z 00525170 f i log.obj
 0001:00124190       ?write_data_body@Log_event@@UAEHPAUst_io_cache@@@Z 00525190 f i log.obj
 0001:001241b0       ?is_artificial_event@Log_event@@UAEHXZ 005251b0 f i log.obj
 0001:001241d0       ??1Log_event@@UAE@XZ       005251d0 f i log.obj
 0001:00124210       ?get_db@Log_event@@UAEPBDXZ 00525210 f i log.obj
 0001:00124260       ?write@Log_event@@UAEHPAUst_io_cache@@@Z 00525260 f i log.obj
 0001:00124320       ?free_temp_buf@Log_event@@QAEXXZ 00525320 f i log.obj
 0001:00124380       ?get_data_size@Log_event@@UAEHXZ 00525380 f i log.obj
 0001:001243a0       ??_GLog_event@@UAEPAXI@Z   005253a0 f i log.obj
 0001:001243a0       ??_ELog_event@@UAEPAXI@Z   005253a0 f i log.obj
 0001:001243f0       ??3Log_event@@SAXPAXI@Z    005253f0 f i log.obj
 0001:00124420       ?get_db@Query_log_event@@UAEPBDXZ 00525420 f i log.obj
 0001:00124440       ?get_type_code@Query_log_event@@UAE?AW4Log_event_type@@XZ 00525440 f i log.obj
 0001:00124460       ?write_post_header_for_derived@Query_log_event@@UAEHPAUst_io_cache@@@Z 00525460 f i log.obj
 0001:00124480       ?is_valid@Query_log_event@@UBEHXZ 00525480 f i log.obj
 0001:001244b0       ?get_post_header_size_for_derived@Query_log_event@@UAEKXZ 005254b0 f i log.obj
 0001:001244d0       ??_GQuery_log_event@@UAEPAXI@Z 005254d0 f i log.obj
 0001:001244d0       ??_EQuery_log_event@@UAEPAXI@Z 005254d0 f i log.obj
 0001:00124530       ??0TC_LOG@@QAE@XZ          00525530 f i log.obj
 0001:00124560       ??_ETC_LOG@@UAEPAXI@Z      00525560 f i log.obj
 0001:00124560       ??_GTC_LOG@@UAEPAXI@Z      00525560 f i log.obj
 0001:001245b0       ??1TC_LOG@@UAE@XZ          005255b0 f i log.obj
 0001:001245e0       ??_EMYSQL_LOG@@UAEPAXI@Z   005255e0 f i log.obj
 0001:001245e0       ??_GMYSQL_LOG@@UAEPAXI@Z   005255e0 f i log.obj
 0001:00124630       ??1MYSQL_LOG@@UAE@XZ       00525630 f i log.obj
 0001:00124660       ??1Format_description_log_event@@UAE@XZ 00525660 f i log.obj
 0001:001246c0       ??1Start_log_event_v3@@UAE@XZ 005256c0 f i log.obj
 0001:00124700       ?get_type_code@Start_log_event_v3@@UAE?AW4Log_event_type@@XZ 00525700 f i log.obj
 0001:00124720       ?is_valid@Start_log_event_v3@@UBEHXZ 00525720 f i log.obj
 0001:00124740       ?get_data_size@Start_log_event_v3@@UAEHXZ 00525740 f i log.obj
 0001:00124760       ?is_artificial_event@Start_log_event_v3@@UAEHXZ 00525760 f i log.obj
 0001:00124780       ??_EStart_log_event_v3@@UAEPAXI@Z 00525780 f i log.obj
 0001:00124780       ??_GStart_log_event_v3@@UAEPAXI@Z 00525780 f i log.obj
 0001:001247d0       ?get_type_code@Format_description_log_event@@UAE?AW4Log_event_type@@XZ 005257d0 f i log.obj
 0001:001247f0       ?is_valid@Format_description_log_event@@UBEHXZ 005257f0 f i log.obj
 0001:00124860       ?get_data_size@Format_description_log_event@@UAEHXZ 00525860 f i log.obj
 0001:00124880       ??_GFormat_description_log_event@@UAEPAXI@Z 00525880 f i log.obj
 0001:00124880       ??_EFormat_description_log_event@@UAEPAXI@Z 00525880 f i log.obj
 0001:001248e0       ??0st_log_info@@QAE@XZ     005258e0 f i log.obj
 0001:00124940       ??1st_log_info@@QAE@XZ     00525940 f i log.obj
 0001:00124990       ?is_open@MYSQL_LOG@@QAEHXZ 00525990 f i log.obj
 0001:001249c0       ?notify_group_relay_log_name_update@st_relay_log_info@@QAEXXZ 005259c0 f i log.obj
 0001:00124a00       ??1Rotate_log_event@@UAE@XZ 00525a00 f i log.obj
 0001:00124a70       ?get_type_code@Rotate_log_event@@UAE?AW4Log_event_type@@XZ 00525a70 f i log.obj
 0001:00124a90       ?get_data_size@Rotate_log_event@@UAEHXZ 00525a90 f i log.obj
 0001:00124ac0       ?is_valid@Rotate_log_event@@UBEHXZ 00525ac0 f i log.obj
 0001:00124af0       ??_ERotate_log_event@@UAEPAXI@Z 00525af0 f i log.obj
 0001:00124af0       ??_GRotate_log_event@@UAEPAXI@Z 00525af0 f i log.obj
 0001:00124b40       ?get_cache_stmt@Log_event@@QAEHXZ 00525b40 f i log.obj
 0001:00124b60       ??0Intvar_log_event@@QAE@PAVTHD@@E_K@Z 00525b60 f i log.obj
 0001:00124bd0       ??1Intvar_log_event@@UAE@XZ 00525bd0 f i log.obj
 0001:00124c10       ?get_type_code@Intvar_log_event@@UAE?AW4Log_event_type@@XZ 00525c10 f i log.obj
 0001:00124c30       ?get_data_size@Intvar_log_event@@UAEHXZ 00525c30 f i log.obj
 0001:00124c50       ?is_valid@Intvar_log_event@@UBEHXZ 00525c50 f i log.obj
 0001:00124c70       ??_EIntvar_log_event@@UAEPAXI@Z 00525c70 f i log.obj
 0001:00124c70       ??_GIntvar_log_event@@UAEPAXI@Z 00525c70 f i log.obj
 0001:00124cc0       ??0Rand_log_event@@QAE@PAVTHD@@_K1@Z 00525cc0 f i log.obj
 0001:00124d30       ??1Rand_log_event@@UAE@XZ  00525d30 f i log.obj
 0001:00124d70       ?get_type_code@Rand_log_event@@UAE?AW4Log_event_type@@XZ 00525d70 f i log.obj
 0001:00124d90       ?get_data_size@Rand_log_event@@UAEHXZ 00525d90 f i log.obj
 0001:00124db0       ?is_valid@Rand_log_event@@UBEHXZ 00525db0 f i log.obj
 0001:00124dd0       ??_ERand_log_event@@UAEPAXI@Z 00525dd0 f i log.obj
 0001:00124dd0       ??_GRand_log_event@@UAEPAXI@Z 00525dd0 f i log.obj
 0001:00124e20       ??0User_var_log_event@@QAE@PAVTHD@@PADI1KW4Item_result@@I@Z 00525e20 f i log.obj
 0001:00124ec0       ??1User_var_log_event@@UAE@XZ 00525ec0 f i log.obj
 0001:00124f00       ?get_type_code@User_var_log_event@@UAE?AW4Log_event_type@@XZ 00525f00 f i log.obj
 0001:00124f20       ?is_valid@User_var_log_event@@UBEHXZ 00525f20 f i log.obj
 0001:00124f40       ??_EUser_var_log_event@@UAEPAXI@Z 00525f40 f i log.obj
 0001:00124f40       ??_GUser_var_log_event@@UAEPAXI@Z 00525f40 f i log.obj
 0001:00124f90       ?enter_cond@THD@@QAEPBDPAUpthread_cond_t@@PAU_RTL_CRITICAL_SECTION@@PBD@Z 00525f90 f i log.obj
 0001:00125000       ?exit_cond@THD@@QAEXPBD@Z  00526000 f i log.obj
 0001:001250d0       ??0Stop_log_event@@QAE@XZ  005260d0 f i log.obj
 0001:00125110       ??1Stop_log_event@@UAE@XZ  00526110 f i log.obj
 0001:00125150       ?get_type_code@Stop_log_event@@UAE?AW4Log_event_type@@XZ 00526150 f i log.obj
 0001:00125170       ?is_valid@Stop_log_event@@UBEHXZ 00526170 f i log.obj
 0001:00125190       ??_EStop_log_event@@UAEPAXI@Z 00526190 f i log.obj
 0001:00125190       ??_GStop_log_event@@UAEPAXI@Z 00526190 f i log.obj
 0001:001251e0       ??0Xid_log_event@@QAE@PAVTHD@@_K@Z 005261e0 f i log.obj
 0001:00125240       ??1Xid_log_event@@UAE@XZ   00526240 f i log.obj
 0001:00125280       ?get_type_code@Xid_log_event@@UAE?AW4Log_event_type@@XZ 00526280 f i log.obj
 0001:001252a0       ?get_data_size@Xid_log_event@@UAEHXZ 005262a0 f i log.obj
 0001:001252c0       ?is_valid@Xid_log_event@@UBEHXZ 005262c0 f i log.obj
 0001:001252e0       ??_EXid_log_event@@UAEPAXI@Z 005262e0 f i log.obj
 0001:001252e0       ??_GXid_log_event@@UAEPAXI@Z 005262e0 f i log.obj
 0001:00125330       ??0TC_LOG_DUMMY@@QAE@XZ    00526330 f i log.obj
 0001:00125370       ?open@TC_LOG_DUMMY@@UAEHPBD@Z 00526370 f i log.obj
 0001:00125390       ?close@TC_LOG_DUMMY@@UAEXXZ 00526390 f i log.obj
 0001:001253b0       ?log_xid@TC_LOG_DUMMY@@UAEHPAVTHD@@_K@Z 005263b0 f i log.obj
 0001:001253d0       ?unlog@TC_LOG_DUMMY@@UAEXK_K@Z 005263d0 f i log.obj
 0001:001253f0       ??_ETC_LOG_DUMMY@@UAEPAXI@Z 005263f0 f i log.obj
 0001:001253f0       ??_GTC_LOG_DUMMY@@UAEPAXI@Z 005263f0 f i log.obj
 0001:00125440       ??1TC_LOG_DUMMY@@UAE@XZ    00526440 f i log.obj
 0001:00125470       ??0TC_LOG_MMAP@@QAE@XZ     00526470 f i log.obj
 0001:001254c0       ??_GTC_LOG_MMAP@@UAEPAXI@Z 005264c0 f i log.obj
 0001:001254c0       ??_ETC_LOG_MMAP@@UAEPAXI@Z 005264c0 f i log.obj
 0001:00125510       ??1TC_LOG_MMAP@@UAE@XZ     00526510 f i log.obj
 0001:00125540       ??1Muted_query_log_event@@UAE@XZ 00526540 f i log.obj
 0001:00125570       ?mysql_lock_tables@@YAPAUst_mysql_lock@@PAVTHD@@PAPAUst_table@@IIPAH@Z 00526570 f   lock.obj
 0001:00125cf0       ?mysql_unlock_tables@@YAXPAVTHD@@PAUst_mysql_lock@@@Z 00526cf0 f   lock.obj
 0001:00125e30       ?mysql_unlock_some_tables@@YAXPAVTHD@@PAPAUst_table@@I@Z 00526e30 f   lock.obj
 0001:00125ec0       ?mysql_unlock_read_tables@@YAXPAVTHD@@PAUst_mysql_lock@@@Z 00526ec0 f   lock.obj
 0001:00126180       ?mysql_lock_remove@@YAXPAVTHD@@PAUst_mysql_lock@@PAUst_table@@H@Z 00527180 f   lock.obj
 0001:00126370       ?mysql_lock_abort@@YAXPAVTHD@@PAUst_table@@@Z 00527370 f   lock.obj
 0001:00126440       ?mysql_lock_abort_for_thread@@YAHPAVTHD@@PAUst_table@@@Z 00527440 f   lock.obj
 0001:001265d0       ?mysql_lock_merge@@YAPAUst_mysql_lock@@PAU1@0@Z 005275d0 f   lock.obj
 0001:00126880       ?mysql_lock_have_duplicate@@YAPAUTABLE_LIST@@PAVTHD@@PAU1@1@Z 00527880 f   lock.obj
 0001:001271a0       ?lock_and_wait_for_table_name@@YAHPAVTHD@@PAUTABLE_LIST@@@Z 005281a0 f   lock.obj
 0001:00127340       ?lock_table_name@@YAHPAVTHD@@PAUTABLE_LIST@@@Z 00528340 f   lock.obj
 0001:001275f0       ?unlock_table_name@@YAXPAVTHD@@PAUTABLE_LIST@@@Z 005285f0 f   lock.obj
 0001:00127620       ?wait_for_locked_table_names@@YAHPAVTHD@@PAUTABLE_LIST@@@Z 00528620 f   lock.obj
 0001:001277a0       ?lock_table_names@@YAHPAVTHD@@PAUTABLE_LIST@@@Z 005287a0 f   lock.obj
 0001:00127850       ?unlock_table_names@@YAXPAVTHD@@PAUTABLE_LIST@@1@Z 00528850 f   lock.obj
 0001:00127a30       ?lock_global_read_lock@@YAHPAVTHD@@@Z 00528a30 f   lock.obj
 0001:00127c30       ?unlock_global_read_lock@@YAXPAVTHD@@@Z 00528c30 f   lock.obj
 0001:00127df0       ?wait_if_global_read_lock@@YAHPAVTHD@@HH@Z 00528df0 f   lock.obj
 0001:001280b0       ?start_waiting_global_read_lock@@YAXPAVTHD@@@Z 005290b0 f   lock.obj
 0001:00128230       ?make_global_read_lock_block_commit@@YAHPAVTHD@@@Z 00529230 f   lock.obj
 0001:00128440       ?broadcast_refresh@@YAXXZ  00529440 f   lock.obj
 0001:00129030       ?lock_time@THD@@QAEXXZ     0052a030 f i lock.obj
 0001:00129070       ?safe_time@THD@@SAXPAJ@Z   0052a070 f i lock.obj
 0001:001290c0       ?ha_external_lock@handler@@QAEHPAVTHD@@H@Z 0052a0c0 f i lock.obj
 0001:00129220       ?placeholder@TABLE_LIST@@QAEHXZ 0052a220 f i lock.obj
 0001:001292b0       ?str_to_hex@@YAPADPADPBDI@Z 0052a2b0 f   log_event.obj
 0001:00129310       ?append_query_string@@YAHPAUcharset_info_st@@PBVString@@PAV2@@Z 0052a310 f   log_event.obj
 0001:00129420       ?get_type_str@Log_event@@QAEPBDXZ 0052a420 f   log_event.obj
 0001:00129550       ??0Log_event@@QAE@PAVTHD@@GH@Z 0052a550 f   log_event.obj
 0001:001295e0       ??0Log_event@@QAE@XZ       0052a5e0 f   log_event.obj
 0001:00129670       ??0Log_event@@QAE@PBDPBVFormat_description_log_event@@@Z 0052a670 f   log_event.obj
 0001:001297a0       ?exec_event@Log_event@@UAEHPAUst_relay_log_info@@@Z 0052a7a0 f   log_event.obj
 0001:00129900       ?pack_info@Log_event@@UAEXPAVProtocol@@@Z 0052a900 f   log_event.obj
 0001:00129930       ?net_send@Log_event@@QAEHPAVProtocol@@PBD_K@Z 0052a930 f   log_event.obj
 0001:00129a40       ?init_show_field_list@Log_event@@SAXPAV?$List@VItem@@@@@Z 0052aa40 f   log_event.obj
 0001:00129bd0       ?write_header@Log_event@@QAEHPAUst_io_cache@@K@Z 0052abd0 f   log_event.obj
 0001:00129da0       ?read_log_event@Log_event@@SAHPAUst_io_cache@@PAVString@@PAU_RTL_CRITICAL_SECTION@@@Z 0052ada0 f   log_event.obj
 0001:0012a070       ?read_log_event@Log_event@@SAPAV1@PAUst_io_cache@@PAU_RTL_CRITICAL_SECTION@@PBVFormat_description_log_event@@@Z 0052b070 f   log_event.obj
 0001:0012a4f0       ?read_log_event@Log_event@@SAPAV1@PBDIPAPBDPBVFormat_description_log_event@@@Z 0052b4f0 f   log_event.obj
 0001:0012acd0       ?pack_info@Query_log_event@@UAEXPAVProtocol@@@Z 0052bcd0 f   log_event.obj
 0001:0012ae20       ?write@Query_log_event@@UAEHPAUst_io_cache@@@Z 0052be20 f   log_event.obj
 0001:0012b3c0       ??0Query_log_event@@QAE@XZ 0052c3c0 f   log_event.obj
 0001:0012b400       ??0Query_log_event@@QAE@PAVTHD@@PBDKHHW4killed_state@1@@Z 0052c400 f   log_event.obj
 0001:0012b810       ??0Query_log_event@@QAE@PBDIPBVFormat_description_log_event@@W4Log_event_type@@@Z 0052c810 f   log_event.obj
 0001:0012bf90       ?exec_event@Query_log_event@@UAEHPAUst_relay_log_info@@@Z 0052cf90 f   log_event.obj
 0001:0012bfd0       ?exec_event@Query_log_event@@QAEHPAUst_relay_log_info@@PBDK@Z 0052cfd0 f   log_event.obj
 0001:0012c9f0       ??0Muted_query_log_event@@QAE@XZ 0052d9f0 f   log_event.obj
 0001:0012ca20       ??0Start_log_event_v3@@QAE@XZ 0052da20 f   log_event.obj
 0001:0012ca90       ?pack_info@Start_log_event_v3@@UAEXPAVProtocol@@@Z 0052da90 f   log_event.obj
 0001:0012cb80       ??0Start_log_event_v3@@QAE@PBDPBVFormat_description_log_event@@@Z 0052db80 f   log_event.obj
 0001:0012cc40       ?write@Start_log_event_v3@@UAEHPAUst_io_cache@@@Z 0052dc40 f   log_event.obj
 0001:0012cd10       ?exec_event@Start_log_event_v3@@UAEHPAUst_relay_log_info@@@Z 0052dd10 f   log_event.obj
 0001:0012d020       ??0Format_description_log_event@@QAE@EPBD@Z 0052e020 f   log_event.obj
 0001:0012d310       ??0Format_description_log_event@@QAE@PBDIPBV0@@Z 0052e310 f   log_event.obj
 0001:0012d4d0       ?write@Format_description_log_event@@UAEHPAUst_io_cache@@@Z 0052e4d0 f   log_event.obj
 0001:0012d5c0       ?exec_event@Format_description_log_event@@UAEHPAUst_relay_log_info@@@Z 0052e5c0 f   log_event.obj
 0001:0012d7c0       ?calc_server_version_split@Format_description_log_event@@QAEXXZ 0052e7c0 f   log_event.obj
 0001:0012d910       ?get_query_buffer_length@Load_log_event@@AAEIXZ 0052e910 f   log_event.obj
 0001:0012d990       ?print_query@Load_log_event@@AAEXHPADPAPAD11@Z 0052e990 f   log_event.obj
 0001:0012dfb0       ?pack_info@Load_log_event@@UAEXPAVProtocol@@@Z 0052efb0 f   log_event.obj
 0001:0012e090       ?write_data_header@Load_log_event@@UAEHPAUst_io_cache@@@Z 0052f090 f   log_event.obj
 0001:0012e150       ?write_data_body@Load_log_event@@UAEHPAUst_io_cache@@@Z 0052f150 f   log_event.obj
 0001:0012e270       ??0Load_log_event@@QAE@PAVTHD@@PAVsql_exchange@@PBD2AAV?$List@VItem@@@@W4enum_duplicates@@HH@Z 0052f270 f   log_event.obj
 0001:0012e730       ??0Load_log_event@@QAE@PBDIPBVFormat_description_log_event@@@Z 0052f730 f   log_event.obj
 0001:0012e8f0       ?copy_log_event@Load_log_event@@IAEHPBDKHPBVFormat_description_log_event@@@Z 0052f8f0 f   log_event.obj
 0001:0012eba0       ?set_fields@Load_log_event@@QAEXPBDAAV?$List@VItem@@@@PAUName_resolution_context@@@Z 0052fba0 f   log_event.obj
 0001:0012ec60       ?exec_event@Load_log_event@@QAEHPAUst_net@@PAUst_relay_log_info@@H@Z 0052fc60 f   log_event.obj
 0001:0012f5f0       ?pack_info@Rotate_log_event@@UAEXPAVProtocol@@@Z 005305f0 f   log_event.obj
 0001:0012f740       ??0Rotate_log_event@@QAE@PAVTHD@@PBDI_KI@Z 00530740 f   log_event.obj
 0001:0012f920       ??0Rotate_log_event@@QAE@PBDIPBVFormat_description_log_event@@@Z 00530920 f   log_event.obj
 0001:0012fb10       ?write@Rotate_log_event@@UAEHPAUst_io_cache@@@Z 00530b10 f   log_event.obj
 0001:0012fbf0       ?exec_event@Rotate_log_event@@UAEHPAUst_relay_log_info@@@Z 00530bf0 f   log_event.obj
 0001:0012fea0       ?pack_info@Intvar_log_event@@UAEXPAVProtocol@@@Z 00530ea0 f   log_event.obj
 0001:0012ffa0       ??0Intvar_log_event@@QAE@PBDPBVFormat_description_log_event@@@Z 00530fa0 f   log_event.obj
 0001:00130010       ?get_var_type_name@Intvar_log_event@@QAEPBDXZ 00531010 f   log_event.obj
 0001:00130060       ?write@Intvar_log_event@@UAEHPAUst_io_cache@@@Z 00531060 f   log_event.obj
 0001:00130130       ?exec_event@Intvar_log_event@@UAEHPAUst_relay_log_info@@@Z 00531130 f   log_event.obj
 0001:001301b0       ?pack_info@Rand_log_event@@UAEXPAVProtocol@@@Z 005311b0 f   log_event.obj
 0001:001302c0       ??0Rand_log_event@@QAE@PBDPBVFormat_description_log_event@@@Z 005312c0 f   log_event.obj
 0001:00130330       ?write@Rand_log_event@@UAEHPAUst_io_cache@@@Z 00531330 f   log_event.obj
 0001:00130400       ?exec_event@Rand_log_event@@UAEHPAUst_relay_log_info@@@Z 00531400 f   log_event.obj
 0001:00130450       ?pack_info@Xid_log_event@@UAEXPAVProtocol@@@Z 00531450 f   log_event.obj
 0001:00130550       ??0Xid_log_event@@QAE@PBDPBVFormat_description_log_event@@@Z 00531550 f   log_event.obj
 0001:001305b0       ?write@Xid_log_event@@UAEHPAUst_io_cache@@@Z 005315b0 f   log_event.obj
 0001:00130620       ?exec_event@Xid_log_event@@UAEHPAUst_relay_log_info@@@Z 00531620 f   log_event.obj
 0001:001306a0       ?pack_info@User_var_log_event@@UAEXPAVProtocol@@@Z 005316a0 f   log_event.obj
 0001:00130a30       ??0User_var_log_event@@QAE@PBDPBVFormat_description_log_event@@@Z 00531a30 f   log_event.obj
 0001:00130b10       ?write@User_var_log_event@@UAEHPAUst_io_cache@@@Z 00531b10 f   log_event.obj
 0001:00130da0       ?exec_event@User_var_log_event@@UAEHPAUst_relay_log_info@@@Z 00531da0 f   log_event.obj
 0001:00131180       ?pack_info@Slave_log_event@@UAEXPAVProtocol@@@Z 00532180 f   log_event.obj
 0001:00131310       ??0Slave_log_event@@QAE@PAVTHD@@PAUst_relay_log_info@@@Z 00532310 f   log_event.obj
 0001:00131600       ??1Slave_log_event@@UAE@XZ 00532600 f   log_event.obj
 0001:00131650       ?get_data_size@Slave_log_event@@UAEHXZ 00532650 f   log_event.obj
 0001:00131680       ?write@Slave_log_event@@UAEHPAUst_io_cache@@@Z 00532680 f   log_event.obj
 0001:00131730       ?init_from_mem_pool@Slave_log_event@@IAEXH@Z 00532730 f   log_event.obj
 0001:001317e0       ??0Slave_log_event@@QAE@PBDI@Z 005327e0 f   log_event.obj
 0001:001318a0       ?exec_event@Slave_log_event@@UAEHPAUst_relay_log_info@@@Z 005328a0 f   log_event.obj
 0001:001318f0       ?exec_event@Stop_log_event@@UAEHPAUst_relay_log_info@@@Z 005328f0 f   log_event.obj
 0001:00131970       ??0Create_file_log_event@@QAE@PAVTHD@@PAVsql_exchange@@PBD2AAV?$List@VItem@@@@W4enum_duplicates@@HPADIH@Z 00532970 f   log_event.obj
 0001:00131af0       ?write_data_body@Create_file_log_event@@UAEHPAUst_io_cache@@@Z 00532af0 f   log_event.obj
 0001:00131ba0       ?write_data_header@Create_file_log_event@@UAEHPAUst_io_cache@@@Z 00532ba0 f   log_event.obj
 0001:00131c40       ?write_base@Create_file_log_event@@QAEHPAUst_io_cache@@@Z 00532c40 f   log_event.obj
 0001:00131cb0       ??0Create_file_log_event@@QAE@PBDIPBVFormat_description_log_event@@@Z 00532cb0 f   log_event.obj
 0001:00131f30       ?pack_info@Create_file_log_event@@UAEXPAVProtocol@@@Z 00532f30 f   log_event.obj
 0001:001320c0       ?exec_event@Create_file_log_event@@UAEHPAUst_relay_log_info@@@Z 005330c0 f   log_event.obj
 0001:00132590       ??0Append_block_log_event@@QAE@PAVTHD@@PBDPADIH@Z 00533590 f   log_event.obj
 0001:00132600       ??0Append_block_log_event@@QAE@PBDIPBVFormat_description_log_event@@@Z 00533600 f   log_event.obj
 0001:00132780       ?write@Append_block_log_event@@UAEHPAUst_io_cache@@@Z 00533780 f   log_event.obj
 0001:00132840       ?pack_info@Append_block_log_event@@UAEXPAVProtocol@@@Z 00533840 f   log_event.obj
 0001:00132900       ?get_create_or_append@Append_block_log_event@@UBEHXZ 00533900 f   log_event.obj
 0001:00132920       ?exec_event@Append_block_log_event@@UAEHPAUst_relay_log_info@@@Z 00533920 f   log_event.obj
 0001:00132cf0       ??0Delete_file_log_event@@QAE@PAVTHD@@PBDH@Z 00533cf0 f   log_event.obj
 0001:00132d50       ??0Delete_file_log_event@@QAE@PBDIPBVFormat_description_log_event@@@Z 00533d50 f   log_event.obj
 0001:00132de0       ?write@Delete_file_log_event@@UAEHPAUst_io_cache@@@Z 00533de0 f   log_event.obj
 0001:00132e80       ?pack_info@Delete_file_log_event@@UAEXPAVProtocol@@@Z 00533e80 f   log_event.obj
 0001:00132f30       ?exec_event@Delete_file_log_event@@UAEHPAUst_relay_log_info@@@Z 00533f30 f   log_event.obj
 0001:00133010       ??0Execute_load_log_event@@QAE@PAVTHD@@PBDH@Z 00534010 f   log_event.obj
 0001:00133070       ??0Execute_load_log_event@@QAE@PBDIPBVFormat_description_log_event@@@Z 00534070 f   log_event.obj
 0001:00133100       ?write@Execute_load_log_event@@UAEHPAUst_io_cache@@@Z 00534100 f   log_event.obj
 0001:001331a0       ?pack_info@Execute_load_log_event@@UAEXPAVProtocol@@@Z 005341a0 f   log_event.obj
 0001:00133250       ?exec_event@Execute_load_log_event@@UAEHPAUst_relay_log_info@@@Z 00534250 f   log_event.obj
 0001:001335c0       ??0Begin_load_query_log_event@@QAE@PAVTHD@@PBDPADIH@Z 005345c0 f   log_event.obj
 0001:00133630       ??0Begin_load_query_log_event@@QAE@PBDIPBVFormat_description_log_event@@@Z 00534630 f   log_event.obj
 0001:00133670       ?get_create_or_append@Begin_load_query_log_event@@UBEHXZ 00534670 f   log_event.obj
 0001:00133690       ??0Execute_load_query_log_event@@QAE@PAVTHD@@PBDKIIW4enum_load_dup_handling@@HH@Z 00534690 f   log_event.obj
 0001:00133720       ??0Execute_load_query_log_event@@QAE@PBDIPBVFormat_description_log_event@@@Z 00534720 f   log_event.obj
 0001:00133810       ?get_post_header_size_for_derived@Execute_load_query_log_event@@UAEKXZ 00534810 f   log_event.obj
 0001:00133830       ?write_post_header_for_derived@Execute_load_query_log_event@@UAEHPAUst_io_cache@@@Z 00534830 f   log_event.obj
 0001:001338f0       ?pack_info@Execute_load_query_log_event@@UAEXPAVProtocol@@@Z 005348f0 f   log_event.obj
 0001:00133a60       ?exec_event@Execute_load_query_log_event@@UAEHPAUst_relay_log_info@@@Z 00534a60 f   log_event.obj
 0001:00133c70       ?write_data@sql_ex_info@@QAEHPAUst_io_cache@@@Z 00534c70 f   log_event.obj
 0001:00133eb0       ?init@sql_ex_info@@QAEPADPAD0H@Z 00534eb0 f   log_event.obj
 0001:00136cb0       ?inc_event_relay_log_pos@st_relay_log_info@@QAEXXZ 00537cb0 f i log_event.obj
 0001:00136cf0       ?store@Protocol@@QAEHK@Z   00537cf0 f i log_event.obj
 0001:00136d40       ??0Item_return_int@@QAE@PBDIW4enum_field_types@@@Z 00537d40 f i log_event.obj
 0001:00136db0       ?field_type@Item_return_int@@UBE?AW4enum_field_types@@XZ 00537db0 f i log_event.obj
 0001:00136dd0       ??_EItem_return_int@@UAEPAXI@Z 00537dd0 f i log_event.obj
 0001:00136dd0       ??_GItem_return_int@@UAEPAXI@Z 00537dd0 f i log_event.obj
 0001:00136e20       ??1Item_return_int@@UAE@XZ 00537e20 f i log_event.obj
 0001:00136e50       ?register_temp_buf@Log_event@@QAEXPAD@Z 00537e50 f i log_event.obj
 0001:00136e80       ??2Log_event@@SAPAXI@Z     00537e80 f i log_event.obj
 0001:00136eb0       ??0Stop_log_event@@QAE@PBDPBVFormat_description_log_event@@@Z 00537eb0 f i log_event.obj
 0001:00136f00       ?next_query_id@@YA_KXZ     00537f00 f i log_event.obj
 0001:00136f60       ?set_time@THD@@QAEXJ@Z     00537f60 f i log_event.obj
 0001:00136fb0       ?set_db@THD@@QAEHPBDI@Z    00537fb0 f i log_event.obj
 0001:00137100       ?ignored_error_code@@YAHH@Z 00538100 f i log_event.obj
 0001:00137170       ?write@Muted_query_log_event@@UAEHPAUst_io_cache@@@Z 00538170 f i log_event.obj
 0001:00137190       ?write_post_header_for_derived@Muted_query_log_event@@UAEHPAUst_io_cache@@@Z 00538190 f i log_event.obj
 0001:001371b0       ??_EMuted_query_log_event@@UAEPAXI@Z 005381b0 f i log_event.obj
 0001:001371b0       ??_GMuted_query_log_event@@UAEPAXI@Z 005381b0 f i log_event.obj
 0001:00137210       ?check_fname_outside_temp_buf@Load_log_event@@QAEHXZ 00538210 f i log_event.obj
 0001:00137240       ??0sql_ex_info@@QAE@XZ     00538240 f i log_event.obj
 0001:00137260       ?get_db@Load_log_event@@UAEPBDXZ 00538260 f i log_event.obj
 0001:00137280       ?exec_event@Load_log_event@@UAEHPAUst_relay_log_info@@@Z 00538280 f i log_event.obj
 0001:001372d0       ?get_type_code@Load_log_event@@UAE?AW4Log_event_type@@XZ 005382d0 f i log_event.obj
 0001:00137310       ?new_format@sql_ex_info@@QAEHXZ 00538310 f i log_event.obj
 0001:001373d0       ?is_valid@Load_log_event@@UBEHXZ 005383d0 f i log_event.obj
 0001:00137400       ?get_data_size@Load_log_event@@UAEHXZ 00538400 f i log_event.obj
 0001:00137470       ?data_size@sql_ex_info@@QAEHXZ 00538470 f i log_event.obj
 0001:00137500       ??_GLoad_log_event@@UAEPAXI@Z 00538500 f i log_event.obj
 0001:00137500       ??_ELoad_log_event@@UAEPAXI@Z 00538500 f i log_event.obj
 0001:00137560       ??1Load_log_event@@UAE@XZ  00538560 f i log_event.obj
 0001:001375c0       ??0TABLE_LIST@@QAE@XZ      005385c0 f i log_event.obj
 0001:001375e0       ?resolve_in_table_list_only@Name_resolution_context@@QAEXPAUTABLE_LIST@@@Z 005385e0 f i log_event.obj
 0001:00137620       ??1sql_exchange@@QAE@XZ    00538620 f i log_event.obj
 0001:00137650       ?notify_group_master_log_name_update@st_relay_log_info@@QAEXXZ 00538650 f i log_event.obj
 0001:00137690       ?is_valid@Slave_log_event@@UBEHXZ 00538690 f i log_event.obj
 0001:001376c0       ?get_type_code@Slave_log_event@@UAE?AW4Log_event_type@@XZ 005386c0 f i log_event.obj
 0001:001376e0       ??_ESlave_log_event@@UAEPAXI@Z 005386e0 f i log_event.obj
 0001:001376e0       ??_GSlave_log_event@@UAEPAXI@Z 005386e0 f i log_event.obj
 0001:00137730       ?force_new_format@sql_ex_info@@QAEXXZ 00538730 f i log_event.obj
 0001:00137760       ?get_type_code@Create_file_log_event@@UAE?AW4Log_event_type@@XZ 00538760 f i log_event.obj
 0001:001377c0       ?get_data_size@Create_file_log_event@@UAEHXZ 005387c0 f i log_event.obj
 0001:00137830       ?is_valid@Create_file_log_event@@UBEHXZ 00538830 f i log_event.obj
 0001:00137890       ??_ECreate_file_log_event@@UAEPAXI@Z 00538890 f i log_event.obj
 0001:00137890       ??_GCreate_file_log_event@@UAEPAXI@Z 00538890 f i log_event.obj
 0001:001378f0       ??1Create_file_log_event@@UAE@XZ 005388f0 f i log_event.obj
 0001:00137950       ?get_type_code@Append_block_log_event@@UAE?AW4Log_event_type@@XZ 00538950 f i log_event.obj
 0001:00137970       ?get_data_size@Append_block_log_event@@UAEHXZ 00538970 f i log_event.obj
 0001:001379a0       ?is_valid@Append_block_log_event@@UBEHXZ 005389a0 f i log_event.obj
 0001:001379d0       ?get_db@Append_block_log_event@@UAEPBDXZ 005389d0 f i log_event.obj
 0001:001379f0       ??_EAppend_block_log_event@@UAEPAXI@Z 005389f0 f i log_event.obj
 0001:001379f0       ??_GAppend_block_log_event@@UAEPAXI@Z 005389f0 f i log_event.obj
 0001:00137a40       ??1Append_block_log_event@@UAE@XZ 00538a40 f i log_event.obj
 0001:00137a80       ?get_type_code@Delete_file_log_event@@UAE?AW4Log_event_type@@XZ 00538a80 f i log_event.obj
 0001:00137aa0       ?get_data_size@Delete_file_log_event@@UAEHXZ 00538aa0 f i log_event.obj
 0001:00137ac0       ?is_valid@Delete_file_log_event@@UBEHXZ 00538ac0 f i log_event.obj
 0001:00137af0       ?get_db@Delete_file_log_event@@UAEPBDXZ 00538af0 f i log_event.obj
 0001:00137b10       ??_EDelete_file_log_event@@UAEPAXI@Z 00538b10 f i log_event.obj
 0001:00137b10       ??_GDelete_file_log_event@@UAEPAXI@Z 00538b10 f i log_event.obj
 0001:00137b60       ??1Delete_file_log_event@@UAE@XZ 00538b60 f i log_event.obj
 0001:00137ba0       ?get_type_code@Execute_load_log_event@@UAE?AW4Log_event_type@@XZ 00538ba0 f i log_event.obj
 0001:00137bc0       ?get_data_size@Execute_load_log_event@@UAEHXZ 00538bc0 f i log_event.obj
 0001:00137be0       ?is_valid@Execute_load_log_event@@UBEHXZ 00538be0 f i log_event.obj
 0001:00137c10       ?get_db@Execute_load_log_event@@UAEPBDXZ 00538c10 f i log_event.obj
 0001:00137c30       ??_GExecute_load_log_event@@UAEPAXI@Z 00538c30 f i log_event.obj
 0001:00137c30       ??_EExecute_load_log_event@@UAEPAXI@Z 00538c30 f i log_event.obj
 0001:00137c80       ??1Execute_load_log_event@@UAE@XZ 00538c80 f i log_event.obj
 0001:00137cc0       ?get_type_code@Begin_load_query_log_event@@UAE?AW4Log_event_type@@XZ 00538cc0 f i log_event.obj
 0001:00137ce0       ??_EBegin_load_query_log_event@@UAEPAXI@Z 00538ce0 f i log_event.obj
 0001:00137ce0       ??_GBegin_load_query_log_event@@UAEPAXI@Z 00538ce0 f i log_event.obj
 0001:00137d30       ??1Begin_load_query_log_event@@UAE@XZ 00538d30 f i log_event.obj
 0001:00137d70       ?get_type_code@Execute_load_query_log_event@@UAE?AW4Log_event_type@@XZ 00538d70 f i log_event.obj
 0001:00137d90       ?is_valid@Execute_load_query_log_event@@UBEHXZ 00538d90 f i log_event.obj
 0001:00137e00       ??_GExecute_load_query_log_event@@UAEPAXI@Z 00538e00 f i log_event.obj
 0001:00137e00       ??_EExecute_load_query_log_event@@UAEPAXI@Z 00538e00 f i log_event.obj
 0001:00137e60       ??1Execute_load_query_log_event@@UAE@XZ 00538e60 f i log_event.obj
 0001:00137ea0       ?is_empty@?$I_List@Vi_string_pair@@@@QAEHXZ 00538ea0 f i log_event.obj
 0001:00137ed0       ?is_empty@base_ilist@@QAEHXZ 00538ed0 f i log_event.obj
 0001:00137f00       ??0?$I_List_iterator@Vi_string_pair@@@@QAE@AAV?$I_List@Vi_string_pair@@@@@Z 00538f00 f i log_event.obj
 0001:00137f40       ??0base_ilist_iterator@@QAE@AAVbase_ilist@@@Z 00538f40 f i log_event.obj
 0001:00137f80       ??E?$I_List_iterator@Vi_string_pair@@@@QAEPAVi_string_pair@@H@Z 00538f80 f i log_event.obj
 0001:00137fb0       ?next@base_ilist_iterator@@QAEPAXXZ 00538fb0 f i log_event.obj
 0001:00138010       __my_b_net_read            00539010 f   mf_iocache.obj
 0001:00138270       ?decimal_operation_results@@YAHH@Z 00539270 f   my_decimal.obj
 0001:001383c0       ?my_decimal2string@@YAHIPBVmy_decimal@@IIDPAVString@@@Z 005393c0 f   my_decimal.obj
 0001:001384a0       ?my_decimal2binary@@YAHIPBVmy_decimal@@PADHH@Z 005394a0 f   my_decimal.obj
 0001:00138580       ?str2my_decimal@@YAHIPBDIPAUcharset_info_st@@PAVmy_decimal@@@Z 00539580 f   my_decimal.obj
 0001:00138720       ?date2my_decimal@@YAPAVmy_decimal@@PAUst_mysql_time@@PAV1@@Z 00539720 f   my_decimal.obj
 0001:00138820       ?print_decimal@@YAXPBVmy_decimal@@@Z 00539820 f   my_decimal.obj
 0001:001388b0       ?print_decimal_buff@@YAXPBVmy_decimal@@PBEH@Z 005398b0 f   my_decimal.obj
 0001:00138940       ?dbug_decimal_as_string@@YAPBDPADPBVmy_decimal@@@Z 00539940 f   my_decimal.obj
 0001:00138ba0       ?my_decimal_string_length@@YAHPBVmy_decimal@@@Z 00539ba0 f i my_decimal.obj
 0001:00138c00       _calc_days_in_year         00539c00 f   my_time.obj
 0001:00138c50       _check_date                00539c50 f   my_time.obj
 0001:00138d00       _str_to_datetime           00539d00 f   my_time.obj
 0001:00139880       _str_to_time               0053a880 f   my_time.obj
 0001:00139f70       _check_time_range          0053af70 f   my_time.obj
 0001:0013a040       _init_time                 0053b040 f   my_time.obj
 0001:0013a150       _year_2000_handling        0053b150 f   my_time.obj
 0001:0013a180       _calc_daynr                0053b180 f   my_time.obj
 0001:0013a380       _my_system_gmt_sec         0053b380 f   my_time.obj
 0001:0013a740       _set_zero_time             0053b740 f   my_time.obj
 0001:0013a770       _my_time_to_str            0053b770 f   my_time.obj
 0001:0013a7f0       _my_date_to_str            0053b7f0 f   my_time.obj
 0001:0013a830       _my_datetime_to_str        0053b830 f   my_time.obj
 0001:0013a880       _my_TIME_to_str            0053b880 f   my_time.obj
 0001:0013a930       _number_to_datetime        0053b930 f   my_time.obj
 0001:0013ac60       _TIME_to_ulonglong_datetime 0053bc60 f   my_time.obj
 0001:0013acb0       _TIME_to_ulonglong_date    0053bcb0 f   my_time.obj
 0001:0013ace0       _TIME_to_ulonglong_time    0053bce0 f   my_time.obj
 0001:0013ad10       _TIME_to_ulonglong         0053bd10 f   my_time.obj
 0001:0013b620       _myrg_rnext_same           0053c620 f   myrg_rnext_same.obj
 0001:0013b730       ?kill_mysql@@YAXXZ         0053c730 f   mysqld.obj
 0001:0013b8a0       _kill_server_thread        0053c8a0 f   mysqld.obj
 0001:0013c150       _print_signal_warning      0053d150 f   mysqld.obj
 0001:0013c1b0       ?unireg_end@@YAXXZ         0053d1b0 f   mysqld.obj
 0001:0013c1e0       _unireg_abort              0053d1e0 f   mysqld.obj
 0001:0013ca10       ?close_connection@@YAXPAVTHD@@IH@Z 0053da10 f   mysqld.obj
 0001:0013cc00       _end_thread_signal         0053dc00 f   mysqld.obj
 0001:0013cd20       ?end_thread@@YAXPAVTHD@@H@Z 0053dd20 f   mysqld.obj
 0001:0013d030       ?flush_thread_cache@@YAXXZ 0053e030 f   mysqld.obj
 0001:0013d0b0       ?uname@@YAHPAUutsname@@@Z  0053e0b0 f   mysqld.obj
 0001:0013d0c0       _handle_shutdown           0053e0c0 f   mysqld.obj
 0001:0013d170       ?handle_kill@@YGHK@Z       0053e170 f   mysqld.obj
 0001:0013d1a0       ?decrement_handler_count@@YAXXZ 0053e1a0 f   mysqld.obj
 0001:0013d200       ?win_main@@YAHHPAPAD@Z     0053e200 f   mysqld.obj
 0001:0013f7d0       ?mysql_service@@YAHPAX@Z   005407d0 f   mysqld.obj
 0001:0013f820       _main                      00540820 f   mysqld.obj
 0001:00140180       _handle_connections_sockets 00541180 f   mysqld.obj
 0001:00140bb0       _handle_connections_namedpipes 00541bb0 f   mysqld.obj
 0001:00140f10       _handle_connections_shared_memory 00541f10 f   mysqld.obj
 0001:001439d0       ?fn_format_relative_to_data_home@@YAHPADPBD11@Z 005449d0 f   mysqld.obj
 0001:001443b0       ?refresh_status@@YAXPAVTHD@@@Z 005453b0 f   mysqld.obj
 0001:00146810       ?IsNT@NTService@@QAEHXZ    00547810 f i mysqld.obj
 0001:00146830       ?SetShutdownEvent@NTService@@QAEXPAX@Z 00547830 f i mysqld.obj
 0001:00146860       ?open_query_log@MYSQL_LOG@@QAEHPBD@Z 00547860 f i mysqld.obj
 0001:00146930       ?open_slow_log@MYSQL_LOG@@QAEHPBD@Z 00547930 f i mysqld.obj
 0001:00146a00       ?result_size_limit@Query_cache@@QAEXK@Z 00547a00 f i mysqld.obj
 0001:00146a30       ??2ilink@@SAPAXI@Z         00547a30 f i mysqld.obj
 0001:00146a60       ??0i_string@@QAE@PAD@Z     00547a60 f i mysqld.obj
 0001:00146ab0       ??0ilink@@QAE@XZ           00547ab0 f i mysqld.obj
 0001:00146af0       ??_Eilink@@UAEPAXI@Z       00547af0 f i mysqld.obj
 0001:00146af0       ??_Gilink@@UAEPAXI@Z       00547af0 f i mysqld.obj
 0001:00146b40       ??3ilink@@SAXPAXI@Z        00547b40 f i mysqld.obj
 0001:00146b70       ??1ilink@@UAE@XZ           00547b70 f i mysqld.obj
 0001:00146bb0       ?unlink@ilink@@QAEXXZ      00547bb0 f i mysqld.obj
 0001:00146c20       ??_Gi_string@@UAEPAXI@Z    00547c20 f i mysqld.obj
 0001:00146c20       ??_Ei_string@@UAEPAXI@Z    00547c20 f i mysqld.obj
 0001:00146c70       ??1i_string@@UAE@XZ        00547c70 f i mysqld.obj
 0001:00146ca0       ??0i_string_pair@@QAE@PAD0@Z 00547ca0 f i mysqld.obj
 0001:00146d00       ??_Gi_string_pair@@UAEPAXI@Z 00547d00 f i mysqld.obj
 0001:00146d00       ??_Ei_string_pair@@UAEPAXI@Z 00547d00 f i mysqld.obj
 0001:00146d50       ??1i_string_pair@@UAE@XZ   00547d50 f i mysqld.obj
 0001:00146d80       ?empty@?$I_List@VNAMED_LIST@@@@QAEXXZ 00547d80 f i mysqld.obj
 0001:00146db0       ?empty@base_ilist@@QAEXXZ  00547db0 f i mysqld.obj
 0001:00146de0       ?empty@?$I_List@VTHD@@@@QAEXXZ 00547de0 f i mysqld.obj
 0001:00146e10       ?append@?$I_List@VTHD@@@@QAEXPAVTHD@@@Z 00547e10 f i mysqld.obj
 0001:00146e50       ?append@base_ilist@@QAEXPAUilink@@@Z 00547e50 f i mysqld.obj
 0001:00146ea0       ?get@?$I_List@VTHD@@@@QAEPAVTHD@@XZ 00547ea0 f i mysqld.obj
 0001:00146ed0       ?get@base_ilist@@QAEPAUilink@@XZ 00547ed0 f i mysqld.obj
 0001:00146f30       ?empty@?$I_List@Vi_string@@@@QAEXXZ 00547f30 f i mysqld.obj
 0001:00146f60       ?push_back@?$I_List@Vi_string@@@@QAEXPAVi_string@@@Z 00547f60 f i mysqld.obj
 0001:00146fa0       ?push_back@base_ilist@@QAEXPAUilink@@@Z 00547fa0 f i mysqld.obj
 0001:00147000       ?empty@?$I_List@Vi_string_pair@@@@QAEXXZ 00548000 f i mysqld.obj
 0001:00147030       ?push_back@?$I_List@Vi_string_pair@@@@QAEXPAVi_string_pair@@@Z 00548030 f i mysqld.obj
 0001:00147070       ??0?$I_List_iterator@VTHD@@@@QAE@AAV?$I_List@VTHD@@@@@Z 00548070 f i mysqld.obj
 0001:001470b0       ??E?$I_List_iterator@VTHD@@@@QAEPAVTHD@@H@Z 005480b0 f i mysqld.obj
 0001:001470e0       ??0?$I_List@VTHD@@@@QAE@XZ 005480e0 f i mysqld.obj
 0001:00147110       ??0base_ilist@@QAE@XZ      00548110 f i mysqld.obj
 0001:00147150       ??0Eq_creator@@QAE@XZ      00548150 f i mysqld.obj
 0001:00147190       ??0Comp_creator@@QAE@XZ    00548190 f i mysqld.obj
 0001:001471c0       ??_EComp_creator@@UAEPAXI@Z 005481c0 f i mysqld.obj
 0001:001471c0       ??_GComp_creator@@UAEPAXI@Z 005481c0 f i mysqld.obj
 0001:00147210       ??1Comp_creator@@UAE@XZ    00548210 f i mysqld.obj
 0001:00147240       ?symbol@Eq_creator@@UBEPBDH@Z 00548240 f i mysqld.obj
 0001:00147290       ?eqne_op@Eq_creator@@UBEHXZ 00548290 f i mysqld.obj
 0001:001472b0       ?l_op@Eq_creator@@UBEHXZ   005482b0 f i mysqld.obj
 0001:001472d0       ??_GEq_creator@@UAEPAXI@Z  005482d0 f i mysqld.obj
 0001:001472d0       ??_EEq_creator@@UAEPAXI@Z  005482d0 f i mysqld.obj
 0001:00147320       ??1Eq_creator@@UAE@XZ      00548320 f i mysqld.obj
 0001:00147360       ??0Ne_creator@@QAE@XZ      00548360 f i mysqld.obj
 0001:001473a0       ?symbol@Ne_creator@@UBEPBDH@Z 005483a0 f i mysqld.obj
 0001:001473f0       ?eqne_op@Ne_creator@@UBEHXZ 005483f0 f i mysqld.obj
 0001:00147410       ?l_op@Ne_creator@@UBEHXZ   00548410 f i mysqld.obj
 0001:00147430       ??_ENe_creator@@UAEPAXI@Z  00548430 f i mysqld.obj
 0001:00147430       ??_GNe_creator@@UAEPAXI@Z  00548430 f i mysqld.obj
 0001:00147480       ??1Ne_creator@@UAE@XZ      00548480 f i mysqld.obj
 0001:001474c0       ??0Gt_creator@@QAE@XZ      005484c0 f i mysqld.obj
 0001:00147500       ?symbol@Gt_creator@@UBEPBDH@Z 00548500 f i mysqld.obj
 0001:00147550       ?eqne_op@Gt_creator@@UBEHXZ 00548550 f i mysqld.obj
 0001:00147570       ?l_op@Gt_creator@@UBEHXZ   00548570 f i mysqld.obj
 0001:00147590       ??_EGt_creator@@UAEPAXI@Z  00548590 f i mysqld.obj
 0001:00147590       ??_GGt_creator@@UAEPAXI@Z  00548590 f i mysqld.obj
 0001:001475e0       ??1Gt_creator@@UAE@XZ      005485e0 f i mysqld.obj
 0001:00147620       ??0Lt_creator@@QAE@XZ      00548620 f i mysqld.obj
 0001:00147660       ?symbol@Lt_creator@@UBEPBDH@Z 00548660 f i mysqld.obj
 0001:001476b0       ?eqne_op@Lt_creator@@UBEHXZ 005486b0 f i mysqld.obj
 0001:001476d0       ?l_op@Lt_creator@@UBEHXZ   005486d0 f i mysqld.obj
 0001:001476f0       ??_ELt_creator@@UAEPAXI@Z  005486f0 f i mysqld.obj
 0001:001476f0       ??_GLt_creator@@UAEPAXI@Z  005486f0 f i mysqld.obj
 0001:00147740       ??1Lt_creator@@UAE@XZ      00548740 f i mysqld.obj
 0001:00147780       ??0Ge_creator@@QAE@XZ      00548780 f i mysqld.obj
 0001:001477c0       ?symbol@Ge_creator@@UBEPBDH@Z 005487c0 f i mysqld.obj
 0001:00147810       ?eqne_op@Ge_creator@@UBEHXZ 00548810 f i mysqld.obj
 0001:00147830       ?l_op@Ge_creator@@UBEHXZ   00548830 f i mysqld.obj
 0001:00147850       ??_EGe_creator@@UAEPAXI@Z  00548850 f i mysqld.obj
 0001:00147850       ??_GGe_creator@@UAEPAXI@Z  00548850 f i mysqld.obj
 0001:001478a0       ??1Ge_creator@@UAE@XZ      005488a0 f i mysqld.obj
 0001:001478e0       ??0Le_creator@@QAE@XZ      005488e0 f i mysqld.obj
 0001:00147920       ?symbol@Le_creator@@UBEPBDH@Z 00548920 f i mysqld.obj
 0001:00147970       ?eqne_op@Le_creator@@UBEHXZ 00548970 f i mysqld.obj
 0001:00147990       ?l_op@Le_creator@@UBEHXZ   00548990 f i mysqld.obj
 0001:001479b0       ??_ELe_creator@@UAEPAXI@Z  005489b0 f i mysqld.obj
 0001:001479b0       ??_GLe_creator@@UAEPAXI@Z  005489b0 f i mysqld.obj
 0001:00147a00       ??1Le_creator@@UAE@XZ      00548a00 f i mysqld.obj
 0001:00147a40       ??0?$I_List@Vi_string_pair@@@@QAE@XZ 00548a40 f i mysqld.obj
 0001:00147a70       ??0?$I_List@Vi_string@@@@QAE@XZ 00548a70 f i mysqld.obj
 0001:00147aa0       ??0?$I_List@VNAMED_LIST@@@@QAE@XZ 00548aa0 f i mysqld.obj
 0001:00147ad0       ??0File_parser_dummy_hook@@QAE@XZ 00548ad0 f i mysqld.obj
 0001:00147b10       ??0Unknown_key_hook@@QAE@XZ 00548b10 f i mysqld.obj
 0001:00147b40       ??_GUnknown_key_hook@@UAEPAXI@Z 00548b40 f i mysqld.obj
 0001:00147b40       ??_EUnknown_key_hook@@UAEPAXI@Z 00548b40 f i mysqld.obj
 0001:00147b90       ??1Unknown_key_hook@@UAE@XZ 00548b90 f i mysqld.obj
 0001:00147bc0       ??_EFile_parser_dummy_hook@@UAEPAXI@Z 00548bc0 f i mysqld.obj
 0001:00147bc0       ??_GFile_parser_dummy_hook@@UAEPAXI@Z 00548bc0 f i mysqld.obj
 0001:00147c10       ??1File_parser_dummy_hook@@UAE@XZ 00548c10 f i mysqld.obj
 0001:00147c40       ??1?$I_List@VTHD@@@@QAE@XZ 00548c40 f i mysqld.obj
 0001:00147c70       ??1base_ilist@@QAE@XZ      00548c70 f i mysqld.obj
 0001:00147ca0       ??1?$I_List@Vi_string_pair@@@@QAE@XZ 00548ca0 f i mysqld.obj
 0001:00147cd0       ??1?$I_List@Vi_string@@@@QAE@XZ 00548cd0 f i mysqld.obj
 0001:00147d00       ??1?$I_List@VNAMED_LIST@@@@QAE@XZ 00548d00 f i mysqld.obj
 0001:00147d30       _my_net_init               00548d30 f   net_serv.obj
 0001:00147f60       _net_end                   00548f60 f   net_serv.obj
 0001:00148060       _net_realloc               00549060 f   net_serv.obj
 0001:00148290       _net_clear                 00549290 f   net_serv.obj
 0001:00148580       _net_flush                 00549580 f   net_serv.obj
 0001:001486c0       _my_net_write              005496c0 f   net_serv.obj
 0001:00148840       _net_write_command         00549840 f   net_serv.obj
 0001:00148c90       _net_real_write            00549c90 f   net_serv.obj
 0001:00149080       _my_net_read               0054a080 f   net_serv.obj
 0001:00149980       _my_net_set_read_timeout   0054a980 f   net_serv.obj
 0001:00149ac0       _my_net_set_write_timeout  0054aac0 f   net_serv.obj
 0001:0014a3c0       ??0NTService@@QAE@XZ       0054b3c0 f   nt_servc.obj
 0001:0014a4f0       ??1NTService@@QAE@XZ       0054b4f0 f   nt_servc.obj
 0001:0014a540       ?GetOS@NTService@@QAEHXZ   0054b540 f   nt_servc.obj
 0001:0014a5c0       ?Init@NTService@@QAEJPBDPAX@Z 0054b5c0 f   nt_servc.obj
 0001:0014a6b0       ?Install@NTService@@QAEHHPBD0000@Z 0054b6b0 f   nt_servc.obj
 0001:0014a850       ?Remove@NTService@@QAEHPBD@Z 0054b850 f   nt_servc.obj
 0001:0014a970       ?Stop@NTService@@QAEXXZ    0054b970 f   nt_servc.obj
 0001:0014a9c0       ?ServiceMain@NTService@@KAXKPAPAD@Z 0054b9c0 f   nt_servc.obj
 0001:0014ab70       ?StartServiceA@NTService@@IAEHXZ 0054bb70 f   nt_servc.obj
 0001:0014abd0       ?StopService@NTService@@IAEXXZ 0054bbd0 f   nt_servc.obj
 0001:0014ac40       ?PauseService@NTService@@IAEXXZ 0054bc40 f   nt_servc.obj
 0001:0014ac90       ?ResumeService@NTService@@IAEXXZ 0054bc90 f   nt_servc.obj
 0001:0014ace0       ?SetStatus@NTService@@IAEHKKKKK@Z 0054bce0 f   nt_servc.obj
 0001:0014add0       ?ServiceCtrlHandler@NTService@@KAXK@Z 0054bdd0 f   nt_servc.obj
 0001:0014ae70       ?Exit@NTService@@IAEXK@Z   0054be70 f   nt_servc.obj
 0001:0014aee0       ?SeekStatus@NTService@@QAEHPBDH@Z 0054bee0 f   nt_servc.obj
 0001:0014b150       ?IsService@NTService@@QAEHPBD@Z 0054c150 f   nt_servc.obj
 0001:0014b200       ?got_service_option@NTService@@QAEHPAPADPAD@Z 0054c200 f   nt_servc.obj
 0001:0014b270       ?is_super_user@NTService@@QAEHXZ 0054c270 f   nt_servc.obj
 0001:0014b980       ?or_sel_tree@SEL_IMERGE@@QAEHPAUst_qsel_param@@PAVSEL_TREE@@@Z 0054c980 f   opt_range.obj
 0001:0014ba80       ?or_sel_tree_with_checks@SEL_IMERGE@@QAEHPAUst_qsel_param@@PAVSEL_TREE@@@Z 0054ca80 f   opt_range.obj
 0001:0014bb40       ?or_sel_imerge_with_checks@SEL_IMERGE@@QAEHPAUst_qsel_param@@PAV1@@Z 0054cb40 f   opt_range.obj
 0001:0014bbb0       ?imerge_list_or_list@@YAHPAUst_qsel_param@@PAV?$List@VSEL_IMERGE@@@@1@Z 0054cbb0 f   opt_range.obj
 0001:0014bc00       ?imerge_list_or_tree@@YAHPAUst_qsel_param@@PAV?$List@VSEL_IMERGE@@@@PAVSEL_TREE@@@Z 0054cc00 f   opt_range.obj
 0001:0014bca0       ?make_select@@YAPAVSQL_SELECT@@PAUst_table@@_K1PAVItem@@HPAH@Z 0054cca0 f   opt_range.obj
 0001:0014bed0       ??0SQL_SELECT@@QAE@XZ      0054ced0 f   opt_range.obj
 0001:0014bf60       ?cleanup@SQL_SELECT@@QAEXXZ 0054cf60 f   opt_range.obj
 0001:0014c040       ??1SQL_SELECT@@QAE@XZ      0054d040 f   opt_range.obj
 0001:0014c070       ??0QUICK_SELECT_I@@QAE@XZ  0054d070 f   opt_range.obj
 0001:0014c0b0       ??0QUICK_RANGE_SELECT@@QAE@PAVTHD@@PAUst_table@@IHPAUst_mem_root@@@Z 0054d0b0 f   opt_range.obj
 0001:0014c220       ?init@QUICK_RANGE_SELECT@@UAEHXZ 0054d220 f   opt_range.obj
 0001:0014c340       ?range_end@QUICK_RANGE_SELECT@@UAEXXZ 0054d340 f   opt_range.obj
 0001:0014c380       ??1QUICK_RANGE_SELECT@@UAE@XZ 0054d380 f   opt_range.obj
 0001:0014c5d0       ??0QUICK_INDEX_MERGE_SELECT@@QAE@PAVTHD@@PAUst_table@@@Z 0054d5d0 f   opt_range.obj
 0001:0014c730       ?init@QUICK_INDEX_MERGE_SELECT@@UAEHXZ 0054d730 f   opt_range.obj
 0001:0014c810       ?reset@QUICK_INDEX_MERGE_SELECT@@UAEHXZ 0054d810 f   opt_range.obj
 0001:0014c900       ?push_quick_back@QUICK_INDEX_MERGE_SELECT@@QAEHPAVQUICK_RANGE_SELECT@@@Z 0054d900 f   opt_range.obj
 0001:0014c980       ??1QUICK_INDEX_MERGE_SELECT@@UAE@XZ 0054d980 f   opt_range.obj
 0001:0014cb20       ??0QUICK_ROR_INTERSECT_SELECT@@QAE@PAVTHD@@PAUst_table@@HPAUst_mem_root@@@Z 0054db20 f   opt_range.obj
 0001:0014cc20       ?init@QUICK_ROR_INTERSECT_SELECT@@UAEHXZ 0054dc20 f   opt_range.obj
 0001:0014cd10       ?init_ror_merged_scan@QUICK_RANGE_SELECT@@UAEHH@Z 0054dd10 f   opt_range.obj
 0001:0014d0a0       ?init_ror_merged_scan@QUICK_ROR_INTERSECT_SELECT@@UAEHH@Z 0054e0a0 f   opt_range.obj
 0001:0014d330       ?reset@QUICK_ROR_INTERSECT_SELECT@@UAEHXZ 0054e330 f   opt_range.obj
 0001:0014d4b0       ?push_quick_back@QUICK_ROR_INTERSECT_SELECT@@QAEHPAVQUICK_RANGE_SELECT@@@Z 0054e4b0 f   opt_range.obj
 0001:0014d4e0       ??1QUICK_ROR_INTERSECT_SELECT@@UAE@XZ 0054e4e0 f   opt_range.obj
 0001:0014d660       ??0QUICK_ROR_UNION_SELECT@@QAE@PAVTHD@@PAUst_table@@@Z 0054e660 f   opt_range.obj
 0001:0014d720       ?init@QUICK_ROR_UNION_SELECT@@UAEHXZ 0054e720 f   opt_range.obj
 0001:0014d8d0       ?queue_cmp@QUICK_ROR_UNION_SELECT@@CAHPAXPAE1@Z 0054e8d0 f   opt_range.obj
 0001:0014d930       ?reset@QUICK_ROR_UNION_SELECT@@UAEHXZ 0054e930 f   opt_range.obj
 0001:0014dc00       ?push_quick_back@QUICK_ROR_UNION_SELECT@@QAEHPAVQUICK_SELECT_I@@@Z 0054ec00 f   opt_range.obj
 0001:0014dc30       ??1QUICK_ROR_UNION_SELECT@@UAE@XZ 0054ec30 f   opt_range.obj
 0001:0014dd80       ??0QUICK_RANGE@@QAE@XZ     0054ed80 f   opt_range.obj
 0001:0014dde0       ??0SEL_ARG@@QAE@AAV0@@Z    0054ede0 f   opt_range.obj
 0001:0014dea0       ??0SEL_ARG@@QAE@PAVField@@PBD1@Z 0054eea0 f   opt_range.obj
 0001:0014df70       ??0SEL_ARG@@QAE@PAVField@@EPAD1EEE@Z 0054ef70 f   opt_range.obj
 0001:0014e040       ?clone@SEL_ARG@@QAEPAV1@PAUst_qsel_param@@PAV1@PAPAV1@@Z 0054f040 f   opt_range.obj
 0001:0014e250       ?first@SEL_ARG@@QAEPAV1@XZ 0054f250 f   opt_range.obj
 0001:0014e2a0       ?last@SEL_ARG@@QAEPAV1@XZ  0054f2a0 f   opt_range.obj
 0001:0014e2f0       ?clone_tree@SEL_ARG@@QAEPAV1@PAUst_qsel_param@@@Z 0054f2f0 f   opt_range.obj
 0001:0014e3e0       ?get_index_for_order@@YAIPAUst_table@@PAUst_order@@K@Z 0054f3e0 f   opt_range.obj
 0001:0014e5f0       ?test_quick_select@SQL_SELECT@@QAEHPAVTHD@@V?$Bitmap@$0EA@@@_KKH@Z 0054f5f0 f   opt_range.obj
 0001:0014f460       ?get_sweep_read_cost@@YANPBUst_qsel_param@@K@Z 00550460 f   opt_range.obj
 0001:00150190       ?ror_intersect_cpy@@YAXPAUROR_INTERSECT_INFO@@PBU1@@Z 00551190 f   opt_range.obj
 0001:001522f0       ?make_quick@TRP_INDEX_MERGE@@UAEPAVQUICK_SELECT_I@@PAUst_qsel_param@@HPAUst_mem_root@@@Z 005532f0 f   opt_range.obj
 0001:00152460       ?make_quick@TRP_ROR_INTERSECT@@UAEPAVQUICK_SELECT_I@@PAUst_qsel_param@@HPAUst_mem_root@@@Z 00553460 f   opt_range.obj
 0001:00152780       ?make_quick@TRP_ROR_UNION@@UAEPAVQUICK_SELECT_I@@PAUst_qsel_param@@HPAUst_mem_root@@@Z 00553780 f   opt_range.obj
 0001:001553c0       ?sel_trees_can_be_ored@@YAHPAVSEL_TREE@@0PAUst_qsel_param@@@Z 005563c0 f   opt_range.obj
 0001:00156ce0       ?insert@SEL_ARG@@QAEPAV1@PAV1@@Z 00557ce0 f   opt_range.obj
 0001:00156e40       ?find_range@SEL_ARG@@QAEPAV1@PAV1@@Z 00557e40 f   opt_range.obj
 0001:00156ed0       ?tree_delete@SEL_ARG@@QAEPAV1@PAV1@@Z 00557ed0 f   opt_range.obj
 0001:001571d0       ?rb_insert@SEL_ARG@@QAEPAV1@PAV1@@Z 005581d0 f   opt_range.obj
 0001:001574c0       ?rb_delete_fixup@@YAPAVSEL_ARG@@PAV1@00@Z 005584c0 f   opt_range.obj
 0001:00158260       ?get_quick_select@@YAPAVQUICK_RANGE_SELECT@@PAUst_qsel_param@@IPAVSEL_ARG@@PAUst_mem_root@@@Z 00559260 f   opt_range.obj
 0001:00158500       ?get_quick_keys@@YAHPAUst_qsel_param@@PAVQUICK_RANGE_SELECT@@PAUst_key_part@@PAVSEL_ARG@@PADI4I@Z 00559500 f   opt_range.obj
 0001:001589e0       ?unique_key_range@QUICK_RANGE_SELECT@@UAEHXZ 005599e0 f   opt_range.obj
 0001:00158ad0       ?is_keys_used@QUICK_SELECT_I@@UAEHPAV?$List@VItem@@@@@Z 00559ad0 f   opt_range.obj
 0001:00158b10       ?is_keys_used@QUICK_INDEX_MERGE_SELECT@@UAEHPAV?$List@VItem@@@@@Z 00559b10 f   opt_range.obj
 0001:00158bc0       ?is_keys_used@QUICK_ROR_INTERSECT_SELECT@@UAEHPAV?$List@VItem@@@@@Z 00559bc0 f   opt_range.obj
 0001:00158c70       ?is_keys_used@QUICK_ROR_UNION_SELECT@@UAEHPAV?$List@VItem@@@@@Z 00559c70 f   opt_range.obj
 0001:00158d20       ?get_quick_select_for_ref@@YAPAVQUICK_RANGE_SELECT@@PAVTHD@@PAUst_table@@PAUst_table_ref@@K@Z 00559d20 f   opt_range.obj
 0001:001590b0       ?read_keys_and_merge@QUICK_INDEX_MERGE_SELECT@@QAEHXZ 0055a0b0 f   opt_range.obj
 0001:001595b0       ?get_next@QUICK_INDEX_MERGE_SELECT@@UAEHXZ 0055a5b0 f   opt_range.obj
 0001:001597d0       ?get_next@QUICK_ROR_INTERSECT_SELECT@@UAEHXZ 0055a7d0 f   opt_range.obj
 0001:00159b80       ?get_next@QUICK_ROR_UNION_SELECT@@UAEHXZ 0055ab80 f   opt_range.obj
 0001:00159e00       ?reset@QUICK_RANGE_SELECT@@UAEHXZ 0055ae00 f   opt_range.obj
 0001:0015a200       ?get_next@QUICK_RANGE_SELECT@@UAEHXZ 0055b200 f   opt_range.obj
 0001:0015a590       ?get_next_prefix@QUICK_RANGE_SELECT@@QAEHIPAE@Z 0055b590 f   opt_range.obj
 0001:0015a8f0       ?get_next@QUICK_RANGE_SELECT_GEOM@@UAEHXZ 0055b8f0 f   opt_range.obj
 0001:0015ab10       ?row_in_ranges@QUICK_RANGE_SELECT@@IAEHXZ 0055bb10 f   opt_range.obj
 0001:0015abf0       ??0QUICK_SELECT_DESC@@QAE@PAVQUICK_RANGE_SELECT@@I@Z 0055bbf0 f   opt_range.obj
 0001:0015ad60       ?get_next@QUICK_SELECT_DESC@@UAEHXZ 0055bd60 f   opt_range.obj
 0001:0015b170       ?cmp_next@QUICK_RANGE_SELECT@@IAEHPAVQUICK_RANGE@@@Z 0055c170 f   opt_range.obj
 0001:0015b2c0       ?cmp_prev@QUICK_RANGE_SELECT@@IAEHPAVQUICK_RANGE@@@Z 0055c2c0 f   opt_range.obj
 0001:0015b340       ?range_reads_after_key@QUICK_SELECT_DESC@@AAEHPAVQUICK_RANGE@@@Z 0055c340 f   opt_range.obj
 0001:0015b3b0       ?add_info_string@QUICK_RANGE_SELECT@@UAEXPAVString@@@Z 0055c3b0 f   opt_range.obj
 0001:0015b400       ?add_info_string@QUICK_INDEX_MERGE_SELECT@@UAEXPAVString@@@Z 0055c400 f   opt_range.obj
 0001:0015b510       ?add_info_string@QUICK_ROR_INTERSECT_SELECT@@UAEXPAVString@@@Z 0055c510 f   opt_range.obj
 0001:0015b620       ?add_info_string@QUICK_ROR_UNION_SELECT@@UAEXPAVString@@@Z 0055c620 f   opt_range.obj
 0001:0015b700       ?add_keys_and_lengths@QUICK_RANGE_SELECT@@UAEXPAVString@@0@Z 0055c700 f   opt_range.obj
 0001:0015b7c0       ?add_keys_and_lengths@QUICK_INDEX_MERGE_SELECT@@UAEXPAVString@@0@Z 0055c7c0 f   opt_range.obj
 0001:0015b950       ?add_keys_and_lengths@QUICK_ROR_INTERSECT_SELECT@@UAEXPAVString@@0@Z 0055c950 f   opt_range.obj
 0001:0015bae0       ?add_keys_and_lengths@QUICK_ROR_UNION_SELECT@@UAEXPAVString@@0@Z 0055cae0 f   opt_range.obj
